TN:
SF:/home/workspace/jelonanx/opae-sdk/libopae/plugins/xfpga/mmap.c
FN:63,alloc_buffer
FN:82,free_buffer
FNDA:1,alloc_buffer
FNDA:1,free_buffer
FNF:2
FNH:2
DA:63,1
DA:65,1
DA:68,1
DA:69,0
DA:70,1
DA:71,1
DA:73,0
DA:74,1
DA:75,0
DA:76,0
DA:79,1
DA:82,1
DA:98,1
DA:99,0
DA:100,1
DA:101,1
DA:102,1
DA:103,0
DA:104,0
DA:107,1
LF:20
LH:13
end_of_record
TN:
SF:/home/workspace/jelonanx/opae-sdk/testing/mock/test_system.h
FN:116,_ZN4opae7testing13test_platformC2Ev
FN:116,_ZN4opae7testing13test_platformD2Ev
FN:116,_ZN4opae7testing13test_platformaSEOS1_
FNDA:1,_ZN4opae7testing13test_platformaSEOS1_
FNDA:5,_ZN4opae7testing13test_platformD2Ev
FNDA:1,_ZN4opae7testing13test_platformC2Ev
FNF:3
FNH:3
DA:116,7
LF:1
LH:1
end_of_record
SF:/home/workspace/jelonanx/opae-sdk/testing/xfpga/test_properties_c.cpp
FN:37,_ZN13properties_p1D0Ev
FN:37,_ZN13properties_p1D2Ev
FN:39,_ZN13properties_p1C2Ev
FN:41,_ZN13properties_p15SetUpEv
FN:61,_ZN13properties_p18TearDownEv
FN:84,_ZN30properties_p1_from_handle_TestD2Ev
FN:84,_ZN30properties_p1_from_handle_Test8TestBodyEv
FN:84,_Z41__static_initialization_and_destruction_0ii
FN:84,_ZN30properties_p1_from_handle_TestD0Ev
FN:84,_ZN30properties_p1_from_handle_TestC2Ev
FN:84,_ZN30properties_p1_from_handle_Test13AddToRegistryEv
FN:95,_ZN37properties_fpga_get_properties01_TestD2Ev
FN:95,_ZN37properties_fpga_get_properties01_TestD0Ev
FN:95,_ZN37properties_fpga_get_properties01_Test8TestBodyEv
FN:95,_ZN37properties_fpga_get_properties01_TestC2Ev
FN:103,_Z51gtest_test_platformsproperties_p1_EvalGenerateName_RKN7testing13TestParamInfoISsEE
FN:103,_Z48gtest_test_platformsproperties_p1_EvalGenerator_v
FN:104,_GLOBAL__sub_I__ZN30properties_p1_from_handle_Test24gtest_registering_dummy_E
FNDA:0,_ZN13properties_p1D0Ev
FNDA:1,_ZN13properties_p1D2Ev
FNDA:1,_ZN13properties_p1C2Ev
FNDA:1,_ZN13properties_p15SetUpEv
FNDA:1,_ZN13properties_p18TearDownEv
FNDA:1,_ZN30properties_p1_from_handle_TestD0Ev
FNDA:1,_ZN30properties_p1_from_handle_TestD2Ev
FNDA:1,_ZN30properties_p1_from_handle_Test8TestBodyEv
FNDA:1,_ZN30properties_p1_from_handle_Test13AddToRegistryEv
FNDA:1,_ZN30properties_p1_from_handle_TestC2Ev
FNDA:1,_ZN37properties_fpga_get_properties01_TestD0Ev
FNDA:1,_ZN37properties_fpga_get_properties01_TestD2Ev
FNDA:1,_ZN37properties_fpga_get_properties01_Test8TestBodyEv
FNDA:1,_ZN37properties_fpga_get_properties01_TestC2Ev
FNDA:1,_Z51gtest_test_platformsproperties_p1_EvalGenerateName_RKN7testing13TestParamInfoISsEE
FNDA:1,_Z48gtest_test_platformsproperties_p1_EvalGenerator_v
FNDA:1,_GLOBAL__sub_I__ZN30properties_p1_from_handle_Test24gtest_registering_dummy_E
FNDA:1,_Z41__static_initialization_and_destruction_0ii
FNF:18
FNH:17
DA:37,1
DA:39,1
DA:41,1
DA:42,1
DA:43,1
DA:44,1
DA:45,1
DA:46,1
DA:48,1
DA:49,1
DA:50,1
DA:51,1
DA:53,1
DA:54,1
DA:55,1
DA:56,1
DA:57,1
DA:58,1
DA:61,1
DA:62,1
DA:63,1
DA:64,1
DA:65,1
DA:66,1
DA:67,1
DA:69,1
DA:70,1
DA:84,6
DA:85,1
DA:86,1
DA:95,5
DA:97,1
DA:98,1
DA:100,1
DA:101,1
DA:103,3
DA:104,3
LF:37
LH:37
end_of_record
SF:/usr/include/c++/4.8/array
FN:52,_ZNSt14__array_traitsIPvLm2EE6_S_refERA2_KS0_m
FN:162,_ZNKSt5arrayIPvLm2EE4sizeEv
FN:172,_ZNSt5arrayIPvLm2EEixEm
FN:217,_ZNSt5arrayIPvLm2EE4dataEv
FNDA:2,_ZNSt14__array_traitsIPvLm2EE6_S_refERA2_KS0_m
FNDA:1,_ZNKSt5arrayIPvLm2EE4sizeEv
FNDA:1,_ZNSt5arrayIPvLm2EEixEm
FNDA:1,_ZNSt5arrayIPvLm2EE4dataEv
FNF:4
FNH:4
DA:52,2
DA:53,2
DA:162,1
DA:172,1
DA:173,1
DA:217,1
DA:218,1
LF:7
LH:7
end_of_record
SF:/usr/include/c++/4.8/bits/alloc_traits.h
FN:253,_ZNSt16allocator_traitsISaISt13_Rb_tree_nodeISsEEE12_S_constructIS1_IRKSsEEENSt9enable_ifIXsrNS3_18__construct_helperIT_IDpT0_EEE5valueEvE4typeERS2_PS9_DpOSA_
FN:253,_ZNSt16allocator_traitsISaIN7testing8internal25ParameterizedTestCaseInfoI13properties_p1E17InstantiationInfoEEE12_S_constructIS5_IS5_EEENSt9enable_ifIXsrNS7_18__construct_helperIT_IDpT0_EEE5valueEvE4typeERS6_PSB_DpOSC_
FN:253,_ZNSt16allocator_traitsISaIN7testing8internal10linked_ptrINS1_25ParameterizedTestCaseInfoI13properties_p1E8TestInfoEEEEE12_S_constructIS7_IS7_EEENSt9enable_ifIXsrNS9_18__construct_helperIT_IDpT0_EEE5valueEvE4typeERS8_PSD_DpOSE_
FN:253,_ZNSt16allocator_traitsISaIPN7testing8internal29ParameterizedTestCaseInfoBaseEEE12_S_constructIS3_IS3_EEENSt9enable_ifIXsrNS5_18__construct_helperIT_IDpT0_EEE5valueEvE4typeERS4_PS9_DpOSA_
FN:280,_ZNSt16allocator_traitsISaIN7testing8internal25ParameterizedTestCaseInfoI13properties_p1E17InstantiationInfoEEE10_S_destroyIS5_EENSt9enable_ifIXsrNS7_16__destroy_helperIT_EE5valueEvE4typeERS6_PSB_
FN:280,_ZNSt16allocator_traitsISaIPN7testing8internal29ParameterizedTestCaseInfoBaseEEE10_S_destroyIS3_EENSt9enable_ifIXsrNS5_16__destroy_helperIT_EE5valueEvE4typeERS4_PS9_
FN:280,_ZNSt16allocator_traitsISaIN7testing8internal10linked_ptrINS1_25ParameterizedTestCaseInfoI13properties_p1E8TestInfoEEEEE10_S_destroyIS7_EENSt9enable_ifIXsrNS9_16__destroy_helperIT_EE5valueEvE4typeERS8_PSD_
FN:305,_ZNSt16allocator_traitsISaIN7testing8internal10linked_ptrINS1_25ParameterizedTestCaseInfoI13properties_p1E8TestInfoEEEEE11_S_max_sizeIKS8_EENSt9enable_ifIXsrNS9_16__maxsize_helperIT_EE5valueEmE4typeERSE_
FN:305,_ZNSt16allocator_traitsISaIPN7testing8internal29ParameterizedTestCaseInfoBaseEEE11_S_max_sizeIKS4_EENSt9enable_ifIXsrNS5_16__maxsize_helperIT_EE5valueEmE4typeERSA_
FN:305,_ZNSt16allocator_traitsISaIN7testing8internal25ParameterizedTestCaseInfoI13properties_p1E17InstantiationInfoEEE11_S_max_sizeIKS6_EENSt9enable_ifIXsrNS7_16__maxsize_helperIT_EE5valueEmE4typeERSC_
FN:391,_ZNSt16allocator_traitsISaIN7testing8internal25ParameterizedTestCaseInfoI13properties_p1E17InstantiationInfoEEE9constructIS5_IS5_EEEDTcl12_S_constructfp_fp0_spcl7forwardIT0_Efp1_EEERS6_PT_DpOS9_
FN:391,_ZNSt16allocator_traitsISaIPN7testing8internal29ParameterizedTestCaseInfoBaseEEE9constructIS3_IS3_EEEDTcl12_S_constructfp_fp0_spcl7forwardIT0_Efp1_EEERS4_PT_DpOS7_
FN:391,_ZNSt16allocator_traitsISaIN7testing8internal10linked_ptrINS1_25ParameterizedTestCaseInfoI13properties_p1E8TestInfoEEEEE9constructIS7_IS7_EEEDTcl12_S_constructfp_fp0_spcl7forwardIT0_Efp1_EEERS8_PT_DpOSB_
FN:391,_ZNSt16allocator_traitsISaISt13_Rb_tree_nodeISsEEE9constructIS1_IRKSsEEEDTcl12_S_constructfp_fp0_spcl7forwardIT0_Efp1_EEERS2_PT_DpOS7_
FN:404,_ZNSt16allocator_traitsISaIN7testing8internal25ParameterizedTestCaseInfoI13properties_p1E17InstantiationInfoEEE7destroyIS5_EEvRS6_PT_
FN:404,_ZNSt16allocator_traitsISaIN7testing8internal10linked_ptrINS1_25ParameterizedTestCaseInfoI13properties_p1E8TestInfoEEEEE7destroyIS7_EEvRS8_PT_
FN:404,_ZNSt16allocator_traitsISaIPN7testing8internal29ParameterizedTestCaseInfoBaseEEE7destroyIS3_EEvRS4_PT_
FN:415,_ZNSt16allocator_traitsISaIN7testing8internal25ParameterizedTestCaseInfoI13properties_p1E17InstantiationInfoEEE8max_sizeERKS6_
FN:415,_ZNSt16allocator_traitsISaIN7testing8internal10linked_ptrINS1_25ParameterizedTestCaseInfoI13properties_p1E8TestInfoEEEEE8max_sizeERKS8_
FN:415,_ZNSt16allocator_traitsISaIPN7testing8internal29ParameterizedTestCaseInfoBaseEEE8max_sizeERKS4_
FN:478,_ZSt18__do_alloc_on_moveISaIN4opae7testing11test_deviceEEEvRT_S5_St17integral_constantIbLb1EE
FN:486,_ZSt15__alloc_on_moveISaIN4opae7testing11test_deviceEEEvRT_S5_
FNDA:1,_ZNSt16allocator_traitsISaISt13_Rb_tree_nodeISsEEE12_S_constructIS1_IRKSsEEENSt9enable_ifIXsrNS3_18__construct_helperIT_IDpT0_EEE5valueEvE4typeERS2_PS9_DpOSA_
FNDA:1,_ZNSt16allocator_traitsISaIN7testing8internal25ParameterizedTestCaseInfoI13properties_p1E17InstantiationInfoEEE12_S_constructIS5_IS5_EEENSt9enable_ifIXsrNS7_18__construct_helperIT_IDpT0_EEE5valueEvE4typeERS6_PSB_DpOSC_
FNDA:1,_ZNSt16allocator_traitsISaIN7testing8internal10linked_ptrINS1_25ParameterizedTestCaseInfoI13properties_p1E8TestInfoEEEEE12_S_constructIS7_IS7_EEENSt9enable_ifIXsrNS9_18__construct_helperIT_IDpT0_EEE5valueEvE4typeERS8_PSD_DpOSE_
FNDA:1,_ZNSt16allocator_traitsISaIPN7testing8internal29ParameterizedTestCaseInfoBaseEEE12_S_constructIS3_IS3_EEENSt9enable_ifIXsrNS5_18__construct_helperIT_IDpT0_EEE5valueEvE4typeERS4_PS9_DpOSA_
FNDA:0,_ZNSt16allocator_traitsISaIN7testing8internal25ParameterizedTestCaseInfoI13properties_p1E17InstantiationInfoEEE10_S_destroyIS5_EENSt9enable_ifIXsrNS7_16__destroy_helperIT_EE5valueEvE4typeERS6_PSB_
FNDA:0,_ZNSt16allocator_traitsISaIN7testing8internal10linked_ptrINS1_25ParameterizedTestCaseInfoI13properties_p1E8TestInfoEEEEE10_S_destroyIS7_EENSt9enable_ifIXsrNS9_16__destroy_helperIT_EE5valueEvE4typeERS8_PSD_
FNDA:0,_ZNSt16allocator_traitsISaIPN7testing8internal29ParameterizedTestCaseInfoBaseEEE10_S_destroyIS3_EENSt9enable_ifIXsrNS5_16__destroy_helperIT_EE5valueEvE4typeERS4_PS9_
FNDA:2,_ZNSt16allocator_traitsISaIN7testing8internal25ParameterizedTestCaseInfoI13properties_p1E17InstantiationInfoEEE11_S_max_sizeIKS6_EENSt9enable_ifIXsrNS7_16__maxsize_helperIT_EE5valueEmE4typeERSC_
FNDA:2,_ZNSt16allocator_traitsISaIN7testing8internal10linked_ptrINS1_25ParameterizedTestCaseInfoI13properties_p1E8TestInfoEEEEE11_S_max_sizeIKS8_EENSt9enable_ifIXsrNS9_16__maxsize_helperIT_EE5valueEmE4typeERSE_
FNDA:2,_ZNSt16allocator_traitsISaIPN7testing8internal29ParameterizedTestCaseInfoBaseEEE11_S_max_sizeIKS4_EENSt9enable_ifIXsrNS5_16__maxsize_helperIT_EE5valueEmE4typeERSA_
FNDA:1,_ZNSt16allocator_traitsISaISt13_Rb_tree_nodeISsEEE9constructIS1_IRKSsEEEDTcl12_S_constructfp_fp0_spcl7forwardIT0_Efp1_EEERS2_PT_DpOS7_
FNDA:1,_ZNSt16allocator_traitsISaIN7testing8internal25ParameterizedTestCaseInfoI13properties_p1E17InstantiationInfoEEE9constructIS5_IS5_EEEDTcl12_S_constructfp_fp0_spcl7forwardIT0_Efp1_EEERS6_PT_DpOS9_
FNDA:1,_ZNSt16allocator_traitsISaIN7testing8internal10linked_ptrINS1_25ParameterizedTestCaseInfoI13properties_p1E8TestInfoEEEEE9constructIS7_IS7_EEEDTcl12_S_constructfp_fp0_spcl7forwardIT0_Efp1_EEERS8_PT_DpOSB_
FNDA:1,_ZNSt16allocator_traitsISaIPN7testing8internal29ParameterizedTestCaseInfoBaseEEE9constructIS3_IS3_EEEDTcl12_S_constructfp_fp0_spcl7forwardIT0_Efp1_EEERS4_PT_DpOS7_
FNDA:0,_ZNSt16allocator_traitsISaIN7testing8internal25ParameterizedTestCaseInfoI13properties_p1E17InstantiationInfoEEE7destroyIS5_EEvRS6_PT_
FNDA:0,_ZNSt16allocator_traitsISaIN7testing8internal10linked_ptrINS1_25ParameterizedTestCaseInfoI13properties_p1E8TestInfoEEEEE7destroyIS7_EEvRS8_PT_
FNDA:0,_ZNSt16allocator_traitsISaIPN7testing8internal29ParameterizedTestCaseInfoBaseEEE7destroyIS3_EEvRS4_PT_
FNDA:2,_ZNSt16allocator_traitsISaIN7testing8internal25ParameterizedTestCaseInfoI13properties_p1E17InstantiationInfoEEE8max_sizeERKS6_
FNDA:2,_ZNSt16allocator_traitsISaIN7testing8internal10linked_ptrINS1_25ParameterizedTestCaseInfoI13properties_p1E8TestInfoEEEEE8max_sizeERKS8_
FNDA:2,_ZNSt16allocator_traitsISaIPN7testing8internal29ParameterizedTestCaseInfoBaseEEE8max_sizeERKS4_
FNDA:1,_ZSt18__do_alloc_on_moveISaIN4opae7testing11test_deviceEEEvRT_S5_St17integral_constantIbLb1EE
FNDA:1,_ZSt15__alloc_on_moveISaIN4opae7testing11test_deviceEEEvRT_S5_
FNF:22
FNH:16
DA:253,4
DA:254,4
DA:280,0
DA:281,0
DA:305,6
DA:306,6
DA:391,4
DA:393,4
DA:404,0
DA:405,0
DA:415,6
DA:416,6
DA:478,1
DA:479,1
DA:486,1
DA:490,1
DA:491,1
LF:17
LH:13
end_of_record
SF:/usr/include/c++/4.8/bits/allocator.h
FN:113,_ZNSaIN4opae7testing11test_deviceEEC2Ev
FN:113,_ZNSaIN7testing8internal25ParameterizedTestCaseInfoI13properties_p1E17InstantiationInfoEEC2Ev
FN:113,_ZNSaISt13_Rb_tree_nodeISsEEC2Ev
FN:113,_ZNSaIN7testing8internal10linked_ptrINS0_25ParameterizedTestCaseInfoI13properties_p1E8TestInfoEEEEC2Ev
FN:113,_ZNSaISsEC2Ev
FN:115,_ZNSaISsEC2ERKS_
FN:115,_ZNSaIN4opae7testing11test_deviceEEC2ERKS2_
FN:121,_ZNSaIN7testing8internal10linked_ptrINS0_25ParameterizedTestCaseInfoI13properties_p1E8TestInfoEEEED2Ev
FN:121,_ZNSaIN4opae7testing11test_deviceEED2Ev
FN:121,_ZNSaISsED2Ev
FN:121,_ZNSaIN7testing8internal25ParameterizedTestCaseInfoI13properties_p1E17InstantiationInfoEED2Ev
FN:121,_ZNSaISt13_Rb_tree_nodeISsEED2Ev
FN:133,_ZSteqIcEbRKSaIT_ES3_
FNDA:1,_ZNSaISt13_Rb_tree_nodeISsEEC2Ev
FNDA:1,_ZNSaIN7testing8internal25ParameterizedTestCaseInfoI13properties_p1E17InstantiationInfoEEC2Ev
FNDA:1,_ZNSaIN7testing8internal10linked_ptrINS0_25ParameterizedTestCaseInfoI13properties_p1E8TestInfoEEEEC2Ev
FNDA:21,_ZNSaISsEC2Ev
FNDA:2,_ZNSaIN4opae7testing11test_deviceEEC2Ev
FNDA:32,_ZNSaISsEC2ERKS_
FNDA:10,_ZNSaIN4opae7testing11test_deviceEEC2ERKS2_
FNDA:1,_ZNSaISt13_Rb_tree_nodeISsEED2Ev
FNDA:1,_ZNSaIN7testing8internal25ParameterizedTestCaseInfoI13properties_p1E17InstantiationInfoEED2Ev
FNDA:1,_ZNSaIN7testing8internal10linked_ptrINS0_25ParameterizedTestCaseInfoI13properties_p1E8TestInfoEEEED2Ev
FNDA:52,_ZNSaISsED2Ev
FNDA:11,_ZNSaIN4opae7testing11test_deviceEED2Ev
FNDA:0,_ZSteqIcEbRKSaIT_ES3_
FNF:13
FNH:12
DA:113,26
DA:115,42
DA:116,42
DA:121,66
DA:133,0
DA:134,0
LF:6
LH:4
end_of_record
SF:/usr/include/c++/4.8/bits/basic_ios.h
FN:46,_ZSt13__check_facetISt5ctypeIcEERKT_PS3_
FNDA:0,_ZSt13__check_facetISt5ctypeIcEERKT_PS3_
FNF:1
FNH:0
DA:46,0
DA:48,0
DA:49,0
DA:50,0
LF:4
LH:0
end_of_record
SF:/usr/include/c++/4.8/bits/basic_string.h
FN:272,_ZNSs12_Alloc_hiderD2Ev
FN:272,_ZNSs12_Alloc_hiderC2ERKS_
FN:1721,_ZNSs16_S_construct_auxIPcEES0_T_S1_RKSaIcESt12__false_type
FN:1743,_ZNSs12_S_constructIPcEES0_T_S1_RKSaIcE
FN:2402,_ZStplIcSt11char_traitsIcESaIcEESbIT_T0_T1_ERKS6_PKS3_
FN:2519,_ZSteqIcSt11char_traitsIcESaIcEEbRKSbIT_T0_T1_EPKS3_
FN:2569,_ZStltIcSt11char_traitsIcESaIcEEbRKSbIT_T0_T1_ES8_
FNDA:0,_ZNSs12_Alloc_hiderC2ERKS_
FNDA:0,_ZNSs12_Alloc_hiderD2Ev
FNDA:0,_ZNSs16_S_construct_auxIPcEES0_T_S1_RKSaIcESt12__false_type
FNDA:0,_ZNSs12_S_constructIPcEES0_T_S1_RKSaIcE
FNDA:38,_ZStplIcSt11char_traitsIcESaIcEESbIT_T0_T1_ERKS6_PKS3_
FNDA:10,_ZSteqIcSt11char_traitsIcESaIcEEbRKSbIT_T0_T1_EPKS3_
FNDA:4,_ZStltIcSt11char_traitsIcESaIcEEbRKSbIT_T0_T1_ES8_
FNF:7
FNH:3
DA:272,0
DA:1721,0
DA:1725,0
DA:1743,0
DA:1746,0
DA:2402,38
DA:2405,38
DA:2406,38
DA:2407,38
DA:2519,10
DA:2521,10
DA:2569,4
DA:2571,4
LF:13
LH:8
end_of_record
SF:/usr/include/c++/4.8/bits/basic_string.tcc
FN:123,_ZNSs12_S_constructIPcEES0_T_S1_RKSaIcESt20forward_iterator_tag
FN:227,_ZNSsC2IPcEET_S1_RKSaIcE
FN:692,_ZStplIcSt11char_traitsIcESaIcEESbIT_T0_T1_EPKS3_RKS6_
FNDA:0,_ZNSs12_S_constructIPcEES0_T_S1_RKSaIcESt20forward_iterator_tag
FNDA:0,_ZNSsC2IPcEET_S1_RKSaIcE
FNDA:1,_ZStplIcSt11char_traitsIcESaIcEESbIT_T0_T1_EPKS3_RKS6_
FNF:3
FNH:1
DA:123,0
DA:128,0
DA:129,0
DA:132,0
DA:133,0
DA:136,0
DA:138,0
DA:140,0
DA:141,=====
DA:143,=====
DA:144,=====
DA:146,0
DA:147,0
DA:227,0
DA:229,0
DA:230,0
DA:692,1
DA:698,1
DA:699,1
DA:700,1
DA:701,1
DA:702,1
DA:703,1
LF:23
LH:7
end_of_record
SF:/usr/include/c++/4.8/bits/char_traits.h
FN:242,_ZNSt11char_traitsIcE6assignERcRKc
FN:254,_ZNSt11char_traitsIcE7compareEPKcS2_m
FN:258,_ZNSt11char_traitsIcE6lengthEPKc
FN:270,_ZNSt11char_traitsIcE4copyEPcPKcm
FNDA:0,_ZNSt11char_traitsIcE6assignERcRKc
FNDA:0,_ZNSt11char_traitsIcE7compareEPKcS2_m
FNDA:1,_ZNSt11char_traitsIcE6lengthEPKc
FNDA:0,_ZNSt11char_traitsIcE4copyEPcPKcm
FNF:4
FNH:1
DA:242,0
DA:243,0
DA:254,0
DA:255,0
DA:258,1
DA:259,1
DA:270,0
DA:271,0
LF:8
LH:2
end_of_record
SF:/usr/include/c++/4.8/bits/ios_base.h
FN:123,_ZStorSt13_Ios_OpenmodeS_
FN:163,_ZStorSt12_Ios_IostateS_
FNDA:50,_ZStorSt13_Ios_OpenmodeS_
FNDA:0,_ZStorSt12_Ios_IostateS_
FNF:2
FNH:1
DA:123,50
DA:124,50
DA:163,0
DA:164,0
LF:4
LH:2
end_of_record
SF:/usr/include/c++/4.8/bits/locale_facets.h
FN:865,_ZNKSt5ctypeIcE5widenEc
FNDA:0,_ZNKSt5ctypeIcE5widenEc
FNF:1
FNH:0
DA:865,0
DA:867,0
DA:868,0
DA:869,0
DA:870,0
LF:5
LH:0
end_of_record
SF:/usr/include/c++/4.8/bits/move.h
FN:47,_ZSt11__addressofIN7testing8internal25ParameterizedTestCaseInfoI13properties_p1E17InstantiationInfoEEPT_RS6_
FN:47,_ZSt11__addressofIPvEPT_RS1_
FN:47,_ZSt11__addressofISsEPT_RS0_
FN:47,_ZSt11__addressofIN7testing8internal10linked_ptrINS1_25ParameterizedTestCaseInfoI13properties_p1E8TestInfoEEEEPT_RS8_
FN:76,_ZSt7forwardIRPSt18_Rb_tree_node_baseEOT_RNSt16remove_referenceIS3_E4typeE
FN:76,_ZSt7forwardIN7testing8internal25ParameterizedTestCaseInfoI13properties_p1E17InstantiationInfoEEOT_RNSt16remove_referenceIS6_E4typeE
FN:76,_ZSt7forwardIRSt17_Rb_tree_iteratorISsEEOT_RNSt16remove_referenceIS3_E4typeE
FN:76,_ZSt7forwardIRbEOT_RNSt16remove_referenceIS1_E4typeE
FN:76,_ZSt7forwardIPN7testing8internal29ParameterizedTestCaseInfoBaseEEOT_RNSt16remove_referenceIS4_E4typeE
FN:76,_ZSt7forwardISt17_Rb_tree_iteratorISsEEOT_RNSt16remove_referenceIS2_E4typeE
FN:76,_ZSt7forwardIN7testing8internal10linked_ptrINS1_25ParameterizedTestCaseInfoI13properties_p1E8TestInfoEEEEOT_RNSt16remove_referenceIS8_E4typeE
FN:76,_ZSt7forwardIRKSsEOT_RNSt16remove_referenceIS2_E4typeE
FN:76,_ZSt7forwardIRPSt13_Rb_tree_nodeISsEEOT_RNSt16remove_referenceIS4_E4typeE
FN:76,_ZSt7forwardIbEOT_RNSt16remove_referenceIS0_E4typeE
FN:76,_ZSt7forwardIRN7testing8internal10linked_ptrINS1_25ParameterizedTestCaseInfoI13properties_p1E8TestInfoEEEEOT_RNSt16remove_referenceIS9_E4typeE
FN:101,_ZSt4moveIRPN4opae7testing11test_deviceEEONSt16remove_referenceIT_E4typeEOS6_
FN:101,_ZSt4moveIRN7testing8internal10linked_ptrINS1_25ParameterizedTestCaseInfoI13properties_p1E8TestInfoEEEEONSt16remove_referenceIT_E4typeEOSA_
FN:101,_ZSt4moveIRPN7testing8internal29ParameterizedTestCaseInfoBaseEEONSt16remove_referenceIT_E4typeEOS6_
FN:101,_ZSt4moveIRSt6vectorIN4opae7testing11test_deviceESaIS3_EEEONSt16remove_referenceIT_E4typeEOS8_
FN:101,_ZSt4moveIRN7testing8internal25ParameterizedTestCaseInfoI13properties_p1E17InstantiationInfoEEONSt16remove_referenceIT_E4typeEOS8_
FN:101,_ZSt4moveIRSaIN4opae7testing11test_deviceEEEONSt16remove_referenceIT_E4typeEOS6_
FN:166,_ZSt4swapIPN4opae7testing11test_deviceEEvRT_S5_
FNDA:1,_ZSt11__addressofIN7testing8internal25ParameterizedTestCaseInfoI13properties_p1E17InstantiationInfoEEPT_RS6_
FNDA:1,_ZSt11__addressofIN7testing8internal10linked_ptrINS1_25ParameterizedTestCaseInfoI13properties_p1E8TestInfoEEEEPT_RS8_
FNDA:145,_ZSt11__addressofISsEPT_RS0_
FNDA:1,_ZSt11__addressofIPvEPT_RS1_
FNDA:2,_ZSt7forwardIRPSt13_Rb_tree_nodeISsEEOT_RNSt16remove_referenceIS4_E4typeE
FNDA:1,_ZSt7forwardISt17_Rb_tree_iteratorISsEEOT_RNSt16remove_referenceIS2_E4typeE
FNDA:1,_ZSt7forwardIRbEOT_RNSt16remove_referenceIS1_E4typeE
FNDA:1,_ZSt7forwardIRSt17_Rb_tree_iteratorISsEEOT_RNSt16remove_referenceIS3_E4typeE
FNDA:41,_ZSt7forwardIRKSsEOT_RNSt16remove_referenceIS2_E4typeE
FNDA:0,_ZSt7forwardIRN7testing8internal10linked_ptrINS1_25ParameterizedTestCaseInfoI13properties_p1E8TestInfoEEEEOT_RNSt16remove_referenceIS9_E4typeE
FNDA:5,_ZSt7forwardIN7testing8internal25ParameterizedTestCaseInfoI13properties_p1E17InstantiationInfoEEOT_RNSt16remove_referenceIS6_E4typeE
FNDA:5,_ZSt7forwardIN7testing8internal10linked_ptrINS1_25ParameterizedTestCaseInfoI13properties_p1E8TestInfoEEEEOT_RNSt16remove_referenceIS8_E4typeE
FNDA:5,_ZSt7forwardIPN7testing8internal29ParameterizedTestCaseInfoBaseEEOT_RNSt16remove_referenceIS4_E4typeE
FNDA:21,_ZSt7forwardIRPSt18_Rb_tree_node_baseEOT_RNSt16remove_referenceIS3_E4typeE
FNDA:1,_ZSt7forwardIbEOT_RNSt16remove_referenceIS0_E4typeE
FNDA:3,_ZSt4moveIRSaIN4opae7testing11test_deviceEEEONSt16remove_referenceIT_E4typeEOS6_
FNDA:27,_ZSt4moveIRPN4opae7testing11test_deviceEEONSt16remove_referenceIT_E4typeEOS6_
FNDA:1,_ZSt4moveIRN7testing8internal25ParameterizedTestCaseInfoI13properties_p1E17InstantiationInfoEEONSt16remove_referenceIT_E4typeEOS8_
FNDA:1,_ZSt4moveIRN7testing8internal10linked_ptrINS1_25ParameterizedTestCaseInfoI13properties_p1E8TestInfoEEEEONSt16remove_referenceIT_E4typeEOSA_
FNDA:1,_ZSt4moveIRPN7testing8internal29ParameterizedTestCaseInfoBaseEEONSt16remove_referenceIT_E4typeEOS6_
FNDA:2,_ZSt4moveIRSt6vectorIN4opae7testing11test_deviceESaIS3_EEEONSt16remove_referenceIT_E4typeEOS8_
FNDA:9,_ZSt4swapIPN4opae7testing11test_deviceEEvRT_S5_
FNF:22
FNH:21
DA:47,148
DA:50,148
DA:76,83
DA:77,83
DA:101,35
DA:102,35
DA:166,9
DA:175,9
DA:176,9
DA:177,9
DA:178,9
LF:11
LH:11
end_of_record
SF:/usr/include/c++/4.8/bits/stl_algobase.h
FN:193,_ZSt3minImERKT_S2_S2_
FN:216,_ZSt3maxImERKT_S2_S2_
FN:277,_ZSt12__niter_baseIPPN7testing8internal29ParameterizedTestCaseInfoBaseEENSt11_Niter_baseIT_E13iterator_typeES6_
FN:288,_ZSt12__miter_baseISt13move_iteratorIPPN7testing8internal29ParameterizedTestCaseInfoBaseEEENSt11_Miter_baseIT_E13iterator_typeES8_
FN:368,_ZNSt11__copy_moveILb1ELb1ESt26random_access_iterator_tagE8__copy_mIPN7testing8internal29ParameterizedTestCaseInfoBaseEEEPT_PKS7_SA_S8_
FN:379,_ZSt13__copy_move_aILb1EPPN7testing8internal29ParameterizedTestCaseInfoBaseES4_ET1_T0_S6_S5_
FN:424,_ZSt14__copy_move_a2ILb1EPPN7testing8internal29ParameterizedTestCaseInfoBaseES4_ET1_T0_S6_S5_
FN:450,_ZSt4copyISt13move_iteratorIPPN7testing8internal29ParameterizedTestCaseInfoBaseEES5_ET0_T_S8_S7_
FNDA:0,_ZSt3minImERKT_S2_S2_
FNDA:46,_ZSt3maxImERKT_S2_S2_
FNDA:3,_ZSt12__niter_baseIPPN7testing8internal29ParameterizedTestCaseInfoBaseEENSt11_Niter_baseIT_E13iterator_typeES6_
FNDA:2,_ZSt12__miter_baseISt13move_iteratorIPPN7testing8internal29ParameterizedTestCaseInfoBaseEEENSt11_Miter_baseIT_E13iterator_typeES8_
FNDA:1,_ZNSt11__copy_moveILb1ELb1ESt26random_access_iterator_tagE8__copy_mIPN7testing8internal29ParameterizedTestCaseInfoBaseEEEPT_PKS7_SA_S8_
FNDA:1,_ZSt13__copy_move_aILb1EPPN7testing8internal29ParameterizedTestCaseInfoBaseES4_ET1_T0_S6_S5_
FNDA:1,_ZSt14__copy_move_a2ILb1EPPN7testing8internal29ParameterizedTestCaseInfoBaseES4_ET1_T0_S6_S5_
FNDA:1,_ZSt4copyISt13move_iteratorIPPN7testing8internal29ParameterizedTestCaseInfoBaseEES5_ET0_T_S8_S7_
FNF:8
FNH:7
DA:193,0
DA:198,0
DA:199,0
DA:200,0
DA:216,46
DA:221,46
DA:222,26
DA:223,20
DA:277,3
DA:278,3
DA:288,2
DA:289,2
DA:368,1
DA:370,1
DA:371,1
DA:372,0
DA:373,1
DA:379,1
DA:387,1
DA:390,1
DA:424,1
DA:428,1
DA:450,1
DA:460,1
LF:24
LH:19
end_of_record
SF:/usr/include/c++/4.8/bits/stl_construct.h
FN:74,_ZSt10_ConstructISsIRKSsEEvPT_DpOT0_
FN:74,_ZSt10_ConstructIN7testing8internal25ParameterizedTestCaseInfoI13properties_p1E17InstantiationInfoEIS5_EEvPT_DpOT0_
FN:74,_ZSt10_ConstructIN7testing8internal10linked_ptrINS1_25ParameterizedTestCaseInfoI13properties_p1E8TestInfoEEEIRS7_EEvPT_DpOT0_
FN:92,_ZSt8_DestroyIN7testing8internal10linked_ptrINS1_25ParameterizedTestCaseInfoI13properties_p1E8TestInfoEEEEvPT_
FN:92,_ZSt8_DestroyIN7testing8internal25ParameterizedTestCaseInfoI13properties_p1E17InstantiationInfoEEvPT_
FN:92,_ZSt8_DestroyISsEvPT_
FN:100,_ZNSt12_Destroy_auxILb0EE9__destroyIPN7testing8internal25ParameterizedTestCaseInfoI13properties_p1E17InstantiationInfoEEEvT_S9_
FN:100,_ZNSt12_Destroy_auxILb0EE9__destroyIPSsEEvT_S3_
FN:100,_ZNSt12_Destroy_auxILb0EE9__destroyIPN7testing8internal10linked_ptrINS3_25ParameterizedTestCaseInfoI13properties_p1E8TestInfoEEEEEvT_SB_
FN:112,_ZNSt12_Destroy_auxILb1EE9__destroyIPPN7testing8internal29ParameterizedTestCaseInfoBaseEEEvT_S7_
FN:112,_ZNSt12_Destroy_auxILb1EE9__destroyIPN4opae7testing11test_deviceEEEvT_S6_
FN:122,_ZSt8_DestroyIPPN7testing8internal29ParameterizedTestCaseInfoBaseEEvT_S5_
FN:122,_ZSt8_DestroyIPSsEvT_S1_
FN:122,_ZSt8_DestroyIPN7testing8internal25ParameterizedTestCaseInfoI13properties_p1E17InstantiationInfoEEvT_S7_
FN:122,_ZSt8_DestroyIPN7testing8internal10linked_ptrINS1_25ParameterizedTestCaseInfoI13properties_p1E8TestInfoEEEEvT_S9_
FN:122,_ZSt8_DestroyIPN4opae7testing11test_deviceEEvT_S4_
FN:148,_ZSt8_DestroyIPN7testing8internal10linked_ptrINS1_25ParameterizedTestCaseInfoI13properties_p1E8TestInfoEEES7_EvT_S9_RSaIT0_E
FN:148,_ZSt8_DestroyIPSsSsEvT_S1_RSaIT0_E
FN:148,_ZSt8_DestroyIPN4opae7testing11test_deviceES2_EvT_S4_RSaIT0_E
FN:148,_ZSt8_DestroyIPPN7testing8internal29ParameterizedTestCaseInfoBaseES3_EvT_S5_RSaIT0_E
FN:148,_ZSt8_DestroyIPN7testing8internal25ParameterizedTestCaseInfoI13properties_p1E17InstantiationInfoES5_EvT_S7_RSaIT0_E
FNDA:34,_ZSt10_ConstructISsIRKSsEEvPT_DpOT0_
FNDA:0,_ZSt10_ConstructIN7testing8internal25ParameterizedTestCaseInfoI13properties_p1E17InstantiationInfoEIS5_EEvPT_DpOT0_
FNDA:0,_ZSt10_ConstructIN7testing8internal10linked_ptrINS1_25ParameterizedTestCaseInfoI13properties_p1E8TestInfoEEEIRS7_EEvPT_DpOT0_
FNDA:1,_ZSt8_DestroyIN7testing8internal25ParameterizedTestCaseInfoI13properties_p1E17InstantiationInfoEEvPT_
FNDA:1,_ZSt8_DestroyIN7testing8internal10linked_ptrINS1_25ParameterizedTestCaseInfoI13properties_p1E8TestInfoEEEEvPT_
FNDA:89,_ZSt8_DestroyISsEvPT_
FNDA:2,_ZNSt12_Destroy_auxILb0EE9__destroyIPN7testing8internal25ParameterizedTestCaseInfoI13properties_p1E17InstantiationInfoEEEvT_S9_
FNDA:2,_ZNSt12_Destroy_auxILb0EE9__destroyIPN7testing8internal10linked_ptrINS3_25ParameterizedTestCaseInfoI13properties_p1E8TestInfoEEEEEvT_SB_
FNDA:70,_ZNSt12_Destroy_auxILb0EE9__destroyIPSsEEvT_S3_
FNDA:6,_ZNSt12_Destroy_auxILb1EE9__destroyIPN4opae7testing11test_deviceEEEvT_S6_
FNDA:2,_ZNSt12_Destroy_auxILb1EE9__destroyIPPN7testing8internal29ParameterizedTestCaseInfoBaseEEEvT_S7_
FNDA:2,_ZSt8_DestroyIPN7testing8internal25ParameterizedTestCaseInfoI13properties_p1E17InstantiationInfoEEvT_S7_
FNDA:2,_ZSt8_DestroyIPN7testing8internal10linked_ptrINS1_25ParameterizedTestCaseInfoI13properties_p1E8TestInfoEEEEvT_S9_
FNDA:70,_ZSt8_DestroyIPSsEvT_S1_
FNDA:6,_ZSt8_DestroyIPN4opae7testing11test_deviceEEvT_S4_
FNDA:2,_ZSt8_DestroyIPPN7testing8internal29ParameterizedTestCaseInfoBaseEEvT_S5_
FNDA:2,_ZSt8_DestroyIPN7testing8internal25ParameterizedTestCaseInfoI13properties_p1E17InstantiationInfoES5_EvT_S7_RSaIT0_E
FNDA:2,_ZSt8_DestroyIPN7testing8internal10linked_ptrINS1_25ParameterizedTestCaseInfoI13properties_p1E8TestInfoEEES7_EvT_S9_RSaIT0_E
FNDA:70,_ZSt8_DestroyIPSsSsEvT_S1_RSaIT0_E
FNDA:6,_ZSt8_DestroyIPN4opae7testing11test_deviceES2_EvT_S4_RSaIT0_E
FNDA:2,_ZSt8_DestroyIPPN7testing8internal29ParameterizedTestCaseInfoBaseES3_EvT_S5_RSaIT0_E
FNF:21
FNH:19
DA:74,34
DA:75,34
DA:92,91
DA:93,91
DA:100,74
DA:102,165
DA:103,91
DA:104,74
DA:112,8
DA:122,82
DA:126,82
DA:128,82
DA:148,82
DA:151,82
DA:152,82
LF:15
LH:15
end_of_record
SF:/usr/include/c++/4.8/bits/stl_function.h
FN:234,_ZNKSt4lessISsEclERKSsS2_
FN:481,_ZNKSt9_IdentityISsEclERKSs
FNDA:4,_ZNKSt4lessISsEclERKSsS2_
FNDA:1,_ZNKSt9_IdentityISsEclERKSs
FNF:2
FNH:2
DA:234,4
DA:235,4
DA:481,1
DA:482,1
LF:4
LH:4
end_of_record
SF:/usr/include/c++/4.8/bits/stl_iterator.h
FN:726,_ZN9__gnu_cxx17__normal_iteratorIPPN7testing8internal29ParameterizedTestCaseInfoBaseESt6vectorIS4_SaIS4_EEEC2ERKS5_
FN:726,_ZN9__gnu_cxx17__normal_iteratorIPN7testing8internal25ParameterizedTestCaseInfoI13properties_p1E17InstantiationInfoESt6vectorIS6_SaIS6_EEEC2ERKS7_
FN:726,_ZN9__gnu_cxx17__normal_iteratorIPN7testing8internal10linked_ptrINS2_25ParameterizedTestCaseInfoI13properties_p1E8TestInfoEEESt6vectorIS8_SaIS8_EEEC2ERKS9_
FN:726,_ZN9__gnu_cxx17__normal_iteratorIPKSsSt6vectorISsSaISsEEEC2ERKS2_
FN:738,_ZNK9__gnu_cxx17__normal_iteratorIPKSsSt6vectorISsSaISsEEEdeEv
FN:738,_ZNK9__gnu_cxx17__normal_iteratorIPPN7testing8internal29ParameterizedTestCaseInfoBaseESt6vectorIS4_SaIS4_EEEdeEv
FN:738,_ZNK9__gnu_cxx17__normal_iteratorIPN7testing8internal10linked_ptrINS2_25ParameterizedTestCaseInfoI13properties_p1E8TestInfoEEESt6vectorIS8_SaIS8_EEEdeEv
FN:742,_ZNK9__gnu_cxx17__normal_iteratorIPN7testing8internal25ParameterizedTestCaseInfoI13properties_p1E17InstantiationInfoESt6vectorIS6_SaIS6_EEEptEv
FN:746,_ZN9__gnu_cxx17__normal_iteratorIPKSsSt6vectorISsSaISsEEEppEv
FN:746,_ZN9__gnu_cxx17__normal_iteratorIPN7testing8internal25ParameterizedTestCaseInfoI13properties_p1E17InstantiationInfoESt6vectorIS6_SaIS6_EEEppEv
FN:746,_ZN9__gnu_cxx17__normal_iteratorIPN7testing8internal10linked_ptrINS2_25ParameterizedTestCaseInfoI13properties_p1E8TestInfoEEESt6vectorIS8_SaIS8_EEEppEv
FN:746,_ZN9__gnu_cxx17__normal_iteratorIPPN7testing8internal29ParameterizedTestCaseInfoBaseESt6vectorIS4_SaIS4_EEEppEv
FN:790,_ZNK9__gnu_cxx17__normal_iteratorIPPN7testing8internal29ParameterizedTestCaseInfoBaseESt6vectorIS4_SaIS4_EEE4baseEv
FN:790,_ZNK9__gnu_cxx17__normal_iteratorIPN7testing8internal10linked_ptrINS2_25ParameterizedTestCaseInfoI13properties_p1E8TestInfoEEESt6vectorIS8_SaIS8_EEE4baseEv
FN:790,_ZNK9__gnu_cxx17__normal_iteratorIPKSsSt6vectorISsSaISsEEE4baseEv
FN:790,_ZNK9__gnu_cxx17__normal_iteratorIPN7testing8internal25ParameterizedTestCaseInfoI13properties_p1E17InstantiationInfoESt6vectorIS6_SaIS6_EEE4baseEv
FN:811,_ZN9__gnu_cxxeqIPKSsSt6vectorISsSaISsEEEEbRKNS_17__normal_iteratorIT_T0_EESB_
FN:823,_ZN9__gnu_cxxneIPPN7testing8internal29ParameterizedTestCaseInfoBaseESt6vectorIS4_SaIS4_EEEEbRKNS_17__normal_iteratorIT_T0_EESE_
FN:823,_ZN9__gnu_cxxneIPKSsSt6vectorISsSaISsEEEEbRKNS_17__normal_iteratorIT_T0_EESB_
FN:823,_ZN9__gnu_cxxneIPN7testing8internal10linked_ptrINS2_25ParameterizedTestCaseInfoI13properties_p1E8TestInfoEEESt6vectorIS8_SaIS8_EEEEbRKNS_17__normal_iteratorIT_T0_EESI_
FN:823,_ZN9__gnu_cxxneIPN7testing8internal25ParameterizedTestCaseInfoI13properties_p1E17InstantiationInfoESt6vectorIS6_SaIS6_EEEEbRKNS_17__normal_iteratorIT_T0_EESG_
FN:896,_ZN9__gnu_cxxmiIPKSsSt6vectorISsSaISsEEEENS_17__normal_iteratorIT_T0_E15difference_typeERKS9_SC_
FN:950,_ZNSt13move_iteratorIPPN7testing8internal29ParameterizedTestCaseInfoBaseEEC2ES4_
FN:950,_ZNSt13move_iteratorIPN7testing8internal25ParameterizedTestCaseInfoI13properties_p1E17InstantiationInfoEEC2ES6_
FN:958,_ZNKSt13move_iteratorIPN7testing8internal25ParameterizedTestCaseInfoI13properties_p1E17InstantiationInfoEE4baseEv
FN:958,_ZNKSt13move_iteratorIPPN7testing8internal29ParameterizedTestCaseInfoBaseEE4baseEv
FN:962,_ZNKSt13move_iteratorIPN7testing8internal25ParameterizedTestCaseInfoI13properties_p1E17InstantiationInfoEEdeEv
FN:970,_ZNSt13move_iteratorIPN7testing8internal25ParameterizedTestCaseInfoI13properties_p1E17InstantiationInfoEEppEv
FN:1037,_ZSteqIPN7testing8internal25ParameterizedTestCaseInfoI13properties_p1E17InstantiationInfoEEbRKSt13move_iteratorIT_ESB_
FN:1049,_ZStneIPN7testing8internal25ParameterizedTestCaseInfoI13properties_p1E17InstantiationInfoEEbRKSt13move_iteratorIT_ESB_
FN:1132,_ZSt32__make_move_if_noexcept_iteratorIPN7testing8internal25ParameterizedTestCaseInfoI13properties_p1E17InstantiationInfoESt13move_iteratorIS6_EET0_T_
FN:1132,_ZSt32__make_move_if_noexcept_iteratorIPPN7testing8internal29ParameterizedTestCaseInfoBaseESt13move_iteratorIS4_EET0_T_
FN:1132,_ZSt32__make_move_if_noexcept_iteratorIPN7testing8internal10linked_ptrINS1_25ParameterizedTestCaseInfoI13properties_p1E8TestInfoEEES8_ET0_T_
FNDA:3,_ZN9__gnu_cxx17__normal_iteratorIPN7testing8internal25ParameterizedTestCaseInfoI13properties_p1E17InstantiationInfoESt6vectorIS6_SaIS6_EEEC2ERKS7_
FNDA:3,_ZN9__gnu_cxx17__normal_iteratorIPN7testing8internal10linked_ptrINS2_25ParameterizedTestCaseInfoI13properties_p1E8TestInfoEEESt6vectorIS8_SaIS8_EEEC2ERKS9_
FNDA:35,_ZN9__gnu_cxx17__normal_iteratorIPKSsSt6vectorISsSaISsEEEC2ERKS2_
FNDA:10,_ZN9__gnu_cxx17__normal_iteratorIPPN7testing8internal29ParameterizedTestCaseInfoBaseESt6vectorIS4_SaIS4_EEEC2ERKS5_
FNDA:1,_ZNK9__gnu_cxx17__normal_iteratorIPN7testing8internal10linked_ptrINS2_25ParameterizedTestCaseInfoI13properties_p1E8TestInfoEEESt6vectorIS8_SaIS8_EEEdeEv
FNDA:35,_ZNK9__gnu_cxx17__normal_iteratorIPKSsSt6vectorISsSaISsEEEdeEv
FNDA:5,_ZNK9__gnu_cxx17__normal_iteratorIPPN7testing8internal29ParameterizedTestCaseInfoBaseESt6vectorIS4_SaIS4_EEEdeEv
FNDA:5,_ZNK9__gnu_cxx17__normal_iteratorIPN7testing8internal25ParameterizedTestCaseInfoI13properties_p1E17InstantiationInfoESt6vectorIS6_SaIS6_EEEptEv
FNDA:1,_ZN9__gnu_cxx17__normal_iteratorIPN7testing8internal25ParameterizedTestCaseInfoI13properties_p1E17InstantiationInfoESt6vectorIS6_SaIS6_EEEppEv
FNDA:1,_ZN9__gnu_cxx17__normal_iteratorIPN7testing8internal10linked_ptrINS2_25ParameterizedTestCaseInfoI13properties_p1E8TestInfoEEESt6vectorIS8_SaIS8_EEEppEv
FNDA:35,_ZN9__gnu_cxx17__normal_iteratorIPKSsSt6vectorISsSaISsEEEppEv
FNDA:2,_ZN9__gnu_cxx17__normal_iteratorIPPN7testing8internal29ParameterizedTestCaseInfoBaseESt6vectorIS4_SaIS4_EEEppEv
FNDA:4,_ZNK9__gnu_cxx17__normal_iteratorIPN7testing8internal25ParameterizedTestCaseInfoI13properties_p1E17InstantiationInfoESt6vectorIS6_SaIS6_EEE4baseEv
FNDA:4,_ZNK9__gnu_cxx17__normal_iteratorIPN7testing8internal10linked_ptrINS2_25ParameterizedTestCaseInfoI13properties_p1E8TestInfoEEESt6vectorIS8_SaIS8_EEE4baseEv
FNDA:106,_ZNK9__gnu_cxx17__normal_iteratorIPKSsSt6vectorISsSaISsEEE4baseEv
FNDA:12,_ZNK9__gnu_cxx17__normal_iteratorIPPN7testing8internal29ParameterizedTestCaseInfoBaseESt6vectorIS4_SaIS4_EEE4baseEv
FNDA:2,_ZN9__gnu_cxxeqIPKSsSt6vectorISsSaISsEEEEbRKNS_17__normal_iteratorIT_T0_EESB_
FNDA:2,_ZN9__gnu_cxxneIPN7testing8internal25ParameterizedTestCaseInfoI13properties_p1E17InstantiationInfoESt6vectorIS6_SaIS6_EEEEbRKNS_17__normal_iteratorIT_T0_EESG_
FNDA:2,_ZN9__gnu_cxxneIPN7testing8internal10linked_ptrINS2_25ParameterizedTestCaseInfoI13properties_p1E8TestInfoEEESt6vectorIS8_SaIS8_EEEEbRKNS_17__normal_iteratorIT_T0_EESI_
FNDA:50,_ZN9__gnu_cxxneIPKSsSt6vectorISsSaISsEEEEbRKNS_17__normal_iteratorIT_T0_EESB_
FNDA:6,_ZN9__gnu_cxxneIPPN7testing8internal29ParameterizedTestCaseInfoBaseESt6vectorIS4_SaIS4_EEEEbRKNS_17__normal_iteratorIT_T0_EESE_
FNDA:1,_ZN9__gnu_cxxmiIPKSsSt6vectorISsSaISsEEEENS_17__normal_iteratorIT_T0_E15difference_typeERKS9_SC_
FNDA:2,_ZNSt13move_iteratorIPN7testing8internal25ParameterizedTestCaseInfoI13properties_p1E17InstantiationInfoEEC2ES6_
FNDA:2,_ZNSt13move_iteratorIPPN7testing8internal29ParameterizedTestCaseInfoBaseEEC2ES4_
FNDA:2,_ZNKSt13move_iteratorIPPN7testing8internal29ParameterizedTestCaseInfoBaseEE4baseEv
FNDA:2,_ZNKSt13move_iteratorIPN7testing8internal25ParameterizedTestCaseInfoI13properties_p1E17InstantiationInfoEE4baseEv
FNDA:0,_ZNKSt13move_iteratorIPN7testing8internal25ParameterizedTestCaseInfoI13properties_p1E17InstantiationInfoEEdeEv
FNDA:0,_ZNSt13move_iteratorIPN7testing8internal25ParameterizedTestCaseInfoI13properties_p1E17InstantiationInfoEEppEv
FNDA:1,_ZSteqIPN7testing8internal25ParameterizedTestCaseInfoI13properties_p1E17InstantiationInfoEEbRKSt13move_iteratorIT_ESB_
FNDA:1,_ZStneIPN7testing8internal25ParameterizedTestCaseInfoI13properties_p1E17InstantiationInfoEEbRKSt13move_iteratorIT_ESB_
FNDA:2,_ZSt32__make_move_if_noexcept_iteratorIPN7testing8internal25ParameterizedTestCaseInfoI13properties_p1E17InstantiationInfoESt13move_iteratorIS6_EET0_T_
FNDA:2,_ZSt32__make_move_if_noexcept_iteratorIPN7testing8internal10linked_ptrINS1_25ParameterizedTestCaseInfoI13properties_p1E8TestInfoEEES8_ET0_T_
FNDA:2,_ZSt32__make_move_if_noexcept_iteratorIPPN7testing8internal29ParameterizedTestCaseInfoBaseESt13move_iteratorIS4_EET0_T_
FNF:33
FNH:31
DA:726,51
DA:738,41
DA:739,41
DA:742,5
DA:743,5
DA:746,39
DA:748,39
DA:749,39
DA:790,126
DA:791,126
DA:811,2
DA:813,2
DA:823,60
DA:825,60
DA:896,1
DA:898,1
DA:950,4
DA:951,4
DA:958,4
DA:959,4
DA:962,0
DA:963,0
DA:970,0
DA:972,0
DA:973,0
DA:1037,1
DA:1039,1
DA:1049,1
DA:1051,1
DA:1132,6
DA:1133,6
LF:31
LH:26
end_of_record
SF:/usr/include/c++/4.8/bits/stl_iterator_base_funcs.h
FN:90,_ZSt10__distanceIPcENSt15iterator_traitsIT_E15difference_typeES2_S2_St26random_access_iterator_tag
FN:90,_ZSt10__distanceIN9__gnu_cxx17__normal_iteratorIPKSsSt6vectorISsSaISsEEEEENSt15iterator_traitsIT_E15difference_typeES9_S9_St26random_access_iterator_tag
FN:114,_ZSt8distanceIN9__gnu_cxx17__normal_iteratorIPKSsSt6vectorISsSaISsEEEEENSt15iterator_traitsIT_E15difference_typeES9_S9_
FN:114,_ZSt8distanceIPcENSt15iterator_traitsIT_E15difference_typeES2_S2_
FNDA:1,_ZSt10__distanceIN9__gnu_cxx17__normal_iteratorIPKSsSt6vectorISsSaISsEEEEENSt15iterator_traitsIT_E15difference_typeES9_S9_St26random_access_iterator_tag
FNDA:0,_ZSt10__distanceIPcENSt15iterator_traitsIT_E15difference_typeES2_S2_St26random_access_iterator_tag
FNDA:1,_ZSt8distanceIN9__gnu_cxx17__normal_iteratorIPKSsSt6vectorISsSaISsEEEEENSt15iterator_traitsIT_E15difference_typeES9_S9_
FNDA:0,_ZSt8distanceIPcENSt15iterator_traitsIT_E15difference_typeES2_S2_
FNF:4
FNH:2
DA:90,1
DA:96,1
DA:114,1
DA:118,1
LF:4
LH:4
end_of_record
SF:/usr/include/c++/4.8/bits/stl_iterator_base_types.h
FN:201,_ZSt19__iterator_categoryIPcENSt15iterator_traitsIT_E17iterator_categoryERKS2_
FN:201,_ZSt19__iterator_categoryIN9__gnu_cxx17__normal_iteratorIPKSsSt6vectorISsSaISsEEEEENSt15iterator_traitsIT_E17iterator_categoryERKS9_
FN:212,_ZNSt10_Iter_baseIPPN7testing8internal29ParameterizedTestCaseInfoBaseELb0EE7_S_baseES4_
FN:220,_ZNSt10_Iter_baseISt13move_iteratorIPPN7testing8internal29ParameterizedTestCaseInfoBaseEELb1EE7_S_baseES6_
FNDA:1,_ZSt19__iterator_categoryIN9__gnu_cxx17__normal_iteratorIPKSsSt6vectorISsSaISsEEEEENSt15iterator_traitsIT_E17iterator_categoryERKS9_
FNDA:0,_ZSt19__iterator_categoryIPcENSt15iterator_traitsIT_E17iterator_categoryERKS2_
FNDA:3,_ZNSt10_Iter_baseIPPN7testing8internal29ParameterizedTestCaseInfoBaseELb0EE7_S_baseES4_
FNDA:2,_ZNSt10_Iter_baseISt13move_iteratorIPPN7testing8internal29ParameterizedTestCaseInfoBaseEELb1EE7_S_baseES6_
FNF:4
FNH:3
DA:201,1
DA:202,1
DA:212,3
DA:213,3
DA:220,2
DA:221,2
LF:6
LH:6
end_of_record
SF:/usr/include/c++/4.8/bits/stl_pair.h
FN:133,_ZNSt4pairIPSt18_Rb_tree_node_baseS1_EC2IRS1_vEEOT_RKS1_
FN:144,_ZNSt4pairISt17_Rb_tree_iteratorISsEbEC2IS1_bvEEOT_OT0_
FN:144,_ZNSt4pairIPSt18_Rb_tree_node_baseS1_EC2IRPSt13_Rb_tree_nodeISsES7_vEEOT_OT0_
FN:144,_ZNSt4pairISt23_Rb_tree_const_iteratorISsEbEC2IRSt17_Rb_tree_iteratorISsERbvEEOT_OT0_
FNDA:0,_ZNSt4pairIPSt18_Rb_tree_node_baseS1_EC2IRS1_vEEOT_RKS1_
FNDA:1,_ZNSt4pairIPSt18_Rb_tree_node_baseS1_EC2IRPSt13_Rb_tree_nodeISsES7_vEEOT_OT0_
FNDA:1,_ZNSt4pairISt17_Rb_tree_iteratorISsEbEC2IS1_bvEEOT_OT0_
FNDA:1,_ZNSt4pairISt23_Rb_tree_const_iteratorISsEbEC2IRSt17_Rb_tree_iteratorISsERbvEEOT_OT0_
FNF:4
FNH:3
DA:133,0
DA:134,0
DA:144,3
DA:145,3
LF:4
LH:2
end_of_record
SF:/usr/include/c++/4.8/bits/stl_set.h
FN:90,_ZNSt3setISsSt4lessISsESaISsEED2Ev
FN:139,_ZNSt3setISsSt4lessISsESaISsEEC2Ev
FN:460,_ZNSt3setISsSt4lessISsESaISsEE6insertERKSs
FN:644,_ZNKSt3setISsSt4lessISsESaISsEE5countERKSs
FNDA:1,_ZNSt3setISsSt4lessISsESaISsEED2Ev
FNDA:1,_ZNSt3setISsSt4lessISsESaISsEEC2Ev
FNDA:1,_ZNSt3setISsSt4lessISsESaISsEE6insertERKSs
FNDA:1,_ZNKSt3setISsSt4lessISsESaISsEE5countERKSs
FNF:4
FNH:4
DA:90,1
DA:139,1
DA:140,1
DA:460,1
DA:463,1
DA:464,1
DA:644,1
DA:645,1
LF:8
LH:8
end_of_record
SF:/usr/include/c++/4.8/bits/stl_tree.h
FN:131,_ZNSt13_Rb_tree_nodeISsED2Ev
FN:138,_ZNSt13_Rb_tree_nodeISsEC2IIRKSsEEEDpOT_
FN:174,_ZNSt17_Rb_tree_iteratorISsEC2EPSt13_Rb_tree_nodeISsE
FN:202,_ZNSt17_Rb_tree_iteratorISsEmmEv
FN:217,_ZNKSt17_Rb_tree_iteratorISsEeqERKS0_
FN:247,_ZNSt23_Rb_tree_const_iteratorISsEC2EPKSt13_Rb_tree_nodeISsE
FN:250,_ZNSt23_Rb_tree_const_iteratorISsEC2ERKSt17_Rb_tree_iteratorISsE
FN:298,_ZNKSt23_Rb_tree_const_iteratorISsEeqERKS0_
FN:356,_ZNSt8_Rb_treeISsSsSt9_IdentityISsESt4lessISsESaISsEE21_M_get_Node_allocatorEv
FN:369,_ZNSt8_Rb_treeISsSsSt9_IdentityISsESt4lessISsESaISsEE11_M_get_nodeEv
FN:373,_ZNSt8_Rb_treeISsSsSt9_IdentityISsESt4lessISsESaISsEE11_M_put_nodeEPSt13_Rb_tree_nodeISsE
FN:401,_ZNSt8_Rb_treeISsSsSt9_IdentityISsESt4lessISsESaISsEE14_M_create_nodeIIRKSsEEEPSt13_Rb_tree_nodeISsEDpOT_
FN:419,_ZNSt8_Rb_treeISsSsSt9_IdentityISsESt4lessISsESaISsEE15_M_destroy_nodeEPSt13_Rb_tree_nodeISsE
FN:439,_ZNSt8_Rb_treeISsSsSt9_IdentityISsESt4lessISsESaISsEE13_Rb_tree_implIS3_Lb1EED2Ev
FN:445,_ZNSt8_Rb_treeISsSsSt9_IdentityISsESt4lessISsESaISsEE13_Rb_tree_implIS3_Lb1EEC2Ev
FN:464,_ZNSt8_Rb_treeISsSsSt9_IdentityISsESt4lessISsESaISsEE13_Rb_tree_implIS3_Lb1EE13_M_initializeEv
FN:501,_ZNSt8_Rb_treeISsSsSt9_IdentityISsESt4lessISsESaISsEE8_M_beginEv
FN:505,_ZNKSt8_Rb_treeISsSsSt9_IdentityISsESt4lessISsESaISsEE8_M_beginEv
FN:512,_ZNSt8_Rb_treeISsSsSt9_IdentityISsESt4lessISsESaISsEE6_M_endEv
FN:516,_ZNKSt8_Rb_treeISsSsSt9_IdentityISsESt4lessISsESaISsEE6_M_endEv
FN:520,_ZNSt8_Rb_treeISsSsSt9_IdentityISsESt4lessISsESaISsEE8_S_valueEPKSt13_Rb_tree_nodeISsE
FN:524,_ZNSt8_Rb_treeISsSsSt9_IdentityISsESt4lessISsESaISsEE6_S_keyEPKSt13_Rb_tree_nodeISsE
FN:528,_ZNSt8_Rb_treeISsSsSt9_IdentityISsESt4lessISsESaISsEE7_S_leftEPSt18_Rb_tree_node_base
FN:532,_ZNSt8_Rb_treeISsSsSt9_IdentityISsESt4lessISsESaISsEE7_S_leftEPKSt18_Rb_tree_node_base
FN:536,_ZNSt8_Rb_treeISsSsSt9_IdentityISsESt4lessISsESaISsEE8_S_rightEPSt18_Rb_tree_node_base
FN:540,_ZNSt8_Rb_treeISsSsSt9_IdentityISsESt4lessISsESaISsEE8_S_rightEPKSt18_Rb_tree_node_base
FN:544,_ZNSt8_Rb_treeISsSsSt9_IdentityISsESt4lessISsESaISsEE8_S_valueEPKSt18_Rb_tree_node_base
FN:548,_ZNSt8_Rb_treeISsSsSt9_IdentityISsESt4lessISsESaISsEE6_S_keyEPKSt18_Rb_tree_node_base
FN:648,_ZNSt8_Rb_treeISsSsSt9_IdentityISsESt4lessISsESaISsEEC2Ev
FN:670,_ZNSt8_Rb_treeISsSsSt9_IdentityISsESt4lessISsESaISsEED2Ev
FN:682,_ZNSt8_Rb_treeISsSsSt9_IdentityISsESt4lessISsESaISsEE5beginEv
FN:700,_ZNKSt8_Rb_treeISsSsSt9_IdentityISsESt4lessISsESaISsEE3endEv
FN:1012,_ZNSt8_Rb_treeISsSsSt9_IdentityISsESt4lessISsESaISsEE10_M_insert_IRKSsEESt17_Rb_tree_iteratorISsEPSt18_Rb_tree_node_baseSC_OT_
FN:1119,_ZNSt8_Rb_treeISsSsSt9_IdentityISsESt4lessISsESaISsEE8_M_eraseEPSt13_Rb_tree_nodeISsE
FN:1152,_ZNKSt8_Rb_treeISsSsSt9_IdentityISsESt4lessISsESaISsEE14_M_lower_boundEPKSt13_Rb_tree_nodeISsES9_RKSs
FN:1314,_ZNSt8_Rb_treeISsSsSt9_IdentityISsESt4lessISsESaISsEE24_M_get_insert_unique_posERKSs
FN:1368,_ZNSt8_Rb_treeISsSsSt9_IdentityISsESt4lessISsESaISsEE16_M_insert_uniqueIRKSsEESt4pairISt17_Rb_tree_iteratorISsEbEOT_
FN:1802,_ZNKSt8_Rb_treeISsSsSt9_IdentityISsESt4lessISsESaISsEE4findERKSs
FNDA:1,_ZNSt13_Rb_tree_nodeISsED2Ev
FNDA:1,_ZNSt13_Rb_tree_nodeISsEC2IIRKSsEEEDpOT_
FNDA:3,_ZNSt17_Rb_tree_iteratorISsEC2EPSt13_Rb_tree_nodeISsE
FNDA:0,_ZNSt17_Rb_tree_iteratorISsEmmEv
FNDA:1,_ZNKSt17_Rb_tree_iteratorISsEeqERKS0_
FNDA:4,_ZNSt23_Rb_tree_const_iteratorISsEC2EPKSt13_Rb_tree_nodeISsE
FNDA:1,_ZNSt23_Rb_tree_const_iteratorISsEC2ERKSt17_Rb_tree_iteratorISsE
FNDA:2,_ZNKSt23_Rb_tree_const_iteratorISsEeqERKS0_
FNDA:2,_ZNSt8_Rb_treeISsSsSt9_IdentityISsESt4lessISsESaISsEE21_M_get_Node_allocatorEv
FNDA:1,_ZNSt8_Rb_treeISsSsSt9_IdentityISsESt4lessISsESaISsEE11_M_get_nodeEv
FNDA:1,_ZNSt8_Rb_treeISsSsSt9_IdentityISsESt4lessISsESaISsEE11_M_put_nodeEPSt13_Rb_tree_nodeISsE
FNDA:1,_ZNSt8_Rb_treeISsSsSt9_IdentityISsESt4lessISsESaISsEE14_M_create_nodeIIRKSsEEEPSt13_Rb_tree_nodeISsEDpOT_
FNDA:1,_ZNSt8_Rb_treeISsSsSt9_IdentityISsESt4lessISsESaISsEE15_M_destroy_nodeEPSt13_Rb_tree_nodeISsE
FNDA:1,_ZNSt8_Rb_treeISsSsSt9_IdentityISsESt4lessISsESaISsEE13_Rb_tree_implIS3_Lb1EED2Ev
FNDA:1,_ZNSt8_Rb_treeISsSsSt9_IdentityISsESt4lessISsESaISsEE13_Rb_tree_implIS3_Lb1EEC2Ev
FNDA:1,_ZNSt8_Rb_treeISsSsSt9_IdentityISsESt4lessISsESaISsEE13_Rb_tree_implIS3_Lb1EE13_M_initializeEv
FNDA:2,_ZNSt8_Rb_treeISsSsSt9_IdentityISsESt4lessISsESaISsEE8_M_beginEv
FNDA:1,_ZNKSt8_Rb_treeISsSsSt9_IdentityISsESt4lessISsESaISsEE8_M_beginEv
FNDA:2,_ZNSt8_Rb_treeISsSsSt9_IdentityISsESt4lessISsESaISsEE6_M_endEv
FNDA:1,_ZNKSt8_Rb_treeISsSsSt9_IdentityISsESt4lessISsESaISsEE6_M_endEv
FNDA:0,_ZNSt8_Rb_treeISsSsSt9_IdentityISsESt4lessISsESaISsEE8_S_valueEPKSt13_Rb_tree_nodeISsE
FNDA:0,_ZNSt8_Rb_treeISsSsSt9_IdentityISsESt4lessISsESaISsEE6_S_keyEPKSt13_Rb_tree_nodeISsE
FNDA:1,_ZNSt8_Rb_treeISsSsSt9_IdentityISsESt4lessISsESaISsEE7_S_leftEPSt18_Rb_tree_node_base
FNDA:0,_ZNSt8_Rb_treeISsSsSt9_IdentityISsESt4lessISsESaISsEE7_S_leftEPKSt18_Rb_tree_node_base
FNDA:1,_ZNSt8_Rb_treeISsSsSt9_IdentityISsESt4lessISsESaISsEE8_S_rightEPSt18_Rb_tree_node_base
FNDA:0,_ZNSt8_Rb_treeISsSsSt9_IdentityISsESt4lessISsESaISsEE8_S_rightEPKSt18_Rb_tree_node_base
FNDA:0,_ZNSt8_Rb_treeISsSsSt9_IdentityISsESt4lessISsESaISsEE8_S_valueEPKSt18_Rb_tree_node_base
FNDA:0,_ZNSt8_Rb_treeISsSsSt9_IdentityISsESt4lessISsESaISsEE6_S_keyEPKSt18_Rb_tree_node_base
FNDA:1,_ZNSt8_Rb_treeISsSsSt9_IdentityISsESt4lessISsESaISsEEC2Ev
FNDA:1,_ZNSt8_Rb_treeISsSsSt9_IdentityISsESt4lessISsESaISsEED2Ev
FNDA:1,_ZNSt8_Rb_treeISsSsSt9_IdentityISsESt4lessISsESaISsEE5beginEv
FNDA:3,_ZNKSt8_Rb_treeISsSsSt9_IdentityISsESt4lessISsESaISsEE3endEv
FNDA:1,_ZNSt8_Rb_treeISsSsSt9_IdentityISsESt4lessISsESaISsEE10_M_insert_IRKSsEESt17_Rb_tree_iteratorISsEPSt18_Rb_tree_node_baseSC_OT_
FNDA:2,_ZNSt8_Rb_treeISsSsSt9_IdentityISsESt4lessISsESaISsEE8_M_eraseEPSt13_Rb_tree_nodeISsE
FNDA:1,_ZNKSt8_Rb_treeISsSsSt9_IdentityISsESt4lessISsESaISsEE14_M_lower_boundEPKSt13_Rb_tree_nodeISsES9_RKSs
FNDA:1,_ZNSt8_Rb_treeISsSsSt9_IdentityISsESt4lessISsESaISsEE24_M_get_insert_unique_posERKSs
FNDA:1,_ZNSt8_Rb_treeISsSsSt9_IdentityISsESt4lessISsESaISsEE16_M_insert_uniqueIRKSsEESt4pairISt17_Rb_tree_iteratorISsEbEOT_
FNDA:1,_ZNKSt8_Rb_treeISsSsSt9_IdentityISsESt4lessISsESaISsEE4findERKSs
FNF:38
FNH:31
DA:131,1
DA:138,1
DA:140,1
DA:174,3
DA:175,3
DA:202,0
DA:204,0
DA:205,0
DA:217,1
DA:218,1
DA:247,4
DA:248,4
DA:250,1
DA:251,1
DA:298,2
DA:299,2
DA:356,2
DA:357,2
DA:369,1
DA:370,1
DA:373,1
DA:374,1
DA:401,1
DA:403,1
DA:406,1
DA:407,1
DA:408,1
DA:410,=====
DA:412,=====
DA:413,=====
DA:415,1
DA:419,1
DA:421,1
DA:422,1
DA:423,1
DA:439,1
DA:445,1
DA:447,1
DA:448,1
DA:464,1
DA:466,1
DA:467,1
DA:468,1
DA:469,1
DA:470,1
DA:501,2
DA:502,2
DA:505,1
DA:508,1
DA:512,2
DA:513,2
DA:516,1
DA:517,1
DA:520,0
DA:521,0
DA:524,0
DA:525,0
DA:528,1
DA:529,1
DA:532,0
DA:533,0
DA:536,1
DA:537,1
DA:540,0
DA:541,0
DA:544,0
DA:545,0
DA:548,0
DA:549,0
DA:648,1
DA:670,1
DA:671,1
DA:682,1
DA:685,1
DA:700,3
DA:703,3
DA:1012,1
DA:1019,1
DA:1020,1
DA:1021,3
DA:1023,1
DA:1025,1
DA:1026,1
DA:1027,1
DA:1028,1
DA:1119,2
DA:1123,5
DA:1125,1
DA:1126,1
DA:1127,1
DA:1128,1
DA:1130,2
DA:1152,1
DA:1156,2
DA:1157,0
DA:1158,0
DA:1160,0
DA:1161,1
DA:1314,1
DA:1318,1
DA:1319,1
DA:1320,1
DA:1321,2
DA:1323,0
DA:1324,0
DA:1325,0
DA:1327,1
DA:1328,1
DA:1330,1
DA:1331,1
DA:1333,0
DA:1335,0
DA:1336,0
DA:1337,0
DA:1368,1
DA:1377,1
DA:1379,1
DA:1381,1
DA:1382,2
DA:1384,0
DA:1802,1
DA:1805,1
DA:1806,4
DA:1807,0
DA:1808,4
LF:125
LH:95
end_of_record
SF:/usr/include/c++/4.8/bits/stl_uninitialized.h
FN:68,_ZNSt20__uninitialized_copyILb0EE13__uninit_copyIN9__gnu_cxx17__normal_iteratorIPKSsSt6vectorISsSaISsEEEEPSsEET0_T_SC_SB_
FN:68,_ZNSt20__uninitialized_copyILb0EE13__uninit_copyIPN7testing8internal10linked_ptrINS3_25ParameterizedTestCaseInfoI13properties_p1E8TestInfoEEESA_EET0_T_SC_SB_
FN:68,_ZNSt20__uninitialized_copyILb0EE13__uninit_copyISt13move_iteratorIPN7testing8internal25ParameterizedTestCaseInfoI13properties_p1E17InstantiationInfoEES9_EET0_T_SC_SB_
FN:91,_ZNSt20__uninitialized_copyILb1EE13__uninit_copyISt13move_iteratorIPPN7testing8internal29ParameterizedTestCaseInfoBaseEES7_EET0_T_SA_S9_
FN:107,_ZSt18uninitialized_copyIPN7testing8internal10linked_ptrINS1_25ParameterizedTestCaseInfoI13properties_p1E8TestInfoEEES8_ET0_T_SA_S9_
FN:107,_ZSt18uninitialized_copyISt13move_iteratorIPN7testing8internal25ParameterizedTestCaseInfoI13properties_p1E17InstantiationInfoEES7_ET0_T_SA_S9_
FN:107,_ZSt18uninitialized_copyIN9__gnu_cxx17__normal_iteratorIPKSsSt6vectorISsSaISsEEEEPSsET0_T_SA_S9_
FN:107,_ZSt18uninitialized_copyISt13move_iteratorIPPN7testing8internal29ParameterizedTestCaseInfoBaseEES5_ET0_T_S8_S7_
FN:256,_ZSt22__uninitialized_copy_aISt13move_iteratorIPN7testing8internal25ParameterizedTestCaseInfoI13properties_p1E17InstantiationInfoEES7_S6_ET0_T_SA_S9_RSaIT1_E
FN:256,_ZSt22__uninitialized_copy_aIN9__gnu_cxx17__normal_iteratorIPKSsSt6vectorISsSaISsEEEEPSsSsET0_T_SA_S9_RSaIT1_E
FN:256,_ZSt22__uninitialized_copy_aISt13move_iteratorIPPN7testing8internal29ParameterizedTestCaseInfoBaseEES5_S4_ET0_T_S8_S7_RSaIT1_E
FN:256,_ZSt22__uninitialized_copy_aIPN7testing8internal10linked_ptrINS1_25ParameterizedTestCaseInfoI13properties_p1E8TestInfoEEES8_S7_ET0_T_SA_S9_RSaIT1_E
FN:274,_ZSt34__uninitialized_move_if_noexcept_aIPPN7testing8internal29ParameterizedTestCaseInfoBaseES4_SaIS3_EET0_T_S7_S6_RT1_
FN:274,_ZSt34__uninitialized_move_if_noexcept_aIPN7testing8internal25ParameterizedTestCaseInfoI13properties_p1E17InstantiationInfoES6_SaIS5_EET0_T_S9_S8_RT1_
FN:274,_ZSt34__uninitialized_move_if_noexcept_aIPN7testing8internal10linked_ptrINS1_25ParameterizedTestCaseInfoI13properties_p1E8TestInfoEEES8_SaIS7_EET0_T_SB_SA_RT1_
FNDA:16,_ZNSt20__uninitialized_copyILb0EE13__uninit_copyIN9__gnu_cxx17__normal_iteratorIPKSsSt6vectorISsSaISsEEEEPSsEET0_T_SC_SB_
FNDA:1,_ZNSt20__uninitialized_copyILb0EE13__uninit_copyISt13move_iteratorIPN7testing8internal25ParameterizedTestCaseInfoI13properties_p1E17InstantiationInfoEES9_EET0_T_SC_SB_
FNDA:1,_ZNSt20__uninitialized_copyILb0EE13__uninit_copyIPN7testing8internal10linked_ptrINS3_25ParameterizedTestCaseInfoI13properties_p1E8TestInfoEEESA_EET0_T_SC_SB_
FNDA:1,_ZNSt20__uninitialized_copyILb1EE13__uninit_copyISt13move_iteratorIPPN7testing8internal29ParameterizedTestCaseInfoBaseEES7_EET0_T_SA_S9_
FNDA:16,_ZSt18uninitialized_copyIN9__gnu_cxx17__normal_iteratorIPKSsSt6vectorISsSaISsEEEEPSsET0_T_SA_S9_
FNDA:1,_ZSt18uninitialized_copyISt13move_iteratorIPN7testing8internal25ParameterizedTestCaseInfoI13properties_p1E17InstantiationInfoEES7_ET0_T_SA_S9_
FNDA:1,_ZSt18uninitialized_copyIPN7testing8internal10linked_ptrINS1_25ParameterizedTestCaseInfoI13properties_p1E8TestInfoEEES8_ET0_T_SA_S9_
FNDA:1,_ZSt18uninitialized_copyISt13move_iteratorIPPN7testing8internal29ParameterizedTestCaseInfoBaseEES5_ET0_T_S8_S7_
FNDA:16,_ZSt22__uninitialized_copy_aIN9__gnu_cxx17__normal_iteratorIPKSsSt6vectorISsSaISsEEEEPSsSsET0_T_SA_S9_RSaIT1_E
FNDA:1,_ZSt22__uninitialized_copy_aISt13move_iteratorIPN7testing8internal25ParameterizedTestCaseInfoI13properties_p1E17InstantiationInfoEES7_S6_ET0_T_SA_S9_RSaIT1_E
FNDA:1,_ZSt22__uninitialized_copy_aIPN7testing8internal10linked_ptrINS1_25ParameterizedTestCaseInfoI13properties_p1E8TestInfoEEES8_S7_ET0_T_SA_S9_RSaIT1_E
FNDA:1,_ZSt22__uninitialized_copy_aISt13move_iteratorIPPN7testing8internal29ParameterizedTestCaseInfoBaseEES5_S4_ET0_T_S8_S7_RSaIT1_E
FNDA:1,_ZSt34__uninitialized_move_if_noexcept_aIPN7testing8internal25ParameterizedTestCaseInfoI13properties_p1E17InstantiationInfoES6_SaIS5_EET0_T_S9_S8_RT1_
FNDA:1,_ZSt34__uninitialized_move_if_noexcept_aIPN7testing8internal10linked_ptrINS1_25ParameterizedTestCaseInfoI13properties_p1E8TestInfoEEES8_SaIS7_EET0_T_SB_SA_RT1_
FNDA:1,_ZSt34__uninitialized_move_if_noexcept_aIPPN7testing8internal29ParameterizedTestCaseInfoBaseES4_SaIS3_EET0_T_S7_S6_RT1_
FNF:15
FNH:15
DA:68,18
DA:71,18
DA:74,52
DA:75,34
DA:76,18
DA:78,=====
DA:80,=====
DA:81,=====
DA:91,1
DA:93,1
DA:107,19
DA:117,19
DA:256,19
DA:258,19
DA:274,3
DA:281,3
LF:16
LH:13
end_of_record
SF:/usr/include/c++/4.8/bits/stl_vector.h
FN:79,_ZNSt12_Vector_baseIN7testing8internal10linked_ptrINS1_25ParameterizedTestCaseInfoI13properties_p1E8TestInfoEEESaIS7_EE12_Vector_implD2Ev
FN:79,_ZNSt12_Vector_baseIN7testing8internal25ParameterizedTestCaseInfoI13properties_p1E17InstantiationInfoESaIS5_EE12_Vector_implD2Ev
FN:79,_ZNSt12_Vector_baseIN4opae7testing11test_deviceESaIS2_EE12_Vector_implD2Ev
FN:79,_ZNSt12_Vector_baseISsSaISsEE12_Vector_implD2Ev
FN:86,_ZNSt12_Vector_baseIN7testing8internal10linked_ptrINS1_25ParameterizedTestCaseInfoI13properties_p1E8TestInfoEEESaIS7_EE12_Vector_implC2Ev
FN:86,_ZNSt12_Vector_baseIN7testing8internal25ParameterizedTestCaseInfoI13properties_p1E17InstantiationInfoESaIS5_EE12_Vector_implC2Ev
FN:86,_ZNSt12_Vector_baseIN4opae7testing11test_deviceESaIS2_EE12_Vector_implC2Ev
FN:90,_ZNSt12_Vector_baseISsSaISsEE12_Vector_implC2ERKS0_
FN:90,_ZNSt12_Vector_baseIN4opae7testing11test_deviceESaIS2_EE12_Vector_implC2ERKS3_
FN:101,_ZNSt12_Vector_baseIN4opae7testing11test_deviceESaIS2_EE12_Vector_impl12_M_swap_dataERS5_
FN:113,_ZNSt12_Vector_baseIN7testing8internal25ParameterizedTestCaseInfoI13properties_p1E17InstantiationInfoESaIS5_EE19_M_get_Tp_allocatorEv
FN:113,_ZNSt12_Vector_baseISsSaISsEE19_M_get_Tp_allocatorEv
FN:113,_ZNSt12_Vector_baseIN4opae7testing11test_deviceESaIS2_EE19_M_get_Tp_allocatorEv
FN:113,_ZNSt12_Vector_baseIPN7testing8internal29ParameterizedTestCaseInfoBaseESaIS3_EE19_M_get_Tp_allocatorEv
FN:113,_ZNSt12_Vector_baseIN7testing8internal10linked_ptrINS1_25ParameterizedTestCaseInfoI13properties_p1E8TestInfoEEESaIS7_EE19_M_get_Tp_allocatorEv
FN:117,_ZNKSt12_Vector_baseIN7testing8internal10linked_ptrINS1_25ParameterizedTestCaseInfoI13properties_p1E8TestInfoEEESaIS7_EE19_M_get_Tp_allocatorEv
FN:117,_ZNKSt12_Vector_baseIPN7testing8internal29ParameterizedTestCaseInfoBaseESaIS3_EE19_M_get_Tp_allocatorEv
FN:117,_ZNKSt12_Vector_baseIN7testing8internal25ParameterizedTestCaseInfoI13properties_p1E17InstantiationInfoESaIS5_EE19_M_get_Tp_allocatorEv
FN:117,_ZNKSt12_Vector_baseIN4opae7testing11test_deviceESaIS2_EE19_M_get_Tp_allocatorEv
FN:121,_ZNKSt12_Vector_baseIN4opae7testing11test_deviceESaIS2_EE13get_allocatorEv
FN:124,_ZNSt12_Vector_baseIN7testing8internal25ParameterizedTestCaseInfoI13properties_p1E17InstantiationInfoESaIS5_EEC2Ev
FN:124,_ZNSt12_Vector_baseIN7testing8internal10linked_ptrINS1_25ParameterizedTestCaseInfoI13properties_p1E8TestInfoEEESaIS7_EEC2Ev
FN:124,_ZNSt12_Vector_baseIN4opae7testing11test_deviceESaIS2_EEC2Ev
FN:127,_ZNSt12_Vector_baseISsSaISsEEC2ERKS0_
FN:127,_ZNSt12_Vector_baseIN4opae7testing11test_deviceESaIS2_EEC2ERKS3_
FN:159,_ZNSt12_Vector_baseIN7testing8internal10linked_ptrINS1_25ParameterizedTestCaseInfoI13properties_p1E8TestInfoEEESaIS7_EED2Ev
FN:159,_ZNSt12_Vector_baseIN7testing8internal25ParameterizedTestCaseInfoI13properties_p1E17InstantiationInfoESaIS5_EED2Ev
FN:159,_ZNSt12_Vector_baseIN4opae7testing11test_deviceESaIS2_EED2Ev
FN:159,_ZNSt12_Vector_baseISsSaISsEED2Ev
FN:167,_ZNSt12_Vector_baseISsSaISsEE11_M_allocateEm
FN:167,_ZNSt12_Vector_baseIN7testing8internal25ParameterizedTestCaseInfoI13properties_p1E17InstantiationInfoESaIS5_EE11_M_allocateEm
FN:167,_ZNSt12_Vector_baseIN7testing8internal10linked_ptrINS1_25ParameterizedTestCaseInfoI13properties_p1E8TestInfoEEESaIS7_EE11_M_allocateEm
FN:167,_ZNSt12_Vector_baseIPN7testing8internal29ParameterizedTestCaseInfoBaseESaIS3_EE11_M_allocateEm
FN:171,_ZNSt12_Vector_baseIN4opae7testing11test_deviceESaIS2_EE13_M_deallocateEPS2_m
FN:171,_ZNSt12_Vector_baseISsSaISsEE13_M_deallocateEPSsm
FN:171,_ZNSt12_Vector_baseIN7testing8internal10linked_ptrINS1_25ParameterizedTestCaseInfoI13properties_p1E8TestInfoEEESaIS7_EE13_M_deallocateEPS7_m
FN:171,_ZNSt12_Vector_baseIN7testing8internal25ParameterizedTestCaseInfoI13properties_p1E17InstantiationInfoESaIS5_EE13_M_deallocateEPS5_m
FN:171,_ZNSt12_Vector_baseIPN7testing8internal29ParameterizedTestCaseInfoBaseESaIS3_EE13_M_deallocateEPS3_m
FN:248,_ZNSt6vectorIN4opae7testing11test_deviceESaIS2_EEC2Ev
FN:248,_ZNSt6vectorIN7testing8internal25ParameterizedTestCaseInfoI13properties_p1E17InstantiationInfoESaIS5_EEC2Ev
FN:248,_ZNSt6vectorIN7testing8internal10linked_ptrINS1_25ParameterizedTestCaseInfoI13properties_p1E8TestInfoEEESaIS7_EEC2Ev
FN:256,_ZNSt6vectorIN4opae7testing11test_deviceESaIS2_EEC2ERKS3_
FN:392,_ZNSt6vectorISsSaISsEEC2IN9__gnu_cxx17__normal_iteratorIPKSsS1_EEvEET_S8_RKS0_
FN:414,_ZNSt6vectorISsSaISsEED2Ev
FN:414,_ZNSt6vectorIN7testing8internal10linked_ptrINS1_25ParameterizedTestCaseInfoI13properties_p1E8TestInfoEEESaIS7_EED2Ev
FN:414,_ZNSt6vectorIN4opae7testing11test_deviceESaIS2_EED2Ev
FN:414,_ZNSt6vectorIN7testing8internal25ParameterizedTestCaseInfoI13properties_p1E17InstantiationInfoESaIS5_EED2Ev
FN:439,_ZNSt6vectorIN4opae7testing11test_deviceESaIS2_EEaSEOS4_
FN:538,_ZNSt6vectorIN7testing8internal10linked_ptrINS1_25ParameterizedTestCaseInfoI13properties_p1E8TestInfoEEESaIS7_EE5beginEv
FN:538,_ZNSt6vectorIN7testing8internal25ParameterizedTestCaseInfoI13properties_p1E17InstantiationInfoESaIS5_EE5beginEv
FN:538,_ZNSt6vectorIPN7testing8internal29ParameterizedTestCaseInfoBaseESaIS3_EE5beginEv
FN:547,_ZNKSt6vectorISsSaISsEE5beginEv
FN:556,_ZNSt6vectorIN7testing8internal10linked_ptrINS1_25ParameterizedTestCaseInfoI13properties_p1E8TestInfoEEESaIS7_EE3endEv
FN:556,_ZNSt6vectorIN7testing8internal25ParameterizedTestCaseInfoI13properties_p1E17InstantiationInfoESaIS5_EE3endEv
FN:556,_ZNSt6vectorIPN7testing8internal29ParameterizedTestCaseInfoBaseESaIS3_EE3endEv
FN:565,_ZNKSt6vectorISsSaISsEE3endEv
FN:645,_ZNKSt6vectorIN4opae7testing11test_deviceESaIS2_EE4sizeEv
FN:645,_ZNKSt6vectorIPN7testing8internal29ParameterizedTestCaseInfoBaseESaIS3_EE4sizeEv
FN:645,_ZNKSt6vectorIN7testing8internal10linked_ptrINS1_25ParameterizedTestCaseInfoI13properties_p1E8TestInfoEEESaIS7_EE4sizeEv
FN:645,_ZNKSt6vectorIN7testing8internal25ParameterizedTestCaseInfoI13properties_p1E17InstantiationInfoESaIS5_EE4sizeEv
FN:650,_ZNKSt6vectorIN7testing8internal10linked_ptrINS1_25ParameterizedTestCaseInfoI13properties_p1E8TestInfoEEESaIS7_EE8max_sizeEv
FN:650,_ZNKSt6vectorIPN7testing8internal29ParameterizedTestCaseInfoBaseESaIS3_EE8max_sizeEv
FN:650,_ZNKSt6vectorIN7testing8internal25ParameterizedTestCaseInfoI13properties_p1E17InstantiationInfoESaIS5_EE8max_sizeEv
FN:919,_ZNSt6vectorIN7testing8internal25ParameterizedTestCaseInfoI13properties_p1E17InstantiationInfoESaIS5_EE9push_backEOS5_
FN:919,_ZNSt6vectorIN7testing8internal10linked_ptrINS1_25ParameterizedTestCaseInfoI13properties_p1E8TestInfoEEESaIS7_EE9push_backEOS7_
FN:919,_ZNSt6vectorIPN7testing8internal29ParameterizedTestCaseInfoBaseESaIS3_EE9push_backEOS3_
FN:1172,_ZNSt6vectorISsSaISsEE22_M_initialize_dispatchIN9__gnu_cxx17__normal_iteratorIPKSsS1_EEEEvT_S8_St12__false_type
FN:1197,_ZNSt6vectorISsSaISsEE19_M_range_initializeIN9__gnu_cxx17__normal_iteratorIPKSsS1_EEEEvT_S8_St20forward_iterator_tag
FN:1336,_ZNKSt6vectorIPN7testing8internal29ParameterizedTestCaseInfoBaseESaIS3_EE12_M_check_lenEmPKc
FN:1336,_ZNKSt6vectorIN7testing8internal25ParameterizedTestCaseInfoI13properties_p1E17InstantiationInfoESaIS5_EE12_M_check_lenEmPKc
FN:1336,_ZNKSt6vectorIN7testing8internal10linked_ptrINS1_25ParameterizedTestCaseInfoI13properties_p1E8TestInfoEEESaIS7_EE12_M_check_lenEmPKc
FN:1362,_ZNSt6vectorIN4opae7testing11test_deviceESaIS2_EE14_M_move_assignEOS4_St17integral_constantIbLb1EE
FNDA:1,_ZNSt12_Vector_baseIN7testing8internal25ParameterizedTestCaseInfoI13properties_p1E17InstantiationInfoESaIS5_EE12_Vector_implD2Ev
FNDA:1,_ZNSt12_Vector_baseIN7testing8internal10linked_ptrINS1_25ParameterizedTestCaseInfoI13properties_p1E8TestInfoEEESaIS7_EE12_Vector_implD2Ev
FNDA:35,_ZNSt12_Vector_baseISsSaISsEE12_Vector_implD2Ev
FNDA:6,_ZNSt12_Vector_baseIN4opae7testing11test_deviceESaIS2_EE12_Vector_implD2Ev
FNDA:1,_ZNSt12_Vector_baseIN7testing8internal25ParameterizedTestCaseInfoI13properties_p1E17InstantiationInfoESaIS5_EE12_Vector_implC2Ev
FNDA:1,_ZNSt12_Vector_baseIN7testing8internal10linked_ptrINS1_25ParameterizedTestCaseInfoI13properties_p1E8TestInfoEEESaIS7_EE12_Vector_implC2Ev
FNDA:1,_ZNSt12_Vector_baseIN4opae7testing11test_deviceESaIS2_EE12_Vector_implC2Ev
FNDA:17,_ZNSt12_Vector_baseISsSaISsEE12_Vector_implC2ERKS0_
FNDA:5,_ZNSt12_Vector_baseIN4opae7testing11test_deviceESaIS2_EE12_Vector_implC2ERKS3_
FNDA:3,_ZNSt12_Vector_baseIN4opae7testing11test_deviceESaIS2_EE12_Vector_impl12_M_swap_dataERS5_
FNDA:3,_ZNSt12_Vector_baseIN7testing8internal25ParameterizedTestCaseInfoI13properties_p1E17InstantiationInfoESaIS5_EE19_M_get_Tp_allocatorEv
FNDA:3,_ZNSt12_Vector_baseIN7testing8internal10linked_ptrINS1_25ParameterizedTestCaseInfoI13properties_p1E8TestInfoEEESaIS7_EE19_M_get_Tp_allocatorEv
FNDA:122,_ZNSt12_Vector_baseISsSaISsEE19_M_get_Tp_allocatorEv
FNDA:13,_ZNSt12_Vector_baseIN4opae7testing11test_deviceESaIS2_EE19_M_get_Tp_allocatorEv
FNDA:3,_ZNSt12_Vector_baseIPN7testing8internal29ParameterizedTestCaseInfoBaseESaIS3_EE19_M_get_Tp_allocatorEv
FNDA:2,_ZNKSt12_Vector_baseIN7testing8internal25ParameterizedTestCaseInfoI13properties_p1E17InstantiationInfoESaIS5_EE19_M_get_Tp_allocatorEv
FNDA:2,_ZNKSt12_Vector_baseIN7testing8internal10linked_ptrINS1_25ParameterizedTestCaseInfoI13properties_p1E8TestInfoEEESaIS7_EE19_M_get_Tp_allocatorEv
FNDA:2,_ZNKSt12_Vector_baseIPN7testing8internal29ParameterizedTestCaseInfoBaseESaIS3_EE19_M_get_Tp_allocatorEv
FNDA:4,_ZNKSt12_Vector_baseIN4opae7testing11test_deviceESaIS2_EE19_M_get_Tp_allocatorEv
FNDA:1,_ZNKSt12_Vector_baseIN4opae7testing11test_deviceESaIS2_EE13get_allocatorEv
FNDA:1,_ZNSt12_Vector_baseIN7testing8internal25ParameterizedTestCaseInfoI13properties_p1E17InstantiationInfoESaIS5_EEC2Ev
FNDA:1,_ZNSt12_Vector_baseIN7testing8internal10linked_ptrINS1_25ParameterizedTestCaseInfoI13properties_p1E8TestInfoEEESaIS7_EEC2Ev
FNDA:1,_ZNSt12_Vector_baseIN4opae7testing11test_deviceESaIS2_EEC2Ev
FNDA:1,_ZNSt12_Vector_baseISsSaISsEEC2ERKS0_
FNDA:2,_ZNSt12_Vector_baseIN4opae7testing11test_deviceESaIS2_EEC2ERKS3_
FNDA:1,_ZNSt12_Vector_baseIN7testing8internal25ParameterizedTestCaseInfoI13properties_p1E17InstantiationInfoESaIS5_EED2Ev
FNDA:1,_ZNSt12_Vector_baseIN7testing8internal10linked_ptrINS1_25ParameterizedTestCaseInfoI13properties_p1E8TestInfoEEESaIS7_EED2Ev
FNDA:35,_ZNSt12_Vector_baseISsSaISsEED2Ev
FNDA:6,_ZNSt12_Vector_baseIN4opae7testing11test_deviceESaIS2_EED2Ev
FNDA:51,_ZNSt12_Vector_baseISsSaISsEE11_M_allocateEm
FNDA:1,_ZNSt12_Vector_baseIN7testing8internal25ParameterizedTestCaseInfoI13properties_p1E17InstantiationInfoESaIS5_EE11_M_allocateEm
FNDA:1,_ZNSt12_Vector_baseIN7testing8internal10linked_ptrINS1_25ParameterizedTestCaseInfoI13properties_p1E8TestInfoEEESaIS7_EE11_M_allocateEm
FNDA:1,_ZNSt12_Vector_baseIPN7testing8internal29ParameterizedTestCaseInfoBaseESaIS3_EE11_M_allocateEm
FNDA:2,_ZNSt12_Vector_baseIN7testing8internal25ParameterizedTestCaseInfoI13properties_p1E17InstantiationInfoESaIS5_EE13_M_deallocateEPS5_m
FNDA:2,_ZNSt12_Vector_baseIN7testing8internal10linked_ptrINS1_25ParameterizedTestCaseInfoI13properties_p1E8TestInfoEEESaIS7_EE13_M_deallocateEPS7_m
FNDA:69,_ZNSt12_Vector_baseISsSaISsEE13_M_deallocateEPSsm
FNDA:6,_ZNSt12_Vector_baseIN4opae7testing11test_deviceESaIS2_EE13_M_deallocateEPS2_m
FNDA:2,_ZNSt12_Vector_baseIPN7testing8internal29ParameterizedTestCaseInfoBaseESaIS3_EE13_M_deallocateEPS3_m
FNDA:1,_ZNSt6vectorIN7testing8internal25ParameterizedTestCaseInfoI13properties_p1E17InstantiationInfoESaIS5_EEC2Ev
FNDA:1,_ZNSt6vectorIN7testing8internal10linked_ptrINS1_25ParameterizedTestCaseInfoI13properties_p1E8TestInfoEEESaIS7_EEC2Ev
FNDA:1,_ZNSt6vectorIN4opae7testing11test_deviceESaIS2_EEC2Ev
FNDA:1,_ZNSt6vectorIN4opae7testing11test_deviceESaIS2_EEC2ERKS3_
FNDA:1,_ZNSt6vectorISsSaISsEEC2IN9__gnu_cxx17__normal_iteratorIPKSsS1_EEvEET_S8_RKS0_
FNDA:1,_ZNSt6vectorIN7testing8internal25ParameterizedTestCaseInfoI13properties_p1E17InstantiationInfoESaIS5_EED2Ev
FNDA:1,_ZNSt6vectorIN7testing8internal10linked_ptrINS1_25ParameterizedTestCaseInfoI13properties_p1E8TestInfoEEESaIS7_EED2Ev
FNDA:35,_ZNSt6vectorISsSaISsEED2Ev
FNDA:6,_ZNSt6vectorIN4opae7testing11test_deviceESaIS2_EED2Ev
FNDA:1,_ZNSt6vectorIN4opae7testing11test_deviceESaIS2_EEaSEOS4_
FNDA:1,_ZNSt6vectorIN7testing8internal25ParameterizedTestCaseInfoI13properties_p1E17InstantiationInfoESaIS5_EE5beginEv
FNDA:1,_ZNSt6vectorIN7testing8internal10linked_ptrINS1_25ParameterizedTestCaseInfoI13properties_p1E8TestInfoEEESaIS7_EE5beginEv
FNDA:4,_ZNSt6vectorIPN7testing8internal29ParameterizedTestCaseInfoBaseESaIS3_EE5beginEv
FNDA:17,_ZNKSt6vectorISsSaISsEE5beginEv
FNDA:2,_ZNSt6vectorIN7testing8internal25ParameterizedTestCaseInfoI13properties_p1E17InstantiationInfoESaIS5_EE3endEv
FNDA:2,_ZNSt6vectorIN7testing8internal10linked_ptrINS1_25ParameterizedTestCaseInfoI13properties_p1E8TestInfoEEESaIS7_EE3endEv
FNDA:6,_ZNSt6vectorIPN7testing8internal29ParameterizedTestCaseInfoBaseESaIS3_EE3endEv
FNDA:18,_ZNKSt6vectorISsSaISsEE3endEv
FNDA:5,_ZNKSt6vectorIN7testing8internal25ParameterizedTestCaseInfoI13properties_p1E17InstantiationInfoESaIS5_EE4sizeEv
FNDA:5,_ZNKSt6vectorIN7testing8internal10linked_ptrINS1_25ParameterizedTestCaseInfoI13properties_p1E8TestInfoEEESaIS7_EE4sizeEv
FNDA:5,_ZNKSt6vectorIPN7testing8internal29ParameterizedTestCaseInfoBaseESaIS3_EE4sizeEv
FNDA:4,_ZNKSt6vectorIN4opae7testing11test_deviceESaIS2_EE4sizeEv
FNDA:2,_ZNKSt6vectorIN7testing8internal25ParameterizedTestCaseInfoI13properties_p1E17InstantiationInfoESaIS5_EE8max_sizeEv
FNDA:2,_ZNKSt6vectorIN7testing8internal10linked_ptrINS1_25ParameterizedTestCaseInfoI13properties_p1E8TestInfoEEESaIS7_EE8max_sizeEv
FNDA:2,_ZNKSt6vectorIPN7testing8internal29ParameterizedTestCaseInfoBaseESaIS3_EE8max_sizeEv
FNDA:1,_ZNSt6vectorIN7testing8internal25ParameterizedTestCaseInfoI13properties_p1E17InstantiationInfoESaIS5_EE9push_backEOS5_
FNDA:1,_ZNSt6vectorIN7testing8internal10linked_ptrINS1_25ParameterizedTestCaseInfoI13properties_p1E8TestInfoEEESaIS7_EE9push_backEOS7_
FNDA:1,_ZNSt6vectorIPN7testing8internal29ParameterizedTestCaseInfoBaseESaIS3_EE9push_backEOS3_
FNDA:1,_ZNSt6vectorISsSaISsEE22_M_initialize_dispatchIN9__gnu_cxx17__normal_iteratorIPKSsS1_EEEEvT_S8_St12__false_type
FNDA:1,_ZNSt6vectorISsSaISsEE19_M_range_initializeIN9__gnu_cxx17__normal_iteratorIPKSsS1_EEEEvT_S8_St20forward_iterator_tag
FNDA:1,_ZNKSt6vectorIN7testing8internal25ParameterizedTestCaseInfoI13properties_p1E17InstantiationInfoESaIS5_EE12_M_check_lenEmPKc
FNDA:1,_ZNKSt6vectorIN7testing8internal10linked_ptrINS1_25ParameterizedTestCaseInfoI13properties_p1E8TestInfoEEESaIS7_EE12_M_check_lenEmPKc
FNDA:1,_ZNKSt6vectorIPN7testing8internal29ParameterizedTestCaseInfoBaseESaIS3_EE12_M_check_lenEmPKc
FNDA:1,_ZNSt6vectorIN4opae7testing11test_deviceESaIS2_EE14_M_move_assignEOS4_St17integral_constantIbLb1EE
FNF:72
FNH:72
DA:79,43
DA:86,3
DA:87,3
DA:88,3
DA:90,22
DA:91,22
DA:92,22
DA:101,3
DA:103,3
DA:104,3
DA:105,3
DA:106,3
DA:113,144
DA:114,144
DA:117,10
DA:118,10
DA:121,1
DA:122,1
DA:124,3
DA:125,3
DA:127,3
DA:128,3
DA:159,43
DA:160,43
DA:161,86
DA:167,54
DA:168,54
DA:171,81
DA:173,81
DA:174,56
DA:175,81
DA:248,3
DA:249,3
DA:256,1
DA:257,1
DA:392,1
DA:394,1
DA:395,1
DA:414,43
DA:415,43
DA:416,86
DA:439,1
DA:443,1
DA:444,1
DA:445,1
DA:446,1
DA:538,6
DA:539,6
DA:547,17
DA:548,17
DA:556,10
DA:557,10
DA:565,18
DA:566,18
DA:645,19
DA:646,19
DA:650,6
DA:651,6
DA:919,3
DA:920,3
DA:1172,1
DA:1177,1
DA:1178,1
DA:1197,1
DA:1200,1
DA:1201,1
DA:1202,1
DA:1203,1
DA:1206,1
DA:1207,1
DA:1336,3
DA:1338,3
DA:1339,0
DA:1341,3
DA:1342,3
DA:1362,1
DA:1364,1
DA:1365,1
DA:1366,1
DA:1367,1
DA:1368,1
DA:1369,2
DA:1370,1
LF:83
LH:82
end_of_record
SF:/usr/include/c++/4.8/bits/vector.tcc
FN:91,_ZNSt6vectorIPN7testing8internal29ParameterizedTestCaseInfoBaseESaIS3_EE12emplace_backIIS3_EEEvDpOT_
FN:91,_ZNSt6vectorIN7testing8internal25ParameterizedTestCaseInfoI13properties_p1E17InstantiationInfoESaIS5_EE12emplace_backIIS5_EEEvDpOT_
FN:91,_ZNSt6vectorIN7testing8internal10linked_ptrINS1_25ParameterizedTestCaseInfoI13properties_p1E8TestInfoEEESaIS7_EE12emplace_backIIS7_EEEvDpOT_
FN:399,_ZNSt6vectorIPN7testing8internal29ParameterizedTestCaseInfoBaseESaIS3_EE19_M_emplace_back_auxIIS3_EEEvDpOT_
FN:399,_ZNSt6vectorIN7testing8internal10linked_ptrINS1_25ParameterizedTestCaseInfoI13properties_p1E8TestInfoEEESaIS7_EE19_M_emplace_back_auxIIS7_EEEvDpOT_
FN:399,_ZNSt6vectorIN7testing8internal25ParameterizedTestCaseInfoI13properties_p1E17InstantiationInfoESaIS5_EE19_M_emplace_back_auxIIS5_EEEvDpOT_
FNDA:1,_ZNSt6vectorIN7testing8internal25ParameterizedTestCaseInfoI13properties_p1E17InstantiationInfoESaIS5_EE12emplace_backIIS5_EEEvDpOT_
FNDA:1,_ZNSt6vectorIN7testing8internal10linked_ptrINS1_25ParameterizedTestCaseInfoI13properties_p1E8TestInfoEEESaIS7_EE12emplace_backIIS7_EEEvDpOT_
FNDA:1,_ZNSt6vectorIPN7testing8internal29ParameterizedTestCaseInfoBaseESaIS3_EE12emplace_backIIS3_EEEvDpOT_
FNDA:1,_ZNSt6vectorIN7testing8internal25ParameterizedTestCaseInfoI13properties_p1E17InstantiationInfoESaIS5_EE19_M_emplace_back_auxIIS5_EEEvDpOT_
FNDA:1,_ZNSt6vectorIN7testing8internal10linked_ptrINS1_25ParameterizedTestCaseInfoI13properties_p1E8TestInfoEEESaIS7_EE19_M_emplace_back_auxIIS7_EEEvDpOT_
FNDA:1,_ZNSt6vectorIPN7testing8internal29ParameterizedTestCaseInfoBaseESaIS3_EE19_M_emplace_back_auxIIS3_EEEvDpOT_
FNF:6
FNH:6
DA:91,3
DA:94,3
DA:96,0
DA:97,0
DA:98,0
DA:101,3
DA:102,3
DA:399,3
DA:403,3
DA:404,3
DA:405,3
DA:408,6
DA:409,6
DA:410,3
DA:412,3
DA:415,3
DA:417,3
DA:419,=====
DA:421,=====
DA:422,=====
DA:424,=====
DA:425,=====
DA:426,=====
DA:428,3
DA:429,3
DA:430,3
DA:432,3
DA:433,3
DA:434,3
DA:435,3
DA:436,3
LF:31
LH:22
end_of_record
SF:/usr/include/c++/4.8/ext/alloc_traits.h
FN:175,_ZN9__gnu_cxx14__alloc_traitsISaIN4opae7testing11test_deviceEEE27_S_propagate_on_move_assignEv
FNDA:1,_ZN9__gnu_cxx14__alloc_traitsISaIN4opae7testing11test_deviceEEE27_S_propagate_on_move_assignEv
FNF:1
FNH:1
DA:175,1
DA:176,1
LF:2
LH:2
end_of_record
SF:/usr/include/c++/4.8/ext/atomicity.h
FN:48,_ZN9__gnu_cxxL18__exchange_and_addEPVii
FN:65,_ZN9__gnu_cxxL25__exchange_and_add_singleEPii
FN:78,_ZN9__gnu_cxxL27__exchange_and_add_dispatchEPii
FNDA:0,_ZN9__gnu_cxxL18__exchange_and_addEPVii
FNDA:0,_ZN9__gnu_cxxL25__exchange_and_add_singleEPii
FNDA:0,_ZN9__gnu_cxxL27__exchange_and_add_dispatchEPii
FNF:3
FNH:0
DA:48,0
DA:49,0
DA:65,0
DA:67,0
DA:68,0
DA:69,0
DA:78,0
DA:81,0
DA:82,0
DA:84,0
LF:10
LH:0
end_of_record
SF:/usr/include/c++/4.8/ext/new_allocator.h
FN:79,_ZN9__gnu_cxx13new_allocatorISsEC2Ev
FN:79,_ZN9__gnu_cxx13new_allocatorIN7testing8internal25ParameterizedTestCaseInfoI13properties_p1E17InstantiationInfoEEC2Ev
FN:79,_ZN9__gnu_cxx13new_allocatorIN7testing8internal10linked_ptrINS2_25ParameterizedTestCaseInfoI13properties_p1E8TestInfoEEEEC2Ev
FN:79,_ZN9__gnu_cxx13new_allocatorIN4opae7testing11test_deviceEEC2Ev
FN:79,_ZN9__gnu_cxx13new_allocatorISt13_Rb_tree_nodeISsEEC2Ev
FN:79,_ZN9__gnu_cxx13new_allocatorIcEC2Ev
FN:81,_ZN9__gnu_cxx13new_allocatorISsEC2ERKS1_
FN:81,_ZN9__gnu_cxx13new_allocatorIN4opae7testing11test_deviceEEC2ERKS4_
FN:81,_ZN9__gnu_cxx13new_allocatorIcEC2ERKS1_
FN:86,_ZN9__gnu_cxx13new_allocatorIN7testing8internal10linked_ptrINS2_25ParameterizedTestCaseInfoI13properties_p1E8TestInfoEEEED2Ev
FN:86,_ZN9__gnu_cxx13new_allocatorISt13_Rb_tree_nodeISsEED2Ev
FN:86,_ZN9__gnu_cxx13new_allocatorISsED2Ev
FN:86,_ZN9__gnu_cxx13new_allocatorIN7testing8internal25ParameterizedTestCaseInfoI13properties_p1E17InstantiationInfoEED2Ev
FN:86,_ZN9__gnu_cxx13new_allocatorIN4opae7testing11test_deviceEED2Ev
FN:86,_ZN9__gnu_cxx13new_allocatorIcED2Ev
FN:99,_ZN9__gnu_cxx13new_allocatorISsE8allocateEmPKv
FN:99,_ZN9__gnu_cxx13new_allocatorISt13_Rb_tree_nodeISsEE8allocateEmPKv
FN:99,_ZN9__gnu_cxx13new_allocatorIN7testing8internal10linked_ptrINS2_25ParameterizedTestCaseInfoI13properties_p1E8TestInfoEEEE8allocateEmPKv
FN:99,_ZN9__gnu_cxx13new_allocatorIPN7testing8internal29ParameterizedTestCaseInfoBaseEE8allocateEmPKv
FN:99,_ZN9__gnu_cxx13new_allocatorIN7testing8internal25ParameterizedTestCaseInfoI13properties_p1E17InstantiationInfoEE8allocateEmPKv
FN:109,_ZN9__gnu_cxx13new_allocatorIPN7testing8internal29ParameterizedTestCaseInfoBaseEE10deallocateEPS4_m
FN:109,_ZN9__gnu_cxx13new_allocatorISt13_Rb_tree_nodeISsEE10deallocateEPS2_m
FN:109,_ZN9__gnu_cxx13new_allocatorIN7testing8internal10linked_ptrINS2_25ParameterizedTestCaseInfoI13properties_p1E8TestInfoEEEE10deallocateEPS8_m
FN:109,_ZN9__gnu_cxx13new_allocatorISsE10deallocateEPSsm
FN:109,_ZN9__gnu_cxx13new_allocatorIN4opae7testing11test_deviceEE10deallocateEPS3_m
FN:109,_ZN9__gnu_cxx13new_allocatorIN7testing8internal25ParameterizedTestCaseInfoI13properties_p1E17InstantiationInfoEE10deallocateEPS6_m
FN:113,_ZNK9__gnu_cxx13new_allocatorIN7testing8internal10linked_ptrINS2_25ParameterizedTestCaseInfoI13properties_p1E8TestInfoEEEE8max_sizeEv
FN:113,_ZNK9__gnu_cxx13new_allocatorIPN7testing8internal29ParameterizedTestCaseInfoBaseEE8max_sizeEv
FN:113,_ZNK9__gnu_cxx13new_allocatorIN7testing8internal25ParameterizedTestCaseInfoI13properties_p1E17InstantiationInfoEE8max_sizeEv
FN:113,_ZNK9__gnu_cxx13new_allocatorISsE8max_sizeEv
FN:113,_ZNK9__gnu_cxx13new_allocatorISt13_Rb_tree_nodeISsEE8max_sizeEv
FN:119,_ZN9__gnu_cxx13new_allocatorISt13_Rb_tree_nodeISsEE9constructIS2_IRKSsEEEvPT_DpOT0_
FN:119,_ZN9__gnu_cxx13new_allocatorIN7testing8internal10linked_ptrINS2_25ParameterizedTestCaseInfoI13properties_p1E8TestInfoEEEE9constructIS8_IS8_EEEvPT_DpOT0_
FN:119,_ZN9__gnu_cxx13new_allocatorIN7testing8internal25ParameterizedTestCaseInfoI13properties_p1E17InstantiationInfoEE9constructIS6_IS6_EEEvPT_DpOT0_
FN:119,_ZN9__gnu_cxx13new_allocatorIPN7testing8internal29ParameterizedTestCaseInfoBaseEE9constructIS4_IS4_EEEvPT_DpOT0_
FN:124,_ZN9__gnu_cxx13new_allocatorIN7testing8internal10linked_ptrINS2_25ParameterizedTestCaseInfoI13properties_p1E8TestInfoEEEE7destroyIS8_EEvPT_
FN:124,_ZN9__gnu_cxx13new_allocatorIN7testing8internal25ParameterizedTestCaseInfoI13properties_p1E17InstantiationInfoEE7destroyIS6_EEvPT_
FN:124,_ZN9__gnu_cxx13new_allocatorIPN7testing8internal29ParameterizedTestCaseInfoBaseEE7destroyIS4_EEvPT_
FN:124,_ZN9__gnu_cxx13new_allocatorISt13_Rb_tree_nodeISsEE7destroyIS2_EEvPT_
FNDA:1,_ZN9__gnu_cxx13new_allocatorISt13_Rb_tree_nodeISsEEC2Ev
FNDA:1,_ZN9__gnu_cxx13new_allocatorIN7testing8internal25ParameterizedTestCaseInfoI13properties_p1E17InstantiationInfoEEC2Ev
FNDA:1,_ZN9__gnu_cxx13new_allocatorIN7testing8internal10linked_ptrINS2_25ParameterizedTestCaseInfoI13properties_p1E8TestInfoEEEEC2Ev
FNDA:21,_ZN9__gnu_cxx13new_allocatorISsEC2Ev
FNDA:2,_ZN9__gnu_cxx13new_allocatorIN4opae7testing11test_deviceEEC2Ev
FNDA:0,_ZN9__gnu_cxx13new_allocatorIcEC2Ev
FNDA:32,_ZN9__gnu_cxx13new_allocatorISsEC2ERKS1_
FNDA:10,_ZN9__gnu_cxx13new_allocatorIN4opae7testing11test_deviceEEC2ERKS4_
FNDA:0,_ZN9__gnu_cxx13new_allocatorIcEC2ERKS1_
FNDA:1,_ZN9__gnu_cxx13new_allocatorISt13_Rb_tree_nodeISsEED2Ev
FNDA:1,_ZN9__gnu_cxx13new_allocatorIN7testing8internal25ParameterizedTestCaseInfoI13properties_p1E17InstantiationInfoEED2Ev
FNDA:1,_ZN9__gnu_cxx13new_allocatorIN7testing8internal10linked_ptrINS2_25ParameterizedTestCaseInfoI13properties_p1E8TestInfoEEEED2Ev
FNDA:52,_ZN9__gnu_cxx13new_allocatorISsED2Ev
FNDA:11,_ZN9__gnu_cxx13new_allocatorIN4opae7testing11test_deviceEED2Ev
FNDA:0,_ZN9__gnu_cxx13new_allocatorIcED2Ev
FNDA:1,_ZN9__gnu_cxx13new_allocatorISt13_Rb_tree_nodeISsEE8allocateEmPKv
FNDA:51,_ZN9__gnu_cxx13new_allocatorISsE8allocateEmPKv
FNDA:1,_ZN9__gnu_cxx13new_allocatorIN7testing8internal25ParameterizedTestCaseInfoI13properties_p1E17InstantiationInfoEE8allocateEmPKv
FNDA:1,_ZN9__gnu_cxx13new_allocatorIN7testing8internal10linked_ptrINS2_25ParameterizedTestCaseInfoI13properties_p1E8TestInfoEEEE8allocateEmPKv
FNDA:1,_ZN9__gnu_cxx13new_allocatorIPN7testing8internal29ParameterizedTestCaseInfoBaseEE8allocateEmPKv
FNDA:1,_ZN9__gnu_cxx13new_allocatorISt13_Rb_tree_nodeISsEE10deallocateEPS2_m
FNDA:1,_ZN9__gnu_cxx13new_allocatorIN7testing8internal25ParameterizedTestCaseInfoI13properties_p1E17InstantiationInfoEE10deallocateEPS6_m
FNDA:1,_ZN9__gnu_cxx13new_allocatorIN7testing8internal10linked_ptrINS2_25ParameterizedTestCaseInfoI13properties_p1E8TestInfoEEEE10deallocateEPS8_m
FNDA:50,_ZN9__gnu_cxx13new_allocatorISsE10deallocateEPSsm
FNDA:3,_ZN9__gnu_cxx13new_allocatorIN4opae7testing11test_deviceEE10deallocateEPS3_m
FNDA:1,_ZN9__gnu_cxx13new_allocatorIPN7testing8internal29ParameterizedTestCaseInfoBaseEE10deallocateEPS4_m
FNDA:1,_ZNK9__gnu_cxx13new_allocatorISt13_Rb_tree_nodeISsEE8max_sizeEv
FNDA:119,_ZNK9__gnu_cxx13new_allocatorISsE8max_sizeEv
FNDA:3,_ZNK9__gnu_cxx13new_allocatorIN7testing8internal25ParameterizedTestCaseInfoI13properties_p1E17InstantiationInfoEE8max_sizeEv
FNDA:3,_ZNK9__gnu_cxx13new_allocatorIN7testing8internal10linked_ptrINS2_25ParameterizedTestCaseInfoI13properties_p1E8TestInfoEEEE8max_sizeEv
FNDA:3,_ZNK9__gnu_cxx13new_allocatorIPN7testing8internal29ParameterizedTestCaseInfoBaseEE8max_sizeEv
FNDA:1,_ZN9__gnu_cxx13new_allocatorISt13_Rb_tree_nodeISsEE9constructIS2_IRKSsEEEvPT_DpOT0_
FNDA:1,_ZN9__gnu_cxx13new_allocatorIN7testing8internal25ParameterizedTestCaseInfoI13properties_p1E17InstantiationInfoEE9constructIS6_IS6_EEEvPT_DpOT0_
FNDA:1,_ZN9__gnu_cxx13new_allocatorIN7testing8internal10linked_ptrINS2_25ParameterizedTestCaseInfoI13properties_p1E8TestInfoEEEE9constructIS8_IS8_EEEvPT_DpOT0_
FNDA:1,_ZN9__gnu_cxx13new_allocatorIPN7testing8internal29ParameterizedTestCaseInfoBaseEE9constructIS4_IS4_EEEvPT_DpOT0_
FNDA:1,_ZN9__gnu_cxx13new_allocatorISt13_Rb_tree_nodeISsEE7destroyIS2_EEvPT_
FNDA:0,_ZN9__gnu_cxx13new_allocatorIN7testing8internal25ParameterizedTestCaseInfoI13properties_p1E17InstantiationInfoEE7destroyIS6_EEvPT_
FNDA:0,_ZN9__gnu_cxx13new_allocatorIN7testing8internal10linked_ptrINS2_25ParameterizedTestCaseInfoI13properties_p1E8TestInfoEEEE7destroyIS8_EEvPT_
FNDA:0,_ZN9__gnu_cxx13new_allocatorIPN7testing8internal29ParameterizedTestCaseInfoBaseEE7destroyIS4_EEvPT_
FNF:39
FNH:33
DA:79,26
DA:81,42
DA:86,66
DA:99,55
DA:101,55
DA:102,0
DA:104,55
DA:109,57
DA:110,57
DA:113,129
DA:114,129
DA:119,4
DA:120,4
DA:124,1
LF:14
LH:13
end_of_record
SF:/usr/include/c++/4.8/ext/type_traits.h
FN:150,_ZN9__gnu_cxx17__is_null_pointerIcEEbPT_
FNDA:0,_ZN9__gnu_cxx17__is_null_pointerIcEEbPT_
FNF:1
FNH:0
DA:150,0
DA:151,0
LF:2
LH:0
end_of_record
SF:/usr/include/c++/4.8/iostream
DA:74,1
LF:1
LH:1
end_of_record
SF:/usr/include/c++/4.8/new
FN:109,_ZnwmPv
FN:115,_ZdlPvS_
FNDA:121,_ZnwmPv
FNDA:0,_ZdlPvS_
FNF:2
FNH:1
DA:109,121
DA:110,121
DA:115,0
LF:3
LH:2
end_of_record
SF:/usr/include/c++/4.8/sstream
FN:64,_ZNSt15basic_stringbufIcSt11char_traitsIcESaIcEED2Ev
FN:64,_ZNSt15basic_stringbufIcSt11char_traitsIcESaIcEED0Ev
FNDA:0,_ZNSt15basic_stringbufIcSt11char_traitsIcESaIcEED0Ev
FNDA:0,_ZNSt15basic_stringbufIcSt11char_traitsIcESaIcEED2Ev
FNF:2
FNH:0
DA:64,0
LF:1
LH:0
end_of_record
SF:/usr/include/c++/4.8/typeinfo
FN:120,_ZNKSt9type_infoeqERKS_
FNDA:3,_ZNKSt9type_infoeqERKS_
FNF:1
FNH:1
DA:120,3
DA:122,3
DA:123,3
DA:124,3
LF:4
LH:4
end_of_record
SF:/usr/include/x86_64-linux-gnu/c++/4.8/bits/gthr-default.h
FN:247,_ZL18__gthread_active_pv
FNDA:0,_ZL18__gthread_active_pv
FNF:1
FNH:0
DA:247,0
DA:251,0
LF:2
LH:0
end_of_record
SF:/usr/local/include/gtest/gtest-message.h
FN:85,_ZN7testing7MessageD2Ev
FN:115,_ZN7testing7MessagelsISsEERS0_RKT_
FN:115,_ZN7testing7MessagelsImEERS0_RKT_
FN:115,_ZN7testing7MessagelsIA2_cEERS0_RKT_
FNDA:49,_ZN7testing7MessageD2Ev
FNDA:1,_ZN7testing7MessagelsIA2_cEERS0_RKT_
FNDA:2,_ZN7testing7MessagelsISsEERS0_RKT_
FNDA:1,_ZN7testing7MessagelsImEERS0_RKT_
FNF:4
FNH:4
DA:85,49
DA:115,4
DA:131,4
DA:132,4
LF:4
LH:4
end_of_record
SF:/usr/local/include/gtest/gtest-param-test.h
FN:310,_ZN7testing8ValuesInIN9__gnu_cxx17__normal_iteratorIPKSsSt6vectorISsSaISsEEEEEENS_8internal14ParamGeneratorINS9_14IteratorTraitsIT_E10value_typeEEESC_SC_
FN:323,_ZN7testing8ValuesInISt6vectorISsSaISsEEEENS_8internal14ParamGeneratorINT_10value_typeEEERKS6_
FNDA:1,_ZN7testing8ValuesInIN9__gnu_cxx17__normal_iteratorIPKSsSt6vectorISsSaISsEEEEEENS_8internal14ParamGeneratorINS9_14IteratorTraitsIT_E10value_typeEEESC_SC_
FNDA:1,_ZN7testing8ValuesInISt6vectorISsSaISsEEEENS_8internal14ParamGeneratorINT_10value_typeEEERKS6_
FNF:2
FNH:2
DA:310,1
DA:314,1
DA:323,1
DA:325,1
LF:4
LH:4
end_of_record
SF:/usr/local/include/gtest/gtest-printers.h
FN:172,_ZN7testing9internal220TypeWithoutFormatterI11fpga_resultLNS0_8TypeKindE1EE10PrintValueERKS2_PSo
FN:203,_ZN7testing9internal2lsIcSt11char_traitsIcE11fpga_resultEERSt13basic_ostreamIT_T0_ES9_RKT1_
FN:222,_ZN16testing_internal26DefaultPrintNonContainerToImEEvRKT_PSo
FN:222,_ZN16testing_internal26DefaultPrintNonContainerToIjEEvRKT_PSo
FN:222,_ZN16testing_internal26DefaultPrintNonContainerToI11fpga_resultEEvRKT_PSo
FN:275,_ZN7testing8internal19FormatForComparisonImjE6FormatERKm
FN:275,_ZN7testing8internal19FormatForComparisonIjmE6FormatERKj
FN:275,_ZN7testing8internal19FormatForComparisonI11fpga_resultS2_E6FormatERKS2_
FN:349,_ZN7testing8internal33FormatForComparisonFailureMessageImjEESsRKT_RKT0_
FN:349,_ZN7testing8internal33FormatForComparisonFailureMessageI11fpga_resultS2_EESsRKT_RKT0_
FN:349,_ZN7testing8internal33FormatForComparisonFailureMessageIjmEESsRKT_RKT0_
FN:442,_ZN7testing8internal14DefaultPrintToImEEvNS0_15WrapPrinterTypeILNS0_18DefaultPrinterTypeE3EEERKT_PSo
FN:442,_ZN7testing8internal14DefaultPrintToIjEEvNS0_15WrapPrinterTypeILNS0_18DefaultPrinterTypeE3EEERKT_PSo
FN:442,_ZN7testing8internal14DefaultPrintToI11fpga_resultEEvNS0_15WrapPrinterTypeILNS0_18DefaultPrinterTypeE3EEERKT_PSo
FN:459,_ZN7testing8internal7PrintToImEEvRKT_PSo
FN:459,_ZN7testing8internal7PrintToI11fpga_resultEEvRKT_PSo
FN:459,_ZN7testing8internal7PrintToIjEEvRKT_PSo
FN:578,_ZN7testing8internal7PrintToERKSsPSo
FN:711,_ZN7testing8internal16UniversalPrinterISsE5PrintERKSsPSo
FN:711,_ZN7testing8internal16UniversalPrinterI11fpga_resultE5PrintERKS2_PSo
FN:711,_ZN7testing8internal16UniversalPrinterIjE5PrintERKjPSo
FN:711,_ZN7testing8internal16UniversalPrinterImE5PrintERKmPSo
FN:796,_ZN7testing8internal21UniversalTersePrinterI11fpga_resultE5PrintERKS2_PSo
FN:796,_ZN7testing8internal21UniversalTersePrinterISsE5PrintERKSsPSo
FN:796,_ZN7testing8internal21UniversalTersePrinterIjE5PrintERKjPSo
FN:796,_ZN7testing8internal21UniversalTersePrinterImE5PrintERKmPSo
FN:865,_ZN7testing8internal14UniversalPrintImEEvRKT_PSo
FN:865,_ZN7testing8internal14UniversalPrintISsEEvRKT_PSo
FN:865,_ZN7testing8internal14UniversalPrintI11fpga_resultEEvRKT_PSo
FN:865,_ZN7testing8internal14UniversalPrintIjEEvRKT_PSo
FN:993,_ZN7testing13PrintToStringImEESsRKT_
FN:993,_ZN7testing13PrintToStringI11fpga_resultEESsRKT_
FN:993,_ZN7testing13PrintToStringISsEESsRKT_
FN:993,_ZN7testing13PrintToStringIjEESsRKT_
FNDA:0,_ZN7testing9internal220TypeWithoutFormatterI11fpga_resultLNS0_8TypeKindE1EE10PrintValueERKS2_PSo
FNDA:0,_ZN7testing9internal2lsIcSt11char_traitsIcE11fpga_resultEERSt13basic_ostreamIT_T0_ES9_RKT1_
FNDA:0,_ZN16testing_internal26DefaultPrintNonContainerToImEEvRKT_PSo
FNDA:0,_ZN16testing_internal26DefaultPrintNonContainerToIjEEvRKT_PSo
FNDA:0,_ZN16testing_internal26DefaultPrintNonContainerToI11fpga_resultEEvRKT_PSo
FNDA:0,_ZN7testing8internal19FormatForComparisonImjE6FormatERKm
FNDA:0,_ZN7testing8internal19FormatForComparisonIjmE6FormatERKj
FNDA:0,_ZN7testing8internal19FormatForComparisonI11fpga_resultS2_E6FormatERKS2_
FNDA:0,_ZN7testing8internal33FormatForComparisonFailureMessageImjEESsRKT_RKT0_
FNDA:0,_ZN7testing8internal33FormatForComparisonFailureMessageIjmEESsRKT_RKT0_
FNDA:0,_ZN7testing8internal33FormatForComparisonFailureMessageI11fpga_resultS2_EESsRKT_RKT0_
FNDA:0,_ZN7testing8internal14DefaultPrintToImEEvNS0_15WrapPrinterTypeILNS0_18DefaultPrinterTypeE3EEERKT_PSo
FNDA:0,_ZN7testing8internal14DefaultPrintToIjEEvNS0_15WrapPrinterTypeILNS0_18DefaultPrinterTypeE3EEERKT_PSo
FNDA:0,_ZN7testing8internal14DefaultPrintToI11fpga_resultEEvNS0_15WrapPrinterTypeILNS0_18DefaultPrinterTypeE3EEERKT_PSo
FNDA:0,_ZN7testing8internal7PrintToImEEvRKT_PSo
FNDA:0,_ZN7testing8internal7PrintToIjEEvRKT_PSo
FNDA:0,_ZN7testing8internal7PrintToI11fpga_resultEEvRKT_PSo
FNDA:1,_ZN7testing8internal7PrintToERKSsPSo
FNDA:0,_ZN7testing8internal16UniversalPrinterImE5PrintERKmPSo
FNDA:0,_ZN7testing8internal16UniversalPrinterIjE5PrintERKjPSo
FNDA:0,_ZN7testing8internal16UniversalPrinterI11fpga_resultE5PrintERKS2_PSo
FNDA:1,_ZN7testing8internal16UniversalPrinterISsE5PrintERKSsPSo
FNDA:1,_ZN7testing8internal21UniversalTersePrinterISsE5PrintERKSsPSo
FNDA:0,_ZN7testing8internal21UniversalTersePrinterImE5PrintERKmPSo
FNDA:0,_ZN7testing8internal21UniversalTersePrinterIjE5PrintERKjPSo
FNDA:0,_ZN7testing8internal21UniversalTersePrinterI11fpga_resultE5PrintERKS2_PSo
FNDA:0,_ZN7testing8internal14UniversalPrintImEEvRKT_PSo
FNDA:0,_ZN7testing8internal14UniversalPrintIjEEvRKT_PSo
FNDA:0,_ZN7testing8internal14UniversalPrintI11fpga_resultEEvRKT_PSo
FNDA:1,_ZN7testing8internal14UniversalPrintISsEEvRKT_PSo
FNDA:1,_ZN7testing13PrintToStringISsEESsRKT_
FNDA:0,_ZN7testing13PrintToStringImEESsRKT_
FNDA:0,_ZN7testing13PrintToStringIjEESsRKT_
FNDA:0,_ZN7testing13PrintToStringI11fpga_resultEESsRKT_
FNF:34
FNH:5
DA:172,0
DA:173,0
DA:174,0
DA:175,0
DA:203,0
DA:205,0
DA:209,0
DA:222,0
DA:249,0
DA:250,0
DA:275,0
DA:276,0
DA:349,0
DA:351,0
DA:442,0
DA:444,0
DA:445,0
DA:459,0
DA:479,0
DA:490,0
DA:491,0
DA:578,1
DA:579,1
DA:580,1
DA:711,1
DA:720,1
DA:721,1
DA:796,1
DA:797,1
DA:798,1
DA:865,1
DA:869,1
DA:870,1
DA:993,1
DA:994,1
DA:995,1
DA:996,1
LF:37
LH:16
end_of_record
SF:/usr/local/include/gtest/gtest.h
FN:256,_ZN7testing15AssertionResultD2Ev
FN:272,_ZN7testing15AssertionResultC2IbEERKT_PNS_8internal8EnableIfIXntsrNS5_21ImplicitlyConvertibleIS2_S0_EE5valueEE4typeE
FN:288,_ZNK7testing15AssertionResultcvbEv
FN:297,_ZNK7testing15AssertionResult7messageEv
FN:302,_ZNK7testing15AssertionResult15failure_messageEv
FN:389,_ZN7testing4Test13SetUpTestCaseEv
FN:397,_ZN7testing4Test16TearDownTestCaseEv
FN:474,_ZN7testing4Test5SetupEv
FN:1375,_ZN7testing8internal18CmpHelperEQFailureIjmEENS_15AssertionResultEPKcS4_RKT_RKT0_
FN:1375,_ZN7testing8internal18CmpHelperEQFailureI11fpga_resultS2_EENS_15AssertionResultEPKcS5_RKT_RKT0_
FN:1387,_ZN7testing8internal11CmpHelperEQIjmEENS_15AssertionResultEPKcS4_RKT_RKT0_
FN:1387,_ZN7testing8internal11CmpHelperEQI11fpga_resultS2_EENS_15AssertionResultEPKcS5_RKT_RKT0_
FN:1417,_ZN7testing8internal8EqHelperILb0EE7CompareIjmEENS_15AssertionResultEPKcS6_RKT_RKT0_
FN:1417,_ZN7testing8internal8EqHelperILb0EE7CompareI11fpga_resultS4_EENS_15AssertionResultEPKcS7_RKT_RKT0_
FN:1745,_ZN7testing18WithParamInterfaceISsEC2Ev
FN:1748,_ZN7testing18WithParamInterfaceISsED2Ev
FN:1748,_ZN7testing18WithParamInterfaceISsED0Ev
FN:1755,_ZNK7testing18WithParamInterfaceISsE8GetParamEv
FN:1765,_ZN7testing18WithParamInterfaceISsE8SetParamEPKSs
FN:1783,_ZN7testing13TestWithParamISsED2Ev
FN:1783,_ZN7testing13TestWithParamISsED0Ev
FN:1783,_ZN7testing13TestWithParamISsEC2Ev
FNDA:13,_ZN7testing15AssertionResultD2Ev
FNDA:13,_ZN7testing15AssertionResultC2IbEERKT_PNS_8internal8EnableIfIXntsrNS5_21ImplicitlyConvertibleIS2_S0_EE5valueEE4typeE
FNDA:13,_ZNK7testing15AssertionResultcvbEv
FNDA:0,_ZNK7testing15AssertionResult7messageEv
FNDA:0,_ZNK7testing15AssertionResult15failure_messageEv
FNDA:2,_ZN7testing4Test13SetUpTestCaseEv
FNDA:2,_ZN7testing4Test16TearDownTestCaseEv
FNDA:0,_ZN7testing4Test5SetupEv
FNDA:0,_ZN7testing8internal18CmpHelperEQFailureIjmEENS_15AssertionResultEPKcS4_RKT_RKT0_
FNDA:0,_ZN7testing8internal18CmpHelperEQFailureI11fpga_resultS2_EENS_15AssertionResultEPKcS5_RKT_RKT0_
FNDA:1,_ZN7testing8internal11CmpHelperEQIjmEENS_15AssertionResultEPKcS4_RKT_RKT0_
FNDA:11,_ZN7testing8internal11CmpHelperEQI11fpga_resultS2_EENS_15AssertionResultEPKcS5_RKT_RKT0_
FNDA:1,_ZN7testing8internal8EqHelperILb0EE7CompareIjmEENS_15AssertionResultEPKcS6_RKT_RKT0_
FNDA:11,_ZN7testing8internal8EqHelperILb0EE7CompareI11fpga_resultS4_EENS_15AssertionResultEPKcS7_RKT_RKT0_
FNDA:1,_ZN7testing18WithParamInterfaceISsEC2Ev
FNDA:0,_ZN7testing18WithParamInterfaceISsED0Ev
FNDA:1,_ZN7testing18WithParamInterfaceISsED2Ev
FNDA:2,_ZNK7testing18WithParamInterfaceISsE8GetParamEv
FNDA:1,_ZN7testing18WithParamInterfaceISsE8SetParamEPKSs
FNDA:0,_ZN7testing13TestWithParamISsED0Ev
FNDA:1,_ZN7testing13TestWithParamISsED2Ev
FNDA:1,_ZN7testing13TestWithParamISsEC2Ev
FNF:22
FNH:15
DA:256,13
DA:272,13
DA:277,13
DA:288,13
DA:297,0
DA:298,0
DA:302,0
DA:389,2
DA:397,2
DA:474,0
DA:1375,0
DA:1382,0
DA:1387,12
DA:1392,12
DA:1393,12
DA:1397,0
DA:1417,12
DA:1421,12
DA:1745,1
DA:1748,1
DA:1755,2
DA:1756,2
DA:1757,0
DA:1759,2
DA:1765,1
DA:1766,1
DA:1767,1
DA:1783,2
LF:28
LH:20
end_of_record
SF:/usr/local/include/gtest/internal/gtest-internal.h
FN:447,_ZN7testing8internal9GetTypeIdI13properties_p1EEPKvv
FN:466,_ZN7testing8internal15TestFactoryBaseD2Ev
FN:466,_ZN7testing8internal15TestFactoryBaseD0Ev
FN:473,_ZN7testing8internal15TestFactoryBaseC2Ev
FN:482,_ZN7testing8internal15TestFactoryImplI37properties_fpga_get_properties01_TestEC2Ev
FN:482,_ZN7testing8internal15TestFactoryImplI37properties_fpga_get_properties01_TestED2Ev
FN:482,_ZN7testing8internal15TestFactoryImplI37properties_fpga_get_properties01_TestED0Ev
FN:484,_ZN7testing8internal15TestFactoryImplI37properties_fpga_get_properties01_TestE10CreateTestEv
FN:504,_ZN7testing8internal12CodeLocationC2ERKS1_
FN:504,_ZN7testing8internal12CodeLocationD2Ev
FN:505,_ZN7testing8internal12CodeLocationC2ERKSsi
FNDA:3,_ZN7testing8internal9GetTypeIdI13properties_p1EEPKvv
FNDA:0,_ZN7testing8internal15TestFactoryBaseD0Ev
FNDA:2,_ZN7testing8internal15TestFactoryBaseD2Ev
FNDA:2,_ZN7testing8internal15TestFactoryBaseC2Ev
FNDA:1,_ZN7testing8internal15TestFactoryImplI37properties_fpga_get_properties01_TestED0Ev
FNDA:1,_ZN7testing8internal15TestFactoryImplI37properties_fpga_get_properties01_TestED2Ev
FNDA:1,_ZN7testing8internal15TestFactoryImplI37properties_fpga_get_properties01_TestEC2Ev
FNDA:1,_ZN7testing8internal15TestFactoryImplI37properties_fpga_get_properties01_TestE10CreateTestEv
FNDA:7,_ZN7testing8internal12CodeLocationC2ERKS1_
FNDA:10,_ZN7testing8internal12CodeLocationD2Ev
FNDA:3,_ZN7testing8internal12CodeLocationC2ERKSsi
FNF:11
FNH:10
DA:447,3
DA:452,3
DA:466,2
DA:473,2
DA:482,3
DA:484,1
DA:504,17
DA:505,3
DA:506,3
LF:9
LH:9
end_of_record
SF:/usr/local/include/gtest/internal/gtest-linked_ptr.h
FN:92,_ZN7testing8internal19linked_ptr_internal8join_newEv
FN:108,_ZN7testing8internal19linked_ptr_internal4joinEPKS1_
FN:125,_ZN7testing8internal19linked_ptr_internal6departEv
FN:152,_ZN7testing8internal10linked_ptrINS0_25ParameterizedTestCaseInfoI13properties_p1E8TestInfoEEC2EPS5_
FN:152,_ZN7testing8internal10linked_ptrIKNS0_23ParamGeneratorInterfaceISsEEEC2EPS4_
FN:153,_ZN7testing8internal10linked_ptrINS0_25ParameterizedTestCaseInfoI13properties_p1E8TestInfoEED2Ev
FN:153,_ZN7testing8internal10linked_ptrIKNS0_23ParamGeneratorInterfaceISsEEED2Ev
FN:157,_ZN7testing8internal10linked_ptrINS0_25ParameterizedTestCaseInfoI13properties_p1E8TestInfoEEC2ERKS6_
FN:182,_ZNK7testing8internal10linked_ptrINS0_25ParameterizedTestCaseInfoI13properties_p1E8TestInfoEE3getEv
FN:183,_ZNK7testing8internal10linked_ptrIKNS0_23ParamGeneratorInterfaceISsEEEptEv
FN:183,_ZNK7testing8internal10linked_ptrINS0_25ParameterizedTestCaseInfoI13properties_p1E8TestInfoEEptEv
FN:204,_ZN7testing8internal10linked_ptrINS0_25ParameterizedTestCaseInfoI13properties_p1E8TestInfoEE6departEv
FN:204,_ZN7testing8internal10linked_ptrIKNS0_23ParamGeneratorInterfaceISsEEE6departEv
FN:208,_ZN7testing8internal10linked_ptrINS0_25ParameterizedTestCaseInfoI13properties_p1E8TestInfoEE7captureEPS5_
FN:208,_ZN7testing8internal10linked_ptrIKNS0_23ParamGeneratorInterfaceISsEEE7captureEPS4_
FN:213,_ZN7testing8internal10linked_ptrINS0_25ParameterizedTestCaseInfoI13properties_p1E8TestInfoEE4copyIS5_EEvPKNS1_IT_EE
FNDA:2,_ZN7testing8internal19linked_ptr_internal8join_newEv
FNDA:2,_ZN7testing8internal19linked_ptr_internal4joinEPKS1_
FNDA:4,_ZN7testing8internal19linked_ptr_internal6departEv
FNDA:1,_ZN7testing8internal10linked_ptrIKNS0_23ParamGeneratorInterfaceISsEEEC2EPS4_
FNDA:1,_ZN7testing8internal10linked_ptrINS0_25ParameterizedTestCaseInfoI13properties_p1E8TestInfoEEC2EPS5_
FNDA:3,_ZN7testing8internal10linked_ptrINS0_25ParameterizedTestCaseInfoI13properties_p1E8TestInfoEED2Ev
FNDA:1,_ZN7testing8internal10linked_ptrIKNS0_23ParamGeneratorInterfaceISsEEED2Ev
FNDA:2,_ZN7testing8internal10linked_ptrINS0_25ParameterizedTestCaseInfoI13properties_p1E8TestInfoEEC2ERKS6_
FNDA:2,_ZNK7testing8internal10linked_ptrINS0_25ParameterizedTestCaseInfoI13properties_p1E8TestInfoEE3getEv
FNDA:3,_ZNK7testing8internal10linked_ptrIKNS0_23ParamGeneratorInterfaceISsEEEptEv
FNDA:3,_ZNK7testing8internal10linked_ptrINS0_25ParameterizedTestCaseInfoI13properties_p1E8TestInfoEEptEv
FNDA:3,_ZN7testing8internal10linked_ptrINS0_25ParameterizedTestCaseInfoI13properties_p1E8TestInfoEE6departEv
FNDA:1,_ZN7testing8internal10linked_ptrIKNS0_23ParamGeneratorInterfaceISsEEE6departEv
FNDA:1,_ZN7testing8internal10linked_ptrIKNS0_23ParamGeneratorInterfaceISsEEE7captureEPS4_
FNDA:1,_ZN7testing8internal10linked_ptrINS0_25ParameterizedTestCaseInfoI13properties_p1E8TestInfoEE7captureEPS5_
FNDA:2,_ZN7testing8internal10linked_ptrINS0_25ParameterizedTestCaseInfoI13properties_p1E8TestInfoEE4copyIS5_EEvPKNS1_IT_EE
FNF:16
FNH:16
DA:92,2
DA:93,2
DA:94,2
DA:108,2
DA:110,2
DA:112,2
DA:113,4
DA:114,0
DA:116,0
DA:117,0
DA:119,2
DA:120,2
DA:121,2
DA:125,4
DA:127,4
DA:129,4
DA:130,2
DA:131,4
DA:132,0
DA:134,0
DA:135,0
DA:137,2
DA:138,2
DA:152,2
DA:153,4
DA:157,2
DA:158,2
DA:159,2
DA:160,2
DA:182,2
DA:183,6
DA:204,4
DA:205,4
DA:206,4
DA:208,2
DA:209,2
DA:210,2
DA:211,2
DA:213,2
DA:214,2
DA:215,2
DA:216,2
DA:218,0
DA:219,2
LF:44
LH:37
end_of_record
SF:/usr/local/include/gtest/internal/gtest-param-util.h
FN:59,_ZN7testing13TestParamInfoISsED2Ev
FN:60,_ZN7testing13TestParamInfoISsEC2ERKSsm
FN:93,_ZN7testing8internal22ParamIteratorInterfaceISsEC2Ev
FN:95,_ZN7testing8internal22ParamIteratorInterfaceISsED2Ev
FN:95,_ZN7testing8internal22ParamIteratorInterfaceISsED0Ev
FN:123,_ZN7testing8internal13ParamIteratorISsED2Ev
FN:137,_ZNK7testing8internal13ParamIteratorISsEdeEv
FN:140,_ZN7testing8internal13ParamIteratorISsEppEv
FN:150,_ZNK7testing8internal13ParamIteratorISsEeqERKS2_
FN:153,_ZNK7testing8internal13ParamIteratorISsEneERKS2_
FN:159,_ZN7testing8internal13ParamIteratorISsEC2EPNS0_22ParamIteratorInterfaceISsEE
FN:166,_ZN7testing8internal23ParamGeneratorInterfaceISsEC2Ev
FN:170,_ZN7testing8internal23ParamGeneratorInterfaceISsED0Ev
FN:170,_ZN7testing8internal23ParamGeneratorInterfaceISsED2Ev
FN:183,_ZN7testing8internal14ParamGeneratorISsED2Ev
FN:187,_ZN7testing8internal14ParamGeneratorISsEC2EPNS0_23ParamGeneratorInterfaceISsEE
FN:195,_ZNK7testing8internal14ParamGeneratorISsE5beginEv
FN:196,_ZNK7testing8internal14ParamGeneratorISsE3endEv
FN:295,_ZN7testing8internal30ValuesInIteratorRangeGeneratorISsEC2IN9__gnu_cxx17__normal_iteratorIPKSsSt6vectorISsSaISsEEEEEET_SC_
FN:297,_ZN7testing8internal30ValuesInIteratorRangeGeneratorISsED2Ev
FN:297,_ZN7testing8internal30ValuesInIteratorRangeGeneratorISsED0Ev
FN:299,_ZNK7testing8internal30ValuesInIteratorRangeGeneratorISsE5BeginEv
FN:302,_ZNK7testing8internal30ValuesInIteratorRangeGeneratorISsE3EndEv
FN:311,_ZN7testing8internal30ValuesInIteratorRangeGeneratorISsE8IteratorC2EPKNS0_23ParamGeneratorInterfaceISsEEN9__gnu_cxx17__normal_iteratorIPKSsSt6vectorISsSaISsEEEE
FN:314,_ZN7testing8internal30ValuesInIteratorRangeGeneratorISsE8IteratorD0Ev
FN:314,_ZN7testing8internal30ValuesInIteratorRangeGeneratorISsE8IteratorD2Ev
FN:316,_ZNK7testing8internal30ValuesInIteratorRangeGeneratorISsE8Iterator13BaseGeneratorEv
FN:319,_ZN7testing8internal30ValuesInIteratorRangeGeneratorISsE8Iterator7AdvanceEv
FN:323,_ZNK7testing8internal30ValuesInIteratorRangeGeneratorISsE8Iterator5CloneEv
FN:333,_ZNK7testing8internal30ValuesInIteratorRangeGeneratorISsE8Iterator7CurrentEv
FN:338,_ZNK7testing8internal30ValuesInIteratorRangeGeneratorISsE8Iterator6EqualsERKNS0_22ParamIteratorInterfaceISsEE
FN:349,_ZN7testing8internal30ValuesInIteratorRangeGeneratorISsE8IteratorC2ERKS3_
FN:377,_ZN7testing8internal16DefaultParamNameISsEESsRKNS_13TestParamInfoIT_EE
FN:399,_ZN7testing8internal15GetParamNameGenISsEEPNS0_16ParamNameGenFuncIT_E4TypeEv
FN:408,_ZN7testing8internal24ParameterizedTestFactoryI30properties_p1_from_handle_TestED0Ev
FN:408,_ZN7testing8internal24ParameterizedTestFactoryI30properties_p1_from_handle_TestED2Ev
FN:411,_ZN7testing8internal24ParameterizedTestFactoryI30properties_p1_from_handle_TestEC2ESs
FN:413,_ZN7testing8internal24ParameterizedTestFactoryI30properties_p1_from_handle_TestE10CreateTestEv
FN:429,_ZN7testing8internal19TestMetaFactoryBaseISsEC2Ev
FN:431,_ZN7testing8internal19TestMetaFactoryBaseISsED2Ev
FN:431,_ZN7testing8internal19TestMetaFactoryBaseISsED0Ev
FN:445,_ZN7testing8internal15TestMetaFactoryI30properties_p1_from_handle_TestED0Ev
FN:445,_ZN7testing8internal15TestMetaFactoryI30properties_p1_from_handle_TestED2Ev
FN:450,_ZN7testing8internal15TestMetaFactoryI30properties_p1_from_handle_TestEC2Ev
FN:452,_ZN7testing8internal15TestMetaFactoryI30properties_p1_from_handle_TestE17CreateTestFactoryESs
FN:472,_ZN7testing8internal29ParameterizedTestCaseInfoBaseD2Ev
FN:472,_ZN7testing8internal29ParameterizedTestCaseInfoBaseD0Ev
FN:485,_ZN7testing8internal29ParameterizedTestCaseInfoBaseC2Ev
FN:499,_ZN7testing8internal25ParameterizedTestCaseInfoI13properties_p1ED2Ev
FN:499,_ZN7testing8internal25ParameterizedTestCaseInfoI13properties_p1ED0Ev
FN:509,_ZN7testing8internal25ParameterizedTestCaseInfoI13properties_p1EC2EPKcNS0_12CodeLocationE
FN:514,_ZNK7testing8internal25ParameterizedTestCaseInfoI13properties_p1E15GetTestCaseNameEv
FN:516,_ZNK7testing8internal25ParameterizedTestCaseInfoI13properties_p1E17GetTestCaseTypeIdEv
FN:523,_ZN7testing8internal25ParameterizedTestCaseInfoI13properties_p1E14AddTestPatternEPKcS5_PNS0_19TestMetaFactoryBaseISsEE
FN:532,_ZN7testing8internal25ParameterizedTestCaseInfoI13properties_p1E24AddTestCaseInstantiationERKSsPFNS0_14ParamGeneratorISsEEvEPFSsRKNS_13TestParamInfoISsEEEPKci
FN:545,_ZN7testing8internal25ParameterizedTestCaseInfoI13properties_p1E13RegisterTestsEv
FN:603,_ZN7testing8internal25ParameterizedTestCaseInfoI13properties_p1E8TestInfoD2Ev
FN:604,_ZN7testing8internal25ParameterizedTestCaseInfoI13properties_p1E8TestInfoC2EPKcS6_PNS0_19TestMetaFactoryBaseISsEE
FN:619,_ZN7testing8internal25ParameterizedTestCaseInfoI13properties_p1E17InstantiationInfoD2Ev
FN:619,_ZN7testing8internal25ParameterizedTestCaseInfoI13properties_p1E17InstantiationInfoC2EOS4_
FN:620,_ZN7testing8internal25ParameterizedTestCaseInfoI13properties_p1E17InstantiationInfoC2ERKSsPFNS0_14ParamGeneratorISsEEvEPFSsRKNS_13TestParamInfoISsEEEPKci
FN:639,_ZN7testing8internal25ParameterizedTestCaseInfoI13properties_p1E16IsValidParamNameERKSs
FN:680,_ZN7testing8internal29ParameterizedTestCaseRegistry24GetTestCasePatternHolderI13properties_p1EEPNS0_25ParameterizedTestCaseInfoIT_EEPKcNS0_12CodeLocationE
FNDA:1,_ZN7testing13TestParamInfoISsED2Ev
FNDA:1,_ZN7testing13TestParamInfoISsEC2ERKSsm
FNDA:3,_ZN7testing8internal22ParamIteratorInterfaceISsEC2Ev
FNDA:0,_ZN7testing8internal22ParamIteratorInterfaceISsED0Ev
FNDA:3,_ZN7testing8internal22ParamIteratorInterfaceISsED2Ev
FNDA:3,_ZN7testing8internal13ParamIteratorISsED2Ev
FNDA:3,_ZNK7testing8internal13ParamIteratorISsEdeEv
FNDA:1,_ZN7testing8internal13ParamIteratorISsEppEv
FNDA:2,_ZNK7testing8internal13ParamIteratorISsEeqERKS2_
FNDA:2,_ZNK7testing8internal13ParamIteratorISsEneERKS2_
FNDA:3,_ZN7testing8internal13ParamIteratorISsEC2EPNS0_22ParamIteratorInterfaceISsEE
FNDA:1,_ZN7testing8internal23ParamGeneratorInterfaceISsEC2Ev
FNDA:0,_ZN7testing8internal23ParamGeneratorInterfaceISsED0Ev
FNDA:1,_ZN7testing8internal23ParamGeneratorInterfaceISsED2Ev
FNDA:1,_ZN7testing8internal14ParamGeneratorISsED2Ev
FNDA:1,_ZN7testing8internal14ParamGeneratorISsEC2EPNS0_23ParamGeneratorInterfaceISsEE
FNDA:1,_ZNK7testing8internal14ParamGeneratorISsE5beginEv
FNDA:2,_ZNK7testing8internal14ParamGeneratorISsE3endEv
FNDA:1,_ZN7testing8internal30ValuesInIteratorRangeGeneratorISsEC2IN9__gnu_cxx17__normal_iteratorIPKSsSt6vectorISsSaISsEEEEEET_SC_
FNDA:1,_ZN7testing8internal30ValuesInIteratorRangeGeneratorISsED0Ev
FNDA:1,_ZN7testing8internal30ValuesInIteratorRangeGeneratorISsED2Ev
FNDA:1,_ZNK7testing8internal30ValuesInIteratorRangeGeneratorISsE5BeginEv
FNDA:2,_ZNK7testing8internal30ValuesInIteratorRangeGeneratorISsE3EndEv
FNDA:3,_ZN7testing8internal30ValuesInIteratorRangeGeneratorISsE8IteratorC2EPKNS0_23ParamGeneratorInterfaceISsEEN9__gnu_cxx17__normal_iteratorIPKSsSt6vectorISsSaISsEEEE
FNDA:3,_ZN7testing8internal30ValuesInIteratorRangeGeneratorISsE8IteratorD0Ev
FNDA:3,_ZN7testing8internal30ValuesInIteratorRangeGeneratorISsE8IteratorD2Ev
FNDA:4,_ZNK7testing8internal30ValuesInIteratorRangeGeneratorISsE8Iterator13BaseGeneratorEv
FNDA:1,_ZN7testing8internal30ValuesInIteratorRangeGeneratorISsE8Iterator7AdvanceEv
FNDA:0,_ZNK7testing8internal30ValuesInIteratorRangeGeneratorISsE8Iterator5CloneEv
FNDA:3,_ZNK7testing8internal30ValuesInIteratorRangeGeneratorISsE8Iterator7CurrentEv
FNDA:2,_ZNK7testing8internal30ValuesInIteratorRangeGeneratorISsE8Iterator6EqualsERKNS0_22ParamIteratorInterfaceISsEE
FNDA:0,_ZN7testing8internal30ValuesInIteratorRangeGeneratorISsE8IteratorC2ERKS3_
FNDA:1,_ZN7testing8internal16DefaultParamNameISsEESsRKNS_13TestParamInfoIT_EE
FNDA:1,_ZN7testing8internal15GetParamNameGenISsEEPNS0_16ParamNameGenFuncIT_E4TypeEv
FNDA:1,_ZN7testing8internal24ParameterizedTestFactoryI30properties_p1_from_handle_TestED0Ev
FNDA:1,_ZN7testing8internal24ParameterizedTestFactoryI30properties_p1_from_handle_TestED2Ev
FNDA:1,_ZN7testing8internal24ParameterizedTestFactoryI30properties_p1_from_handle_TestEC2ESs
FNDA:1,_ZN7testing8internal24ParameterizedTestFactoryI30properties_p1_from_handle_TestE10CreateTestEv
FNDA:1,_ZN7testing8internal19TestMetaFactoryBaseISsEC2Ev
FNDA:0,_ZN7testing8internal19TestMetaFactoryBaseISsED0Ev
FNDA:1,_ZN7testing8internal19TestMetaFactoryBaseISsED2Ev
FNDA:1,_ZN7testing8internal15TestMetaFactoryI30properties_p1_from_handle_TestED0Ev
FNDA:1,_ZN7testing8internal15TestMetaFactoryI30properties_p1_from_handle_TestED2Ev
FNDA:1,_ZN7testing8internal15TestMetaFactoryI30properties_p1_from_handle_TestEC2Ev
FNDA:1,_ZN7testing8internal15TestMetaFactoryI30properties_p1_from_handle_TestE17CreateTestFactoryESs
FNDA:0,_ZN7testing8internal29ParameterizedTestCaseInfoBaseD0Ev
FNDA:1,_ZN7testing8internal29ParameterizedTestCaseInfoBaseD2Ev
FNDA:1,_ZN7testing8internal29ParameterizedTestCaseInfoBaseC2Ev
FNDA:1,_ZN7testing8internal25ParameterizedTestCaseInfoI13properties_p1ED0Ev
FNDA:1,_ZN7testing8internal25ParameterizedTestCaseInfoI13properties_p1ED2Ev
FNDA:1,_ZN7testing8internal25ParameterizedTestCaseInfoI13properties_p1EC2EPKcNS0_12CodeLocationE
FNDA:1,_ZNK7testing8internal25ParameterizedTestCaseInfoI13properties_p1E15GetTestCaseNameEv
FNDA:2,_ZNK7testing8internal25ParameterizedTestCaseInfoI13properties_p1E17GetTestCaseTypeIdEv
FNDA:1,_ZN7testing8internal25ParameterizedTestCaseInfoI13properties_p1E14AddTestPatternEPKcS5_PNS0_19TestMetaFactoryBaseISsEE
FNDA:1,_ZN7testing8internal25ParameterizedTestCaseInfoI13properties_p1E24AddTestCaseInstantiationERKSsPFNS0_14ParamGeneratorISsEEvEPFSsRKNS_13TestParamInfoISsEEEPKci
FNDA:1,_ZN7testing8internal25ParameterizedTestCaseInfoI13properties_p1E13RegisterTestsEv
FNDA:1,_ZN7testing8internal25ParameterizedTestCaseInfoI13properties_p1E8TestInfoD2Ev
FNDA:1,_ZN7testing8internal25ParameterizedTestCaseInfoI13properties_p1E8TestInfoC2EPKcS6_PNS0_19TestMetaFactoryBaseISsEE
FNDA:1,_ZN7testing8internal25ParameterizedTestCaseInfoI13properties_p1E17InstantiationInfoC2EOS4_
FNDA:2,_ZN7testing8internal25ParameterizedTestCaseInfoI13properties_p1E17InstantiationInfoD2Ev
FNDA:1,_ZN7testing8internal25ParameterizedTestCaseInfoI13properties_p1E17InstantiationInfoC2ERKSsPFNS0_14ParamGeneratorISsEEvEPFSsRKNS_13TestParamInfoISsEEEPKci
FNDA:1,_ZN7testing8internal25ParameterizedTestCaseInfoI13properties_p1E16IsValidParamNameERKSs
FNDA:2,_ZN7testing8internal29ParameterizedTestCaseRegistry24GetTestCasePatternHolderI13properties_p1EEPNS0_25ParameterizedTestCaseInfoIT_EEPKcNS0_12CodeLocationE
FNF:63
FNH:57
DA:59,1
DA:60,1
DA:62,1
DA:93,3
DA:95,3
DA:123,3
DA:137,3
DA:140,1
DA:141,1
DA:142,1
DA:150,2
DA:151,2
DA:153,2
DA:154,2
DA:159,3
DA:166,1
DA:170,1
DA:183,1
DA:187,1
DA:195,1
DA:196,2
DA:295,1
DA:296,1
DA:297,2
DA:299,1
DA:300,1
DA:302,2
DA:303,2
DA:311,3
DA:313,3
DA:314,6
DA:316,4
DA:317,4
DA:319,1
DA:320,1
DA:321,1
DA:322,1
DA:323,0
DA:324,0
DA:333,3
DA:334,3
DA:335,1
DA:336,3
DA:338,2
DA:341,2
DA:342,0
DA:343,0
DA:344,2
DA:345,4
DA:349,0
DA:354,0
DA:377,1
DA:378,1
DA:379,1
DA:380,1
DA:399,1
DA:400,1
DA:408,2
DA:411,1
DA:412,1
DA:413,1
DA:414,1
DA:415,1
DA:429,1
DA:431,1
DA:445,2
DA:450,1
DA:452,1
DA:453,1
DA:472,1
DA:485,1
DA:499,2
DA:509,1
DA:511,1
DA:514,1
DA:516,2
DA:523,1
DA:526,1
DA:529,1
DA:532,1
DA:536,1
DA:538,1
DA:545,1
DA:546,6
DA:547,4
DA:548,1
DA:549,6
DA:550,5
DA:552,1
DA:553,1
DA:554,1
DA:555,1
DA:556,1
DA:558,2
DA:559,1
DA:560,1
DA:561,1
DA:563,1
DA:564,2
DA:565,6
DA:566,1
DA:567,4
DA:568,1
DA:571,2
DA:573,1
DA:574,0
DA:575,0
DA:576,0
DA:578,1
DA:579,0
DA:580,0
DA:582,1
DA:584,1
DA:585,1
DA:589,1
DA:591,1
DA:594,4
DA:598,1
DA:603,1
DA:604,1
DA:609,1
DA:619,3
DA:620,1
DA:629,1
DA:639,1
DA:641,1
DA:642,0
DA:645,2
DA:646,1
DA:647,0
DA:650,1
DA:680,2
DA:683,2
DA:684,6
DA:685,4
DA:686,1
DA:687,1
DA:691,0
DA:692,0
DA:697,1
DA:698,1
DA:700,1
DA:703,2
DA:704,1
DA:706,1
DA:708,2
LF:146
LH:131
end_of_record
SF:/usr/local/include/gtest/internal/gtest-port.h
FN:1154,_ZN7testing8internal10scoped_ptrINS0_22ParamIteratorInterfaceISsEEEC2EPS3_
FN:1154,_ZN7testing8internal10scoped_ptrIKSsEC2EPS2_
FN:1154,_ZN7testing8internal10scoped_ptrISsEC2EPSs
FN:1154,_ZN7testing8internal10scoped_ptrINS0_19TestMetaFactoryBaseISsEEEC2EPS3_
FN:1155,_ZN7testing8internal10scoped_ptrISsED2Ev
FN:1155,_ZN7testing8internal10scoped_ptrIKSsED2Ev
FN:1155,_ZN7testing8internal10scoped_ptrINS0_19TestMetaFactoryBaseISsEEED2Ev
FN:1155,_ZN7testing8internal10scoped_ptrINS0_22ParamIteratorInterfaceISsEEED2Ev
FN:1155,_ZN7testing8internal10scoped_ptrISt18basic_stringstreamIcSt11char_traitsIcESaIcEEED2Ev
FN:1157,_ZNK7testing8internal10scoped_ptrISt18basic_stringstreamIcSt11char_traitsIcESaIcEEEdeEv
FN:1157,_ZNK7testing8internal10scoped_ptrINS0_22ParamIteratorInterfaceISsEEEdeEv
FN:1158,_ZNK7testing8internal10scoped_ptrISsEptEv
FN:1158,_ZNK7testing8internal10scoped_ptrINS0_19TestMetaFactoryBaseISsEEEptEv
FN:1158,_ZNK7testing8internal10scoped_ptrINS0_22ParamIteratorInterfaceISsEEEptEv
FN:1159,_ZNK7testing8internal10scoped_ptrIKSsE3getEv
FN:1159,_ZNK7testing8internal10scoped_ptrINS0_22ParamIteratorInterfaceISsEEE3getEv
FN:1159,_ZNK7testing8internal10scoped_ptrISsE3getEv
FN:1167,_ZN7testing8internal10scoped_ptrINS0_22ParamIteratorInterfaceISsEEE5resetEPS3_
FN:1167,_ZN7testing8internal10scoped_ptrISt18basic_stringstreamIcSt11char_traitsIcESaIcEEE5resetEPS6_
FN:1167,_ZN7testing8internal10scoped_ptrISsE5resetEPSs
FN:1167,_ZN7testing8internal10scoped_ptrINS0_19TestMetaFactoryBaseISsEEE5resetEPS3_
FN:1167,_ZN7testing8internal10scoped_ptrIKSsE5resetEPS2_
FN:1296,_ZN7testing8internal8GTestLog9GetStreamEv
FN:1427,_ZN7testing8internal27CheckedDowncastToActualTypeINS0_25ParameterizedTestCaseInfoI13properties_p1EENS0_29ParameterizedTestCaseInfoBaseEEEPT_PT0_
FN:1427,_ZN7testing8internal27CheckedDowncastToActualTypeIKNS0_30ValuesInIteratorRangeGeneratorISsE8IteratorEKNS0_22ParamIteratorInterfaceISsEEEEPT_PT0_
FN:1959,_ZN7testing8internal9MutexBase4LockEv
FN:1966,_ZN7testing8internal9MutexBase6UnlockEv
FN:2030,_ZN7testing8internal14GTestMutexLockC2EPNS0_9MutexBaseE
FN:2033,_ZN7testing8internal14GTestMutexLockD2Ev
FN:2442,_ZN7testing8internal5posix5AbortEv
FNDA:3,_ZN7testing8internal10scoped_ptrINS0_22ParamIteratorInterfaceISsEEEC2EPS3_
FNDA:9,_ZN7testing8internal10scoped_ptrIKSsEC2EPS2_
FNDA:1,_ZN7testing8internal10scoped_ptrINS0_19TestMetaFactoryBaseISsEEEC2EPS3_
FNDA:13,_ZN7testing8internal10scoped_ptrISsEC2EPSs
FNDA:9,_ZN7testing8internal10scoped_ptrIKSsED2Ev
FNDA:3,_ZN7testing8internal10scoped_ptrINS0_22ParamIteratorInterfaceISsEEED2Ev
FNDA:1,_ZN7testing8internal10scoped_ptrINS0_19TestMetaFactoryBaseISsEEED2Ev
FNDA:13,_ZN7testing8internal10scoped_ptrISsED2Ev
FNDA:49,_ZN7testing8internal10scoped_ptrISt18basic_stringstreamIcSt11char_traitsIcESaIcEEED2Ev
FNDA:2,_ZNK7testing8internal10scoped_ptrINS0_22ParamIteratorInterfaceISsEEEdeEv
FNDA:394,_ZNK7testing8internal10scoped_ptrISt18basic_stringstreamIcSt11char_traitsIcESaIcEEEdeEv
FNDA:6,_ZNK7testing8internal10scoped_ptrINS0_22ParamIteratorInterfaceISsEEEptEv
FNDA:1,_ZNK7testing8internal10scoped_ptrINS0_19TestMetaFactoryBaseISsEEEptEv
FNDA:0,_ZNK7testing8internal10scoped_ptrISsEptEv
FNDA:4,_ZNK7testing8internal10scoped_ptrINS0_22ParamIteratorInterfaceISsEEE3getEv
FNDA:10,_ZNK7testing8internal10scoped_ptrIKSsE3getEv
FNDA:0,_ZNK7testing8internal10scoped_ptrISsE3getEv
FNDA:11,_ZN7testing8internal10scoped_ptrIKSsE5resetEPS2_
FNDA:3,_ZN7testing8internal10scoped_ptrINS0_22ParamIteratorInterfaceISsEEE5resetEPS3_
FNDA:1,_ZN7testing8internal10scoped_ptrINS0_19TestMetaFactoryBaseISsEEE5resetEPS3_
FNDA:49,_ZN7testing8internal10scoped_ptrISt18basic_stringstreamIcSt11char_traitsIcESaIcEEE5resetEPS6_
FNDA:13,_ZN7testing8internal10scoped_ptrISsE5resetEPSs
FNDA:0,_ZN7testing8internal8GTestLog9GetStreamEv
FNDA:2,_ZN7testing8internal27CheckedDowncastToActualTypeIKNS0_30ValuesInIteratorRangeGeneratorISsE8IteratorEKNS0_22ParamIteratorInterfaceISsEEEEPT_PT0_
FNDA:1,_ZN7testing8internal27CheckedDowncastToActualTypeINS0_25ParameterizedTestCaseInfoI13properties_p1EENS0_29ParameterizedTestCaseInfoBaseEEEPT_PT0_
FNDA:6,_ZN7testing8internal9MutexBase4LockEv
FNDA:6,_ZN7testing8internal9MutexBase6UnlockEv
FNDA:6,_ZN7testing8internal14GTestMutexLockC2EPNS0_9MutexBaseE
FNDA:6,_ZN7testing8internal14GTestMutexLockD2Ev
FNDA:0,_ZN7testing8internal5posix5AbortEv
FNF:30
FNH:26
DA:1154,26
DA:1155,75
DA:1157,396
DA:1158,7
DA:1159,14
DA:1167,77
DA:1168,77
DA:1169,56
DA:1170,56
DA:1172,56
DA:1174,77
DA:1296,0
DA:1427,3
DA:1429,3
DA:1435,3
DA:1959,6
DA:1960,6
DA:1961,6
DA:1962,6
DA:1963,6
DA:1966,6
DA:1971,6
DA:1972,6
DA:1973,6
DA:2030,6
DA:2031,6
DA:2033,6
DA:2442,0
LF:28
LH:26
end_of_record
TN:
SF:/home/workspace/jelonanx/opae-sdk/libopae/plugins/xfpga/common.c
FN:70,prop_check_and_lock
FN:96,handle_check_and_lock
FN:124,event_handle_check_and_lock
FN:149,xfpga_fpgaErrStr
FN:184,wsid_gen
FNDA:0,prop_check_and_lock
FNDA:363,handle_check_and_lock
FNDA:31,event_handle_check_and_lock
FNDA:0,xfpga_fpgaErrStr
FNDA:109,wsid_gen
FNF:5
FNH:3
DA:70,0
DA:72,0
DA:74,0
DA:75,0
DA:76,0
DA:79,0
DA:80,0
DA:81,0
DA:82,0
DA:83,0
DA:86,0
DA:89,0
DA:96,363
DA:98,363
DA:100,331
DA:101,0
DA:102,0
DA:106,331
DA:107,3
DA:108,3
DA:109,3
DA:110,0
DA:113,3
DA:116,328
DA:124,31
DA:126,31
DA:128,31
DA:129,0
DA:130,0
DA:133,31
DA:134,4
DA:135,4
DA:136,4
DA:137,0
DA:140,4
DA:143,27
DA:149,0
DA:151,0
DA:153,0
DA:155,0
DA:157,0
DA:159,0
DA:161,0
DA:163,0
DA:165,0
DA:167,0
DA:169,0
DA:171,0
DA:173,0
DA:175,0
DA:184,109
DA:187,109
DA:188,109
DA:189,109
DA:190,109
DA:191,109
LF:56
LH:24
end_of_record
TN:
SF:/home/workspace/jelonanx/opae-sdk/testing/mock/test_system.cpp
FN:40,malloc
FN:56,_ZN4opae7testing11mock_objectC2ERKSsS3_jNS1_6type_tE
FN:64,_ZN4opae7testing8mock_fme5ioctlEiP13__va_list_tag
FN:70,_ZN4opae7testing9mock_port5ioctlEiP13__va_list_tag
FN:83,_ZN4opae7testing11test_device7unknownEv
FN:107,_Z41__static_initialization_and_destruction_0ii
FN:131,_ZN4opae7testing13test_platform3getERKSs
FN:135,_ZN4opae7testing13test_platform6existsERKSs
FN:139,_ZN4opae7testing13test_platform4keysEb
FN:143,_ZZN4opae7testing13test_platform4keysEbENKUlRKSt4pairISsS1_EE_clES5_
FN:153,_ZN4opae7testing11test_systemC2Ev
FN:165,_ZN4opae7testing11test_system8instanceEv
FN:172,_ZN4opae7testing11test_system12prepare_syfsERKNS0_13test_platformE
FN:185,_ZN4opae7testing11test_system8set_rootEPKc
FN:187,_ZN4opae7testing11test_system14get_sysfs_pathERKSs
FN:196,_ZN4opae7testing11test_system10initializeEv
FN:206,_ZN4opae7testing11test_system8finalizeEv
FN:217,_ZN4opae7testing11test_system22register_ioctl_handlerEiPFiPNS0_11mock_objectEiP13__va_list_tagE
FN:224,_ZN4opae7testing13get_device_idERKSs
FN:237,_ZN4opae7testing11test_system4openERKSsi
FN:267,_ZN4opae7testing11test_system4openERKSsij
FN:276,_ZN4opae7testing11test_system5closeEi
FN:278,_ZN4opae7testing11test_system5ioctlEimP13__va_list_tag
FN:292,_ZN4opae7testing11test_system7opendirEPKc
FN:297,_ZN4opae7testing11test_system8readlinkEPKcPcm
FN:302,_ZN4opae7testing11test_system5xstatEiPKcP4stat
FN:307,_ZN4opae7testing11test_system5lstatEiPKcP4stat
FN:312,_ZN4opae7testing11test_system7scandirEPKcPPP6direntPFiPKS4_EPFiPS9_SC_E
FN:318,_ZN4opae7testing11test_system17invalidate_mallocEv
FN:325,opae_test_open
FN:329,opae_test_open_create
FN:333,opae_test_close
FN:337,opae_test_ioctl
FN:341,opae_test_opendir
FN:345,opae_test_readlink
FN:349,opae_test_xstat
FN:353,opae_test_lstat
FN:357,opae_test_scandir
FN:361,_GLOBAL__sub_I_test_system.cpp
FNDA:6588041,malloc
FNDA:21838,_ZN4opae7testing11mock_objectC2ERKSsS3_jNS1_6type_tE
FNDA:0,_ZN4opae7testing8mock_fme5ioctlEiP13__va_list_tag
FNDA:2,_ZN4opae7testing9mock_port5ioctlEiP13__va_list_tag
FNDA:56,_ZN4opae7testing11test_device7unknownEv
FNDA:118,_ZN4opae7testing13test_platform3getERKSs
FNDA:118,_ZN4opae7testing13test_platform6existsERKSs
FNDA:108,_ZN4opae7testing13test_platform4keysEb
FNDA:108,_ZZN4opae7testing13test_platform4keysEbENKUlRKSt4pairISsS1_EE_clES5_
FNDA:18,_ZN4opae7testing11test_systemC2Ev
FNDA:45416,_ZN4opae7testing11test_system8instanceEv
FNDA:118,_ZN4opae7testing11test_system12prepare_syfsERKNS0_13test_platformE
FNDA:0,_ZN4opae7testing11test_system8set_rootEPKc
FNDA:44969,_ZN4opae7testing11test_system14get_sysfs_pathERKSs
FNDA:118,_ZN4opae7testing11test_system10initializeEv
FNDA:118,_ZN4opae7testing11test_system8finalizeEv
FNDA:280,_ZN4opae7testing11test_system22register_ioctl_handlerEiPFiPNS0_11mock_objectEiP13__va_list_tagE
FNDA:21552,_ZN4opae7testing13get_device_idERKSs
FNDA:21556,_ZN4opae7testing11test_system4openERKSsi
FNDA:286,_ZN4opae7testing11test_system4openERKSsij
FNDA:21583,_ZN4opae7testing11test_system5closeEi
FNDA:62,_ZN4opae7testing11test_system5ioctlEimP13__va_list_tag
FNDA:441,_ZN4opae7testing11test_system7opendirEPKc
FNDA:192,_ZN4opae7testing11test_system8readlinkEPKcPcm
FNDA:941,_ZN4opae7testing11test_system5xstatEiPKcP4stat
FNDA:0,_ZN4opae7testing11test_system5lstatEiPKcP4stat
FNDA:1,_ZN4opae7testing11test_system7scandirEPKcPPP6direntPFiPKS4_EPFiPS9_SC_E
FNDA:2,_ZN4opae7testing11test_system17invalidate_mallocEv
FNDA:21556,opae_test_open
FNDA:286,opae_test_open_create
FNDA:21583,opae_test_close
FNDA:62,opae_test_ioctl
FNDA:441,opae_test_opendir
FNDA:192,opae_test_readlink
FNDA:941,opae_test_xstat
FNDA:0,opae_test_lstat
FNDA:1,opae_test_scandir
FNDA:18,_GLOBAL__sub_I_test_system.cpp
FNDA:18,_Z41__static_initialization_and_destruction_0ii
FNF:39
FNH:35
DA:40,6588041
DA:41,6588041
DA:42,2
DA:43,2
DA:45,6588039
DA:56,21838
DA:62,21838
DA:64,0
DA:67,0
DA:70,2
DA:73,2
DA:83,56
DA:102,56
DA:107,36
DA:129,18
DA:131,118
DA:132,118
DA:135,118
DA:136,118
DA:139,108
DA:140,108
DA:143,216
DA:144,108
DA:145,90
DA:148,108
DA:153,18
DA:154,18
DA:155,18
DA:156,18
DA:157,18
DA:158,18
DA:159,18
DA:160,18
DA:161,18
DA:162,18
DA:163,18
DA:165,45416
DA:166,45416
DA:167,18
DA:169,45416
DA:172,118
DA:173,118
DA:174,118
DA:175,118
DA:176,354
DA:177,236
DA:178,118
DA:179,118
DA:180,118
DA:182,0
DA:185,0
DA:187,44969
DA:188,44969
DA:189,44678
DA:190,44672
DA:193,297
DA:196,118
DA:197,118
DA:198,118
DA:199,118
DA:200,118
DA:201,118
DA:202,118
DA:203,118
DA:204,118
DA:206,118
DA:207,417
DA:208,299
DA:209,299
DA:210,299
DA:213,118
DA:214,118
DA:215,118
DA:217,280
DA:219,280
DA:220,280
DA:221,280
DA:224,21552
DA:225,21552
DA:226,21552
DA:227,21552
DA:228,21552
DA:229,21550
DA:230,21550
DA:231,21550
DA:232,21550
DA:234,2
DA:237,21556
DA:238,21556
DA:239,21556
DA:240,43112
DA:241,43112
DA:242,43112
DA:247,21556
DA:250,21342
DA:251,21342
DA:252,21342
DA:253,214
DA:256,210
DA:257,210
DA:258,210
DA:259,19
DA:260,191
DA:261,191
DA:262,210
DA:264,43112
DA:267,286
DA:268,286
DA:269,286
DA:270,286
DA:271,286
DA:273,286
DA:276,21583
DA:278,62
DA:279,62
DA:280,62
DA:281,0
DA:282,0
DA:285,62
DA:286,62
DA:287,60
DA:289,2
DA:292,441
DA:293,441
DA:294,441
DA:297,192
DA:298,192
DA:299,192
DA:302,941
DA:303,941
DA:304,941
DA:307,0
DA:308,0
DA:309,0
DA:312,1
DA:314,1
DA:315,1
DA:318,2
DA:325,21556
DA:326,21556
DA:329,286
DA:330,286
DA:333,21583
DA:334,21583
DA:337,62
DA:338,62
DA:341,441
DA:342,441
DA:345,192
DA:346,192
DA:349,941
DA:350,941
DA:353,0
DA:354,0
DA:357,1
DA:360,1
DA:361,54
LF:157
LH:146
end_of_record
SF:/home/workspace/jelonanx/opae-sdk/testing/mock/test_system.h
FN:58,_ZN4opae7testing11mock_objectD0Ev
FN:58,_ZN4opae7testing11mock_objectD2Ev
FN:60,_ZN4opae7testing11mock_object5ioctlEiP13__va_list_tag
FN:77,_ZN4opae7testing8mock_fmeD2Ev
FN:77,_ZN4opae7testing8mock_fmeD0Ev
FN:79,_ZN4opae7testing8mock_fmeC2ERKSsS3_j
FN:85,_ZN4opae7testing9mock_portD0Ev
FN:85,_ZN4opae7testing9mock_portD2Ev
FN:87,_ZN4opae7testing9mock_portC2ERKSsS3_j
FN:116,_ZN4opae7testing13test_platformC2EOS1_
FN:116,_ZN4opae7testing13test_platformC2ERKS1_
FN:116,_ZN4opae7testing13test_platformC2Ev
FN:116,_ZN4opae7testing13test_platformD2Ev
FNDA:223,_ZN4opae7testing11mock_objectD0Ev
FNDA:299,_ZN4opae7testing11mock_objectD2Ev
FNDA:0,_ZN4opae7testing11mock_object5ioctlEiP13__va_list_tag
FNDA:19,_ZN4opae7testing8mock_fmeD0Ev
FNDA:19,_ZN4opae7testing8mock_fmeD2Ev
FNDA:19,_ZN4opae7testing8mock_fmeC2ERKSsS3_j
FNDA:57,_ZN4opae7testing9mock_portD0Ev
FNDA:57,_ZN4opae7testing9mock_portD2Ev
FNDA:191,_ZN4opae7testing9mock_portC2ERKSsS3_j
FNDA:0,_ZN4opae7testing13test_platformC2Ev
FNDA:244,_ZN4opae7testing13test_platformC2ERKS1_
FNDA:18,_ZN4opae7testing13test_platformC2EOS1_
FNDA:8,_ZN4opae7testing13test_platformD2Ev
FNF:13
FNH:11
DA:58,522
DA:60,0
DA:63,0
DA:77,38
DA:79,19
DA:81,19
DA:85,114
DA:87,191
DA:89,191
DA:116,270
LF:10
LH:8
end_of_record
SF:/home/workspace/jelonanx/opae-sdk/testing/mock/test_utils.h
FN:36,_ZN4opae7testing7match_tD2Ev
FN:39,_ZN4opae7testing7match_tC2ERKSsRKSt6vectorISsSaISsEE
FN:44,_ZN4opae7testing7match_t5groupEj
FN:58,_ZN4opae7testing5regexILm32EE6createERKSsi
FN:66,_ZN4opae7testing5regexILm32EED2Ev
FN:68,_ZN4opae7testing5regexILm32EE5matchESsi
FN:88,_ZN4opae7testing5regexILm32EEC2ERKSs
FNDA:21552,_ZN4opae7testing7match_tD2Ev
FNDA:21552,_ZN4opae7testing7match_tC2ERKSsRKSt6vectorISsSaISsEE
FNDA:21953,_ZN4opae7testing7match_t5groupEj
FNDA:43112,_ZN4opae7testing5regexILm32EE6createERKSsi
FNDA:43112,_ZN4opae7testing5regexILm32EED2Ev
FNDA:21770,_ZN4opae7testing5regexILm32EE5matchESsi
FNDA:43112,_ZN4opae7testing5regexILm32EEC2ERKSs
FNF:7
FNH:7
DA:36,21552
DA:39,21552
DA:40,21552
DA:44,21953
DA:58,43112
DA:59,43112
DA:60,43112
DA:61,0
DA:63,43112
DA:66,43112
DA:68,21770
DA:69,21770
DA:70,21770
DA:72,21770
DA:73,21770
DA:74,64866
DA:75,64866
DA:76,43314
DA:78,21552
DA:81,21552
DA:83,21770
DA:88,43112
LF:22
LH:21
end_of_record
SF:/usr/include/c++/4.8/array
FN:52,_ZNSt14__array_traitsI10regmatch_tLm32EE6_S_refERA32_KS0_m
FN:113,_ZNSt5arrayI10regmatch_tLm32EE5beginEv
FN:121,_ZNSt5arrayI10regmatch_tLm32EE3endEv
FN:162,_ZNKSt5arrayI10regmatch_tLm32EE4sizeEv
FN:217,_ZNSt5arrayI10regmatch_tLm32EE4dataEv
FNDA:64874,_ZNSt14__array_traitsI10regmatch_tLm32EE6_S_refERA32_KS0_m
FNDA:21552,_ZNSt5arrayI10regmatch_tLm32EE5beginEv
FNDA:21552,_ZNSt5arrayI10regmatch_tLm32EE3endEv
FNDA:21770,_ZNKSt5arrayI10regmatch_tLm32EE4sizeEv
FNDA:64874,_ZNSt5arrayI10regmatch_tLm32EE4dataEv
FNF:5
FNH:5
DA:52,64874
DA:53,64874
DA:113,21552
DA:114,21552
DA:121,21552
DA:122,21552
DA:162,21770
DA:217,64874
DA:218,64874
LF:9
LH:9
end_of_record
SF:/usr/include/c++/4.8/bits/alloc_traits.h
FN:253,_ZNSt16allocator_traitsISaISt13_Rb_tree_nodeISt4pairIKSsN4opae7testing13test_platformEEEEE12_S_constructIS7_IRKSt21piecewise_construct_tSt5tupleIIRS2_EESE_IIEEEEENSt9enable_ifIXsrNS9_18__construct_helperIT_IDpT0_EEE5valueEvE4typeERS8_PSK_DpOSL_
FN:253,_ZNSt16allocator_traitsISaISt13_Rb_tree_nodeISt4pairIKSsN4opae7testing13test_platformEEEEE12_S_constructIS7_IRKS6_EEENSt9enable_ifIXsrNS9_18__construct_helperIT_IDpT0_EEE5valueEvE4typeERS8_PSF_DpOSG_
FN:253,_ZNSt16allocator_traitsISaISt13_Rb_tree_nodeISt4pairIKiPFiPN4opae7testing11mock_objectEiP13__va_list_tagEEEEE12_S_constructISC_IRKSt21piecewise_construct_tSt5tupleIIRS2_EESJ_IIEEEEENSt9enable_ifIXsrNSE_18__construct_helperIT_IDpT0_EEE5valueEvE4typeERSD_PSP_DpOSQ_
FN:253,_ZNSt16allocator_traitsISaISsEE12_S_constructISsISsEEENSt9enable_ifIXsrNS1_18__construct_helperIT_IDpT0_EEE5valueEvE4typeERS0_PS5_DpOS6_
FN:253,_ZNSt16allocator_traitsISaISt13_Rb_tree_nodeISt4pairIKiPN4opae7testing11mock_objectEEEEE12_S_constructIS8_IRKSt21piecewise_construct_tSt5tupleIIRS2_EESF_IIEEEEENSt9enable_ifIXsrNSA_18__construct_helperIT_IDpT0_EEE5valueEvE4typeERS9_PSL_DpOSM_
FN:280,_ZNSt16allocator_traitsISaISsEE10_S_destroyISsEENSt9enable_ifIXsrNS1_16__destroy_helperIT_EE5valueEvE4typeERS0_PS5_
FN:305,_ZNSt16allocator_traitsISaISsEE11_S_max_sizeIKS0_EENSt9enable_ifIXsrNS1_16__maxsize_helperIT_EE5valueEmE4typeERS6_
FN:337,_ZNSt16allocator_traitsISaISsEE9_S_selectIKS0_EENSt9enable_ifIXntsrNS1_15__select_helperIT_EE5valueES6_E4typeERS6_
FN:337,_ZNSt16allocator_traitsISaIN4opae7testing11test_deviceEEE9_S_selectIKS3_EENSt9enable_ifIXntsrNS4_15__select_helperIT_EE5valueES9_E4typeERS9_
FN:391,_ZNSt16allocator_traitsISaISt13_Rb_tree_nodeISt4pairIKiPFiPN4opae7testing11mock_objectEiP13__va_list_tagEEEEE9constructISC_IRKSt21piecewise_construct_tSt5tupleIIRS2_EESJ_IIEEEEEDTcl12_S_constructfp_fp0_spcl7forwardIT0_Efp1_EEERSD_PT_DpOSN_
FN:391,_ZNSt16allocator_traitsISaISt13_Rb_tree_nodeISt4pairIKSsN4opae7testing13test_platformEEEEE9constructIS7_IRKS6_EEEDTcl12_S_constructfp_fp0_spcl7forwardIT0_Efp1_EEERS8_PT_DpOSD_
FN:391,_ZNSt16allocator_traitsISaISt13_Rb_tree_nodeISt4pairIKSsN4opae7testing13test_platformEEEEE9constructIS7_IRKSt21piecewise_construct_tSt5tupleIIRS2_EESE_IIEEEEEDTcl12_S_constructfp_fp0_spcl7forwardIT0_Efp1_EEERS8_PT_DpOSI_
FN:391,_ZNSt16allocator_traitsISaISt13_Rb_tree_nodeISt4pairIKiPN4opae7testing11mock_objectEEEEE9constructIS8_IRKSt21piecewise_construct_tSt5tupleIIRS2_EESF_IIEEEEEDTcl12_S_constructfp_fp0_spcl7forwardIT0_Efp1_EEERS9_PT_DpOSJ_
FN:391,_ZNSt16allocator_traitsISaISsEE9constructISsISsEEEDTcl12_S_constructfp_fp0_spcl7forwardIT0_Efp1_EEERS0_PT_DpOS3_
FN:404,_ZNSt16allocator_traitsISaISsEE7destroyISsEEvRS0_PT_
FN:415,_ZNSt16allocator_traitsISaISsEE8max_sizeERKS0_
FN:427,_ZNSt16allocator_traitsISaIN4opae7testing11test_deviceEEE37select_on_container_copy_constructionERKS3_
FN:427,_ZNSt16allocator_traitsISaISsEE37select_on_container_copy_constructionERKS0_
FNDA:18,_ZNSt16allocator_traitsISaISt13_Rb_tree_nodeISt4pairIKSsN4opae7testing13test_platformEEEEE12_S_constructIS7_IRKS6_EEENSt9enable_ifIXsrNS9_18__construct_helperIT_IDpT0_EEE5valueEvE4typeERS8_PSF_DpOSG_
FNDA:317,_ZNSt16allocator_traitsISaISt13_Rb_tree_nodeISt4pairIKiPN4opae7testing11mock_objectEEEEE12_S_constructIS8_IRKSt21piecewise_construct_tSt5tupleIIRS2_EESF_IIEEEEENSt9enable_ifIXsrNSA_18__construct_helperIT_IDpT0_EEE5valueEvE4typeERS9_PSL_DpOSM_
FNDA:43314,_ZNSt16allocator_traitsISaISsEE12_S_constructISsISsEEENSt9enable_ifIXsrNS1_18__construct_helperIT_IDpT0_EEE5valueEvE4typeERS0_PS5_DpOS6_
FNDA:235,_ZNSt16allocator_traitsISaISt13_Rb_tree_nodeISt4pairIKiPFiPN4opae7testing11mock_objectEiP13__va_list_tagEEEEE12_S_constructISC_IRKSt21piecewise_construct_tSt5tupleIIRS2_EESJ_IIEEEEENSt9enable_ifIXsrNSE_18__construct_helperIT_IDpT0_EEE5valueEvE4typeERSD_PSP_DpOSQ_
FNDA:0,_ZNSt16allocator_traitsISaISt13_Rb_tree_nodeISt4pairIKSsN4opae7testing13test_platformEEEEE12_S_constructIS7_IRKSt21piecewise_construct_tSt5tupleIIRS2_EESE_IIEEEEENSt9enable_ifIXsrNS9_18__construct_helperIT_IDpT0_EEE5valueEvE4typeERS8_PSK_DpOSL_
FNDA:0,_ZNSt16allocator_traitsISaISsEE10_S_destroyISsEENSt9enable_ifIXsrNS1_16__destroy_helperIT_EE5valueEvE4typeERS0_PS5_
FNDA:86672,_ZNSt16allocator_traitsISaISsEE11_S_max_sizeIKS0_EENSt9enable_ifIXsrNS1_16__maxsize_helperIT_EE5valueEmE4typeERS6_
FNDA:244,_ZNSt16allocator_traitsISaIN4opae7testing11test_deviceEEE9_S_selectIKS3_EENSt9enable_ifIXntsrNS4_15__select_helperIT_EE5valueES9_E4typeERS9_
FNDA:21552,_ZNSt16allocator_traitsISaISsEE9_S_selectIKS0_EENSt9enable_ifIXntsrNS1_15__select_helperIT_EE5valueES6_E4typeERS6_
FNDA:18,_ZNSt16allocator_traitsISaISt13_Rb_tree_nodeISt4pairIKSsN4opae7testing13test_platformEEEEE9constructIS7_IRKS6_EEEDTcl12_S_constructfp_fp0_spcl7forwardIT0_Efp1_EEERS8_PT_DpOSD_
FNDA:317,_ZNSt16allocator_traitsISaISt13_Rb_tree_nodeISt4pairIKiPN4opae7testing11mock_objectEEEEE9constructIS8_IRKSt21piecewise_construct_tSt5tupleIIRS2_EESF_IIEEEEEDTcl12_S_constructfp_fp0_spcl7forwardIT0_Efp1_EEERS9_PT_DpOSJ_
FNDA:43314,_ZNSt16allocator_traitsISaISsEE9constructISsISsEEEDTcl12_S_constructfp_fp0_spcl7forwardIT0_Efp1_EEERS0_PT_DpOS3_
FNDA:235,_ZNSt16allocator_traitsISaISt13_Rb_tree_nodeISt4pairIKiPFiPN4opae7testing11mock_objectEiP13__va_list_tagEEEEE9constructISC_IRKSt21piecewise_construct_tSt5tupleIIRS2_EESJ_IIEEEEEDTcl12_S_constructfp_fp0_spcl7forwardIT0_Efp1_EEERSD_PT_DpOSN_
FNDA:0,_ZNSt16allocator_traitsISaISt13_Rb_tree_nodeISt4pairIKSsN4opae7testing13test_platformEEEEE9constructIS7_IRKSt21piecewise_construct_tSt5tupleIIRS2_EESE_IIEEEEEDTcl12_S_constructfp_fp0_spcl7forwardIT0_Efp1_EEERS8_PT_DpOSI_
FNDA:0,_ZNSt16allocator_traitsISaISsEE7destroyISsEEvRS0_PT_
FNDA:86672,_ZNSt16allocator_traitsISaISsEE8max_sizeERKS0_
FNDA:244,_ZNSt16allocator_traitsISaIN4opae7testing11test_deviceEEE37select_on_container_copy_constructionERKS3_
FNDA:21552,_ZNSt16allocator_traitsISaISsEE37select_on_container_copy_constructionERKS0_
FNF:18
FNH:14
DA:253,43884
DA:254,43884
DA:280,0
DA:281,0
DA:305,86672
DA:306,86672
DA:337,21796
DA:338,21796
DA:391,43884
DA:393,43884
DA:404,0
DA:405,0
DA:415,86672
DA:416,86672
DA:427,21796
DA:428,21796
LF:16
LH:12
end_of_record
SF:/usr/include/c++/4.8/bits/allocator.h
FN:113,_ZNSaIN4opae7testing11test_deviceEEC2Ev
FN:113,_ZNSaISt4pairIKSsN4opae7testing13test_platformEEEC2Ev
FN:113,_ZNSaISt13_Rb_tree_nodeISt4pairIKiPN4opae7testing11mock_objectEEEEC2Ev
FN:113,_ZNSaISt13_Rb_tree_nodeISt4pairIKiPFiPN4opae7testing11mock_objectEiP13__va_list_tagEEEEC2Ev
FN:113,_ZNSaISsEC2Ev
FN:115,_ZNSaISt13_Rb_tree_nodeISt4pairIKSsN4opae7testing13test_platformEEEEC2ERKS7_
FN:115,_ZNSaISsEC2ERKS_
FN:115,_ZNSaIN4opae7testing11test_deviceEEC2ERKS2_
FN:115,_ZNSaISt4pairIKSsN4opae7testing13test_platformEEEC2ERKS5_
FN:119,_ZNSaISt13_Rb_tree_nodeISt4pairIKSsN4opae7testing13test_platformEEEEC2IS5_EERKSaIT_E
FN:121,_ZNSaISsED2Ev
FN:121,_ZNSaISt13_Rb_tree_nodeISt4pairIKSsN4opae7testing13test_platformEEEED2Ev
FN:121,_ZNSaIN4opae7testing11test_deviceEED2Ev
FN:121,_ZNSaISt13_Rb_tree_nodeISt4pairIKiPN4opae7testing11mock_objectEEEED2Ev
FN:121,_ZNSaISt4pairIKSsN4opae7testing13test_platformEEED2Ev
FN:121,_ZNSaISt13_Rb_tree_nodeISt4pairIKiPFiPN4opae7testing11mock_objectEiP13__va_list_tagEEEED2Ev
FNDA:18,_ZNSaISt13_Rb_tree_nodeISt4pairIKiPFiPN4opae7testing11mock_objectEiP13__va_list_tagEEEEC2Ev
FNDA:18,_ZNSaISt13_Rb_tree_nodeISt4pairIKiPN4opae7testing11mock_objectEEEEC2Ev
FNDA:4,_ZNSaISsEC2Ev
FNDA:18,_ZNSaISt4pairIKSsN4opae7testing13test_platformEEEC2Ev
FNDA:4,_ZNSaIN4opae7testing11test_deviceEEC2Ev
FNDA:18,_ZNSaISt13_Rb_tree_nodeISt4pairIKSsN4opae7testing13test_platformEEEEC2ERKS7_
FNDA:16,_ZNSaIN4opae7testing11test_deviceEEC2ERKS2_
FNDA:0,_ZNSaISsEC2ERKS_
FNDA:18,_ZNSaISt4pairIKSsN4opae7testing13test_platformEEEC2ERKS5_
FNDA:18,_ZNSaISt13_Rb_tree_nodeISt4pairIKSsN4opae7testing13test_platformEEEEC2IS5_EERKSaIT_E
FNDA:0,_ZNSaISt13_Rb_tree_nodeISt4pairIKiPFiPN4opae7testing11mock_objectEiP13__va_list_tagEEEED2Ev
FNDA:0,_ZNSaISt13_Rb_tree_nodeISt4pairIKiPN4opae7testing11mock_objectEEEED2Ev
FNDA:18,_ZNSaISt13_Rb_tree_nodeISt4pairIKSsN4opae7testing13test_platformEEEED2Ev
FNDA:0,_ZNSaISsED2Ev
FNDA:36,_ZNSaISt4pairIKSsN4opae7testing13test_platformEEED2Ev
FNDA:16,_ZNSaIN4opae7testing11test_deviceEED2Ev
FNF:16
FNH:12
DA:113,62
DA:115,52
DA:116,52
DA:119,18
DA:121,70
LF:5
LH:5
end_of_record
SF:/usr/include/c++/4.8/bits/basic_ios.h
FN:46,_ZSt13__check_facetISt5ctypeIcEERKT_PS3_
FNDA:0,_ZSt13__check_facetISt5ctypeIcEERKT_PS3_
FNF:1
FNH:0
DA:46,0
DA:48,0
DA:49,0
DA:50,0
LF:4
LH:0
end_of_record
SF:/usr/include/c++/4.8/bits/basic_string.h
FN:272,_ZNSs12_Alloc_hiderD2Ev
FN:272,_ZNSs12_Alloc_hiderC2ERKS_
FN:2365,_ZStplIcSt11char_traitsIcESaIcEESbIT_T0_T1_ERKS6_S8_
FN:2402,_ZStplIcSt11char_traitsIcESaIcEESbIT_T0_T1_ERKS6_PKS3_
FN:2430,_ZStplIcSt11char_traitsIcESaIcEESbIT_T0_T1_EOS6_RKS6_
FN:2454,_ZStplIcSt11char_traitsIcESaIcEESbIT_T0_T1_EPKS3_OS6_
FN:2466,_ZStplIcSt11char_traitsIcESaIcEESbIT_T0_T1_EOS6_PKS3_
FN:2519,_ZSteqIcSt11char_traitsIcESaIcEEbRKSbIT_T0_T1_EPKS3_
FN:2569,_ZStltIcSt11char_traitsIcESaIcEEbRKSbIT_T0_T1_ES8_
FN:2717,_ZSt4swapIcSt11char_traitsIcESaIcEEvRSbIT_T0_T1_ES7_
FN:2833,_ZSt5stoulRKSsPmi
FNDA:0,_ZNSs12_Alloc_hiderC2ERKS_
FNDA:0,_ZNSs12_Alloc_hiderD2Ev
FNDA:44674,_ZStplIcSt11char_traitsIcESaIcEESbIT_T0_T1_ERKS6_S8_
FNDA:92,_ZStplIcSt11char_traitsIcESaIcEESbIT_T0_T1_ERKS6_PKS3_
FNDA:118,_ZStplIcSt11char_traitsIcESaIcEESbIT_T0_T1_EOS6_RKS6_
FNDA:328,_ZStplIcSt11char_traitsIcESaIcEESbIT_T0_T1_EPKS3_OS6_
FNDA:236,_ZStplIcSt11char_traitsIcESaIcEESbIT_T0_T1_EOS6_PKS3_
FNDA:12,_ZSteqIcSt11char_traitsIcESaIcEEbRKSbIT_T0_T1_EPKS3_
FNDA:0,_ZStltIcSt11char_traitsIcESaIcEEbRKSbIT_T0_T1_ES8_
FNDA:0,_ZSt4swapIcSt11char_traitsIcESaIcEEvRSbIT_T0_T1_ES7_
FNDA:21550,_ZSt5stoulRKSsPmi
FNF:11
FNH:7
DA:272,0
DA:2365,44674
DA:2368,44674
DA:2369,44674
DA:2370,44674
DA:2402,92
DA:2405,92
DA:2406,92
DA:2407,92
DA:2430,118
DA:2432,118
DA:2454,328
DA:2456,328
DA:2466,236
DA:2468,236
DA:2519,12
DA:2521,12
DA:2569,0
DA:2571,0
DA:2717,0
DA:2719,0
DA:2833,21550
DA:2835,21550
LF:23
LH:18
end_of_record
SF:/usr/include/c++/4.8/bits/char_traits.h
FN:254,_ZNSt11char_traitsIcE7compareEPKcS2_m
FN:258,_ZNSt11char_traitsIcE6lengthEPKc
FNDA:0,_ZNSt11char_traitsIcE7compareEPKcS2_m
FNDA:0,_ZNSt11char_traitsIcE6lengthEPKc
FNF:2
FNH:0
DA:254,0
DA:255,0
DA:258,0
DA:259,0
LF:4
LH:0
end_of_record
SF:/usr/include/c++/4.8/bits/ios_base.h
FN:123,_ZStorSt13_Ios_OpenmodeS_
FN:163,_ZStorSt12_Ios_IostateS_
FNDA:0,_ZStorSt13_Ios_OpenmodeS_
FNDA:0,_ZStorSt12_Ios_IostateS_
FNF:2
FNH:0
DA:123,0
DA:124,0
DA:163,0
DA:164,0
LF:4
LH:0
end_of_record
SF:/usr/include/c++/4.8/bits/locale_facets.h
FN:865,_ZNKSt5ctypeIcE5widenEc
FNDA:0,_ZNKSt5ctypeIcE5widenEc
FNF:1
FNH:0
DA:865,0
DA:867,0
DA:868,0
DA:869,0
DA:870,0
LF:5
LH:0
end_of_record
SF:/usr/include/c++/4.8/bits/move.h
FN:47,_ZSt11__addressofISt4pairIKiPN4opae7testing11mock_objectEEEPT_RS7_
FN:47,_ZSt11__addressofISsEPT_RS0_
FN:47,_ZSt11__addressofISt4pairIKiPFiPN4opae7testing11mock_objectEiP13__va_list_tagEEEPT_RSB_
FN:47,_ZSt11__addressofI10regmatch_tEPT_RS1_
FN:76,_ZSt7forwardIRPSt18_Rb_tree_node_baseEOT_RNSt16remove_referenceIS3_E4typeE
FN:76,_ZSt7forwardISt5tupleIIRKSsEEEOT_RNSt16remove_referenceIS4_E4typeE
FN:76,_ZSt7forwardIN4opae7testing13test_platformEEOT_RNSt16remove_referenceIS3_E4typeE
FN:76,_ZSt7forwardIRKiEOT_RNSt16remove_referenceIS2_E4typeE
FN:76,_ZSt7forwardIRPSt13_Rb_tree_nodeISt4pairIKiPN4opae7testing11mock_objectEEEEOT_RNSt16remove_referenceISB_E4typeE
FN:76,_ZSt7forwardIRPSt13_Rb_tree_nodeISt4pairIKSsN4opae7testing13test_platformEEEEOT_RNSt16remove_referenceISA_E4typeE
FN:76,_ZSt7forwardISt5tupleIIEEEOT_RNSt16remove_referenceIS2_E4typeE
FN:76,_ZSt7forwardISt5tupleIIRKiEEEOT_RNSt16remove_referenceIS4_E4typeE
FN:76,_ZSt7forwardISsEOT_RNSt16remove_referenceIS0_E4typeE
FN:76,_ZSt7forwardIRKSsEOT_RNSt16remove_referenceIS2_E4typeE
FN:76,_ZSt7forwardIRA9_KcEOT_RNSt16remove_referenceIS3_E4typeE
FN:76,_ZSt7forwardIRKSt21piecewise_construct_tEOT_RNSt16remove_referenceIS3_E4typeE
FN:76,_ZSt7forwardIRKSt4pairIKSsN4opae7testing13test_platformEEEOT_RNSt16remove_referenceIS8_E4typeE
FN:76,_ZSt7forwardIRPSt13_Rb_tree_nodeISt4pairIKiPFiPN4opae7testing11mock_objectEiP13__va_list_tagEEEEOT_RNSt16remove_referenceISF_E4typeE
FN:101,_ZSt4moveIRSaISt13_Rb_tree_nodeISt4pairIKSsN4opae7testing13test_platformEEEEEONSt16remove_referenceIT_E4typeEOSB_
FN:101,_ZSt4moveIRPN4opae7testing11test_deviceEEONSt16remove_referenceIT_E4typeEOS6_
FN:101,_ZSt4moveIRPN4opae7testing5regexILm32EEEEONSt16remove_referenceIT_E4typeEOS7_
FN:101,_ZSt4moveIRPN4opae7testing7match_tEEONSt16remove_referenceIT_E4typeEOS6_
FN:101,_ZSt4moveIRSt12__shared_ptrIN4opae7testing7match_tELN9__gnu_cxx12_Lock_policyE2EEEONSt16remove_referenceIT_E4typeEOS9_
FN:101,_ZSt4moveIRSt6vectorIN4opae7testing11test_deviceESaIS3_EEEONSt16remove_referenceIT_E4typeEOS8_
FN:101,_ZSt4moveIRSt11_Tuple_implILm1EIEEEONSt16remove_referenceIT_E4typeEOS4_
FN:101,_ZSt4moveIRSsEONSt16remove_referenceIT_E4typeEOS2_
FN:101,_ZSt4moveIRSaIN4opae7testing11test_deviceEEEONSt16remove_referenceIT_E4typeEOS6_
FN:101,_ZSt4moveIRSt10shared_ptrIN4opae7testing7match_tEEEONSt16remove_referenceIT_E4typeEOS7_
FN:166,_ZSt4swapIPN4opae7testing5regexILm32EEEEvRT_S6_
FN:166,_ZSt4swapIPN4opae7testing11test_deviceEEvRT_S5_
FN:166,_ZSt4swapIPN4opae7testing7match_tEEvRT_S5_
FNDA:0,_ZSt11__addressofISsEPT_RS0_
FNDA:64874,_ZSt11__addressofI10regmatch_tEPT_RS1_
FNDA:62,_ZSt11__addressofISt4pairIKiPN4opae7testing11mock_objectEEEPT_RS7_
FNDA:60,_ZSt11__addressofISt4pairIKiPFiPN4opae7testing11mock_objectEiP13__va_list_tagEEEPT_RSB_
FNDA:1104,_ZSt7forwardIRKiEOT_RNSt16remove_referenceIS2_E4typeE
FNDA:0,_ZSt7forwardIRKSsEOT_RNSt16remove_referenceIS2_E4typeE
FNDA:264,_ZSt7forwardIRPSt13_Rb_tree_nodeISt4pairIKiPN4opae7testing11mock_objectEEEEOT_RNSt16remove_referenceISB_E4typeE
FNDA:36,_ZSt7forwardIRPSt13_Rb_tree_nodeISt4pairIKiPFiPN4opae7testing11mock_objectEiP13__va_list_tagEEEEOT_RNSt16remove_referenceISF_E4typeE
FNDA:36,_ZSt7forwardIRPSt13_Rb_tree_nodeISt4pairIKSsN4opae7testing13test_platformEEEEOT_RNSt16remove_referenceISA_E4typeE
FNDA:237186,_ZSt7forwardISsEOT_RNSt16remove_referenceIS0_E4typeE
FNDA:72,_ZSt7forwardIRPSt18_Rb_tree_node_baseEOT_RNSt16remove_referenceIS3_E4typeE
FNDA:126,_ZSt7forwardIRKSt4pairIKSsN4opae7testing13test_platformEEEOT_RNSt16remove_referenceIS8_E4typeE
FNDA:3312,_ZSt7forwardISt5tupleIIRKiEEEOT_RNSt16remove_referenceIS4_E4typeE
FNDA:3312,_ZSt7forwardISt5tupleIIEEEOT_RNSt16remove_referenceIS2_E4typeE
FNDA:0,_ZSt7forwardISt5tupleIIRKSsEEEOT_RNSt16remove_referenceIS4_E4typeE
FNDA:3312,_ZSt7forwardIRKSt21piecewise_construct_tEOT_RNSt16remove_referenceIS3_E4typeE
FNDA:18,_ZSt7forwardIN4opae7testing13test_platformEEOT_RNSt16remove_referenceIS3_E4typeE
FNDA:18,_ZSt7forwardIRA9_KcEOT_RNSt16remove_referenceIS3_E4typeE
FNDA:552,_ZSt4moveIRSt11_Tuple_implILm1EIEEEONSt16remove_referenceIT_E4typeEOS4_
FNDA:129966,_ZSt4moveIRPN4opae7testing7match_tEEONSt16remove_referenceIT_E4typeEOS6_
FNDA:0,_ZSt4moveIRPN4opae7testing5regexILm32EEEEONSt16remove_referenceIT_E4typeEOS7_
FNDA:36,_ZSt4moveIRPN4opae7testing11test_deviceEEONSt16remove_referenceIT_E4typeEOS6_
FNDA:18,_ZSt4moveIRSaISt13_Rb_tree_nodeISt4pairIKSsN4opae7testing13test_platformEEEEEONSt16remove_referenceIT_E4typeEOSB_
FNDA:21770,_ZSt4moveIRSt12__shared_ptrIN4opae7testing7match_tELN9__gnu_cxx12_Lock_policyE2EEEONSt16remove_referenceIT_E4typeEOS9_
FNDA:8,_ZSt4moveIRSaIN4opae7testing11test_deviceEEEONSt16remove_referenceIT_E4typeEOS6_
FNDA:21770,_ZSt4moveIRSt10shared_ptrIN4opae7testing7match_tEEEONSt16remove_referenceIT_E4typeEOS7_
FNDA:65968,_ZSt4moveIRSsEONSt16remove_referenceIT_E4typeEOS2_
FNDA:4,_ZSt4moveIRSt6vectorIN4opae7testing11test_deviceESaIS3_EEEONSt16remove_referenceIT_E4typeEOS8_
FNDA:43322,_ZSt4swapIPN4opae7testing7match_tEEvRT_S5_
FNDA:0,_ZSt4swapIPN4opae7testing5regexILm32EEEEvRT_S6_
FNDA:12,_ZSt4swapIPN4opae7testing11test_deviceEEvRT_S5_
FNF:31
FNH:26
DA:47,64996
DA:50,64996
DA:76,248796
DA:77,248796
DA:101,240092
DA:102,240092
DA:166,43334
DA:175,43334
DA:176,43334
DA:177,43334
DA:178,43334
LF:11
LH:11
end_of_record
SF:/usr/include/c++/4.8/bits/shared_ptr.h
FN:93,_ZNSt10shared_ptrIN4opae7testing5regexILm32EEEED2Ev
FN:93,_ZNSt10shared_ptrIN4opae7testing7match_tEED2Ev
FN:112,_ZNSt10shared_ptrIN4opae7testing5regexILm32EEEEC2IS3_EEPT_
FN:289,_ZNSt10shared_ptrIN4opae7testing7match_tEEaSEOS3_
FNDA:43326,_ZNSt10shared_ptrIN4opae7testing7match_tEED2Ev
FNDA:43112,_ZNSt10shared_ptrIN4opae7testing5regexILm32EEEED2Ev
FNDA:43112,_ZNSt10shared_ptrIN4opae7testing5regexILm32EEEEC2IS3_EEPT_
FNDA:21770,_ZNSt10shared_ptrIN4opae7testing7match_tEEaSEOS3_
FNF:4
FNH:4
DA:93,86438
DA:112,43112
DA:113,43112
DA:289,21770
DA:291,21770
DA:292,21770
LF:6
LH:6
end_of_record
SF:/usr/include/c++/4.8/bits/shared_ptr_base.h
FN:86,_ZNSt11_Mutex_baseILN9__gnu_cxx12_Lock_policyE2EEC2Ev
FN:109,_ZNSt16_Sp_counted_baseILN9__gnu_cxx12_Lock_policyE2EEC2Ev
FN:113,_ZNSt16_Sp_counted_baseILN9__gnu_cxx12_Lock_policyE2EED2Ev
FN:113,_ZNSt16_Sp_counted_baseILN9__gnu_cxx12_Lock_policyE2EED0Ev
FN:123,_ZNSt16_Sp_counted_baseILN9__gnu_cxx12_Lock_policyE2EE10_M_destroyEv
FN:137,_ZNSt16_Sp_counted_baseILN9__gnu_cxx12_Lock_policyE2EE10_M_releaseEv
FN:281,_ZNSt15_Sp_counted_ptrIPN4opae7testing5regexILm32EEELN9__gnu_cxx12_Lock_policyE2EED0Ev
FN:281,_ZNSt15_Sp_counted_ptrIPN4opae7testing5regexILm32EEELN9__gnu_cxx12_Lock_policyE2EED2Ev
FN:281,_ZNSt15_Sp_counted_ptrIPN4opae7testing7match_tELN9__gnu_cxx12_Lock_policyE2EED0Ev
FN:281,_ZNSt15_Sp_counted_ptrIPN4opae7testing7match_tELN9__gnu_cxx12_Lock_policyE2EED2Ev
FN:285,_ZNSt15_Sp_counted_ptrIPN4opae7testing7match_tELN9__gnu_cxx12_Lock_policyE2EEC2ES3_
FN:285,_ZNSt15_Sp_counted_ptrIPN4opae7testing5regexILm32EEELN9__gnu_cxx12_Lock_policyE2EEC2ES4_
FN:289,_ZNSt15_Sp_counted_ptrIPN4opae7testing7match_tELN9__gnu_cxx12_Lock_policyE2EE10_M_disposeEv
FN:289,_ZNSt15_Sp_counted_ptrIPN4opae7testing5regexILm32EEELN9__gnu_cxx12_Lock_policyE2EE10_M_disposeEv
FN:293,_ZNSt15_Sp_counted_ptrIPN4opae7testing5regexILm32EEELN9__gnu_cxx12_Lock_policyE2EE10_M_destroyEv
FN:293,_ZNSt15_Sp_counted_ptrIPN4opae7testing7match_tELN9__gnu_cxx12_Lock_policyE2EE10_M_destroyEv
FN:297,_ZNSt15_Sp_counted_ptrIPN4opae7testing5regexILm32EEELN9__gnu_cxx12_Lock_policyE2EE14_M_get_deleterERKSt9type_info
FN:297,_ZNSt15_Sp_counted_ptrIPN4opae7testing7match_tELN9__gnu_cxx12_Lock_policyE2EE14_M_get_deleterERKSt9type_info
FN:443,_ZNSt14__shared_countILN9__gnu_cxx12_Lock_policyE2EEC1Ev
FN:448,_ZNSt14__shared_countILN9__gnu_cxx12_Lock_policyE2EEC2IPN4opae7testing5regexILm32EEEEET_
FN:448,_ZNSt14__shared_countILN9__gnu_cxx12_Lock_policyE2EEC2IPN4opae7testing7match_tEEET_
FN:543,_ZNSt14__shared_countILN9__gnu_cxx12_Lock_policyE2EED2Ev
FN:572,_ZNSt14__shared_countILN9__gnu_cxx12_Lock_policyE2EE7_M_swapERS2_
FN:723,_ZSt32__enable_shared_from_this_helperILN9__gnu_cxx12_Lock_policyE2EEvRKSt14__shared_countIXT_EEz
FN:733,_ZNSt12__shared_ptrIN4opae7testing5regexILm32EEELN9__gnu_cxx12_Lock_policyE2EEC2Ev
FN:738,_ZNSt12__shared_ptrIN4opae7testing5regexILm32EEELN9__gnu_cxx12_Lock_policyE2EEC2IS3_EEPT_
FN:738,_ZNSt12__shared_ptrIN4opae7testing7match_tELN9__gnu_cxx12_Lock_policyE2EEC2IS2_EEPT_
FN:781,_ZNSt12__shared_ptrIN4opae7testing7match_tELN9__gnu_cxx12_Lock_policyE2EED2Ev
FN:781,_ZNSt12__shared_ptrIN4opae7testing5regexILm32EEELN9__gnu_cxx12_Lock_policyE2EED2Ev
FN:789,_ZNSt12__shared_ptrIN4opae7testing7match_tELN9__gnu_cxx12_Lock_policyE2EEC2EOS5_
FN:858,_ZNSt12__shared_ptrIN4opae7testing7match_tELN9__gnu_cxx12_Lock_policyE2EEaSEOS5_
FN:881,_ZNSt12__shared_ptrIN4opae7testing5regexILm32EEELN9__gnu_cxx12_Lock_policyE2EE5resetEv
FN:886,_ZNSt12__shared_ptrIN4opae7testing7match_tELN9__gnu_cxx12_Lock_policyE2EE5resetIS2_EEvPT_
FN:912,_ZNKSt12__shared_ptrIN4opae7testing7match_tELN9__gnu_cxx12_Lock_policyE2EEptEv
FN:912,_ZNKSt12__shared_ptrIN4opae7testing5regexILm32EEELN9__gnu_cxx12_Lock_policyE2EEptEv
FN:922,_ZNKSt12__shared_ptrIN4opae7testing7match_tELN9__gnu_cxx12_Lock_policyE2EEcvbEv
FN:922,_ZNKSt12__shared_ptrIN4opae7testing5regexILm32EEELN9__gnu_cxx12_Lock_policyE2EEcvbEv
FN:934,_ZNSt12__shared_ptrIN4opae7testing7match_tELN9__gnu_cxx12_Lock_policyE2EE4swapERS5_
FN:934,_ZNSt12__shared_ptrIN4opae7testing5regexILm32EEELN9__gnu_cxx12_Lock_policyE2EE4swapERS6_
FNDA:63695,_ZNSt11_Mutex_baseILN9__gnu_cxx12_Lock_policyE2EEC2Ev
FNDA:63695,_ZNSt16_Sp_counted_baseILN9__gnu_cxx12_Lock_policyE2EEC2Ev
FNDA:0,_ZNSt16_Sp_counted_baseILN9__gnu_cxx12_Lock_policyE2EED0Ev
FNDA:63695,_ZNSt16_Sp_counted_baseILN9__gnu_cxx12_Lock_policyE2EED2Ev
FNDA:0,_ZNSt16_Sp_counted_baseILN9__gnu_cxx12_Lock_policyE2EE10_M_destroyEv
FNDA:63695,_ZNSt16_Sp_counted_baseILN9__gnu_cxx12_Lock_policyE2EE10_M_releaseEv
FNDA:43112,_ZNSt15_Sp_counted_ptrIPN4opae7testing5regexILm32EEELN9__gnu_cxx12_Lock_policyE2EED0Ev
FNDA:43112,_ZNSt15_Sp_counted_ptrIPN4opae7testing5regexILm32EEELN9__gnu_cxx12_Lock_policyE2EED2Ev
FNDA:21552,_ZNSt15_Sp_counted_ptrIPN4opae7testing7match_tELN9__gnu_cxx12_Lock_policyE2EED0Ev
FNDA:21552,_ZNSt15_Sp_counted_ptrIPN4opae7testing7match_tELN9__gnu_cxx12_Lock_policyE2EED2Ev
FNDA:21552,_ZNSt15_Sp_counted_ptrIPN4opae7testing7match_tELN9__gnu_cxx12_Lock_policyE2EEC2ES3_
FNDA:43112,_ZNSt15_Sp_counted_ptrIPN4opae7testing5regexILm32EEELN9__gnu_cxx12_Lock_policyE2EEC2ES4_
FNDA:43112,_ZNSt15_Sp_counted_ptrIPN4opae7testing5regexILm32EEELN9__gnu_cxx12_Lock_policyE2EE10_M_disposeEv
FNDA:21552,_ZNSt15_Sp_counted_ptrIPN4opae7testing7match_tELN9__gnu_cxx12_Lock_policyE2EE10_M_disposeEv
FNDA:43112,_ZNSt15_Sp_counted_ptrIPN4opae7testing5regexILm32EEELN9__gnu_cxx12_Lock_policyE2EE10_M_destroyEv
FNDA:21552,_ZNSt15_Sp_counted_ptrIPN4opae7testing7match_tELN9__gnu_cxx12_Lock_policyE2EE10_M_destroyEv
FNDA:0,_ZNSt15_Sp_counted_ptrIPN4opae7testing5regexILm32EEELN9__gnu_cxx12_Lock_policyE2EE14_M_get_deleterERKSt9type_info
FNDA:0,_ZNSt15_Sp_counted_ptrIPN4opae7testing7match_tELN9__gnu_cxx12_Lock_policyE2EE14_M_get_deleterERKSt9type_info
FNDA:21396,_ZNSt14__shared_countILN9__gnu_cxx12_Lock_policyE2EEC1Ev
FNDA:21552,_ZNSt14__shared_countILN9__gnu_cxx12_Lock_policyE2EEC2IPN4opae7testing7match_tEEET_
FNDA:43112,_ZNSt14__shared_countILN9__gnu_cxx12_Lock_policyE2EEC2IPN4opae7testing5regexILm32EEEEET_
FNDA:127720,_ZNSt14__shared_countILN9__gnu_cxx12_Lock_policyE2EED2Ev
FNDA:64021,_ZNSt14__shared_countILN9__gnu_cxx12_Lock_policyE2EE7_M_swapERS2_
FNDA:63695,_ZSt32__enable_shared_from_this_helperILN9__gnu_cxx12_Lock_policyE2EEvRKSt14__shared_countIXT_EEz
FNDA:0,_ZNSt12__shared_ptrIN4opae7testing5regexILm32EEELN9__gnu_cxx12_Lock_policyE2EEC2Ev
FNDA:21552,_ZNSt12__shared_ptrIN4opae7testing7match_tELN9__gnu_cxx12_Lock_policyE2EEC2IS2_EEPT_
FNDA:43112,_ZNSt12__shared_ptrIN4opae7testing5regexILm32EEELN9__gnu_cxx12_Lock_policyE2EEC2IS3_EEPT_
FNDA:86648,_ZNSt12__shared_ptrIN4opae7testing7match_tELN9__gnu_cxx12_Lock_policyE2EED2Ev
FNDA:43112,_ZNSt12__shared_ptrIN4opae7testing5regexILm32EEELN9__gnu_cxx12_Lock_policyE2EED2Ev
FNDA:21770,_ZNSt12__shared_ptrIN4opae7testing7match_tELN9__gnu_cxx12_Lock_policyE2EEC2EOS5_
FNDA:21770,_ZNSt12__shared_ptrIN4opae7testing7match_tELN9__gnu_cxx12_Lock_policyE2EEaSEOS5_
FNDA:0,_ZNSt12__shared_ptrIN4opae7testing5regexILm32EEELN9__gnu_cxx12_Lock_policyE2EE5resetEv
FNDA:21552,_ZNSt12__shared_ptrIN4opae7testing7match_tELN9__gnu_cxx12_Lock_policyE2EE5resetIS2_EEvPT_
FNDA:21953,_ZNKSt12__shared_ptrIN4opae7testing7match_tELN9__gnu_cxx12_Lock_policyE2EEptEv
FNDA:64882,_ZNKSt12__shared_ptrIN4opae7testing5regexILm32EEELN9__gnu_cxx12_Lock_policyE2EEptEv
FNDA:21770,_ZNKSt12__shared_ptrIN4opae7testing7match_tELN9__gnu_cxx12_Lock_policyE2EEcvbEv
FNDA:21770,_ZNKSt12__shared_ptrIN4opae7testing5regexILm32EEELN9__gnu_cxx12_Lock_policyE2EEcvbEv
FNDA:43322,_ZNSt12__shared_ptrIN4opae7testing7match_tELN9__gnu_cxx12_Lock_policyE2EE4swapERS5_
FNDA:0,_ZNSt12__shared_ptrIN4opae7testing5regexILm32EEELN9__gnu_cxx12_Lock_policyE2EE4swapERS6_
FNF:39
FNH:32
DA:86,63695
DA:109,63695
DA:110,63695
DA:113,63695
DA:114,63695
DA:123,0
DA:124,0
DA:137,63695
DA:141,63695
DA:144,63695
DA:157,63695
DA:158,63695
DA:161,63695
DA:164,63695
DA:281,129328
DA:285,64664
DA:286,64664
DA:289,64664
DA:290,64664
DA:293,64664
DA:294,64664
DA:297,0
DA:298,0
DA:443,21396
DA:444,21396
DA:448,64664
DA:452,64664
DA:454,=====
DA:456,=====
DA:457,=====
DA:459,64664
DA:543,127720
DA:545,127720
DA:546,63695
DA:547,127720
DA:572,64021
DA:574,64021
DA:575,64021
DA:576,64021
DA:577,64021
DA:723,63695
DA:724,63695
DA:733,0
DA:734,0
DA:735,0
DA:738,64664
DA:739,64664
DA:743,64664
DA:744,64664
DA:781,129760
DA:789,21770
DA:790,21770
DA:792,21770
DA:793,21770
DA:794,21770
DA:858,21770
DA:860,21770
DA:861,21770
DA:881,0
DA:882,0
DA:886,21552
DA:890,21552
DA:891,21552
DA:912,86835
DA:915,86835
DA:922,43540
DA:923,43540
DA:934,43322
DA:936,43322
DA:937,43322
DA:938,43322
LF:71
LH:59
end_of_record
SF:/usr/include/c++/4.8/bits/stl_algo.h
FN:78,_ZSt22__move_median_to_firstIN9__gnu_cxx17__normal_iteratorIPSsSt6vectorISsSaISsEEEEEvT_S7_S7_S7_
FN:1929,_ZSt13__heap_selectIN9__gnu_cxx17__normal_iteratorIPSsSt6vectorISsSaISsEEEEEvT_S7_S7_
FN:2092,_ZSt25__unguarded_linear_insertIN9__gnu_cxx17__normal_iteratorIPSsSt6vectorISsSaISsEEEEEvT_
FN:2129,_ZSt16__insertion_sortIN9__gnu_cxx17__normal_iteratorIPSsSt6vectorISsSaISsEEEEEvT_S7_
FN:2174,_ZSt26__unguarded_insertion_sortIN9__gnu_cxx17__normal_iteratorIPSsSt6vectorISsSaISsEEEEEvT_S7_
FN:2206,_ZSt22__final_insertion_sortIN9__gnu_cxx17__normal_iteratorIPSsSt6vectorISsSaISsEEEEEvT_S7_
FN:2237,_ZSt21__unguarded_partitionIN9__gnu_cxx17__normal_iteratorIPSsSt6vectorISsSaISsEEEESsET_S7_S7_RKT0_
FN:2278,_ZSt27__unguarded_partition_pivotIN9__gnu_cxx17__normal_iteratorIPSsSt6vectorISsSaISsEEEEET_S7_S7_
FN:2302,_ZSt16__introsort_loopIN9__gnu_cxx17__normal_iteratorIPSsSt6vectorISsSaISsEEEElEvT_S7_T0_
FN:4915,_ZSt9transformISt17_Rb_tree_iteratorISt4pairIKSsN4opae7testing13test_platformEEEN9__gnu_cxx17__normal_iteratorIPSsSt6vectorISsSaISsEEEEZNS5_4keysEbEUlRKS1_ISsS5_EE_ET0_T_SK_SJ_T1_
FN:5294,_ZSt12partial_sortIN9__gnu_cxx17__normal_iteratorIPSsSt6vectorISsSaISsEEEEEvT_S7_S7_
FN:5447,_ZSt4sortIN9__gnu_cxx17__normal_iteratorIPSsSt6vectorISsSaISsEEEEEvT_S7_
FNDA:0,_ZSt22__move_median_to_firstIN9__gnu_cxx17__normal_iteratorIPSsSt6vectorISsSaISsEEEEEvT_S7_S7_S7_
FNDA:0,_ZSt13__heap_selectIN9__gnu_cxx17__normal_iteratorIPSsSt6vectorISsSaISsEEEEEvT_S7_S7_
FNDA:0,_ZSt25__unguarded_linear_insertIN9__gnu_cxx17__normal_iteratorIPSsSt6vectorISsSaISsEEEEEvT_
FNDA:90,_ZSt16__insertion_sortIN9__gnu_cxx17__normal_iteratorIPSsSt6vectorISsSaISsEEEEEvT_S7_
FNDA:0,_ZSt26__unguarded_insertion_sortIN9__gnu_cxx17__normal_iteratorIPSsSt6vectorISsSaISsEEEEEvT_S7_
FNDA:90,_ZSt22__final_insertion_sortIN9__gnu_cxx17__normal_iteratorIPSsSt6vectorISsSaISsEEEEEvT_S7_
FNDA:0,_ZSt21__unguarded_partitionIN9__gnu_cxx17__normal_iteratorIPSsSt6vectorISsSaISsEEEESsET_S7_S7_RKT0_
FNDA:0,_ZSt27__unguarded_partition_pivotIN9__gnu_cxx17__normal_iteratorIPSsSt6vectorISsSaISsEEEEET_S7_S7_
FNDA:90,_ZSt16__introsort_loopIN9__gnu_cxx17__normal_iteratorIPSsSt6vectorISsSaISsEEEElEvT_S7_T0_
FNDA:108,_ZSt9transformISt17_Rb_tree_iteratorISt4pairIKSsN4opae7testing13test_platformEEEN9__gnu_cxx17__normal_iteratorIPSsSt6vectorISsSaISsEEEEZNS5_4keysEbEUlRKS1_ISsS5_EE_ET0_T_SK_SJ_T1_
FNDA:0,_ZSt12partial_sortIN9__gnu_cxx17__normal_iteratorIPSsSt6vectorISsSaISsEEEEEvT_S7_S7_
FNDA:90,_ZSt4sortIN9__gnu_cxx17__normal_iteratorIPSsSt6vectorISsSaISsEEEEEvT_S7_
FNF:12
FNH:5
DA:78,0
DA:85,0
DA:87,0
DA:88,0
DA:89,0
DA:90,0
DA:92,0
DA:94,0
DA:95,0
DA:96,0
DA:97,0
DA:99,0
DA:100,0
DA:1929,0
DA:1933,0
DA:1934,0
DA:1935,0
DA:1936,0
DA:1937,0
DA:2092,0
DA:2095,0
DA:2096,0
DA:2097,0
DA:2098,0
DA:2100,0
DA:2101,0
DA:2102,0
DA:2104,0
DA:2105,0
DA:2129,90
DA:2132,90
DA:2133,90
DA:2135,90
DA:2137,0
DA:2140,0
DA:2141,0
DA:2142,0
DA:2145,0
DA:2174,0
DA:2180,0
DA:2181,0
DA:2182,0
DA:2206,90
DA:2209,90
DA:2211,0
DA:2212,0
DA:2215,90
DA:2216,90
DA:2237,0
DA:2242,0
DA:2243,0
DA:2244,0
DA:2245,0
DA:2246,0
DA:2247,0
DA:2248,0
DA:2249,0
DA:2250,0
DA:2278,0
DA:2281,0
DA:2282,0
DA:2283,0
DA:2302,90
DA:2306,180
DA:2308,0
DA:2310,0
DA:2311,90
DA:2313,0
DA:2315,0
DA:2316,0
DA:2317,0
DA:4915,108
DA:4925,216
DA:4926,108
DA:4927,108
DA:5294,0
DA:5308,0
DA:5309,0
DA:5310,0
DA:5447,90
DA:5458,90
DA:5460,90
DA:5461,90
DA:5462,90
DA:5464,90
LF:85
LH:21
end_of_record
SF:/usr/include/c++/4.8/bits/stl_algobase.h
FN:119,_ZSt9iter_swapIN9__gnu_cxx17__normal_iteratorIPSsSt6vectorISsSaISsEEEES6_EvT_T0_
FN:193,_ZSt3minImERKT_S2_S2_
FN:216,_ZSt3maxImERKT_S2_S2_
FN:277,_ZSt12__niter_baseIPN4opae7testing11test_deviceEENSt11_Niter_baseIT_E13iterator_typeES5_
FN:277,_ZSt12__niter_baseIPKN4opae7testing11test_deviceEENSt11_Niter_baseIT_E13iterator_typeES6_
FN:277,_ZSt12__niter_baseIN9__gnu_cxx17__normal_iteratorIPKN4opae7testing11test_deviceESt6vectorIS4_SaIS4_EEEEENSt11_Niter_baseIT_E13iterator_typeESC_
FN:277,_ZSt12__niter_baseIN9__gnu_cxx17__normal_iteratorIPSsSt6vectorISsSaISsEEEEENSt11_Niter_baseIT_E13iterator_typeES8_
FN:288,_ZSt12__miter_baseIN9__gnu_cxx17__normal_iteratorIPKN4opae7testing11test_deviceESt6vectorIS4_SaIS4_EEEEENSt11_Miter_baseIT_E13iterator_typeESC_
FN:288,_ZSt12__miter_baseIN9__gnu_cxx17__normal_iteratorIPSsSt6vectorISsSaISsEEEEENSt11_Miter_baseIT_E13iterator_typeES8_
FN:288,_ZSt12__miter_baseIPKN4opae7testing11test_deviceEENSt11_Miter_baseIT_E13iterator_typeES6_
FN:368,_ZNSt11__copy_moveILb0ELb1ESt26random_access_iterator_tagE8__copy_mIN4opae7testing11test_deviceEEEPT_PKS6_S9_S7_
FN:379,_ZSt13__copy_move_aILb0EPKN4opae7testing11test_deviceEPS2_ET1_T0_S7_S6_
FN:424,_ZSt14__copy_move_a2ILb0EPKN4opae7testing11test_deviceEPS2_ET1_T0_S7_S6_
FN:424,_ZSt14__copy_move_a2ILb0EN9__gnu_cxx17__normal_iteratorIPKN4opae7testing11test_deviceESt6vectorIS4_SaIS4_EEEEPS4_ET1_T0_SD_SC_
FN:450,_ZSt4copyIPKN4opae7testing11test_deviceEPS2_ET0_T_S7_S6_
FN:450,_ZSt4copyIN9__gnu_cxx17__normal_iteratorIPKN4opae7testing11test_deviceESt6vectorIS4_SaIS4_EEEEPS4_ET0_T_SD_SC_
FN:548,_ZNSt20__copy_move_backwardILb1ELb0ESt26random_access_iterator_tagE13__copy_move_bIPSsS3_EET0_T_S5_S4_
FN:574,_ZSt22__copy_move_backward_aILb1EPSsS0_ET1_T0_S2_S1_
FN:592,_ZSt23__copy_move_backward_a2ILb1EN9__gnu_cxx17__normal_iteratorIPSsSt6vectorISsSaISsEEEES6_ET1_T0_S8_S7_
FN:655,_ZSt13move_backwardIN9__gnu_cxx17__normal_iteratorIPSsSt6vectorISsSaISsEEEES6_ET0_T_S8_S7_
FN:988,_ZSt4__lgl
FNDA:0,_ZSt9iter_swapIN9__gnu_cxx17__normal_iteratorIPSsSt6vectorISsSaISsEEEES6_EvT_T0_
FNDA:0,_ZSt3minImERKT_S2_S2_
FNDA:26,_ZSt3maxImERKT_S2_S2_
FNDA:36,_ZSt12__niter_baseIPKN4opae7testing11test_deviceEENSt11_Niter_baseIT_E13iterator_typeES6_
FNDA:262,_ZSt12__niter_baseIPN4opae7testing11test_deviceEENSt11_Niter_baseIT_E13iterator_typeES5_
FNDA:488,_ZSt12__niter_baseIN9__gnu_cxx17__normal_iteratorIPKN4opae7testing11test_deviceESt6vectorIS4_SaIS4_EEEEENSt11_Niter_baseIT_E13iterator_typeESC_
FNDA:0,_ZSt12__niter_baseIN9__gnu_cxx17__normal_iteratorIPSsSt6vectorISsSaISsEEEEENSt11_Niter_baseIT_E13iterator_typeES8_
FNDA:36,_ZSt12__miter_baseIPKN4opae7testing11test_deviceEENSt11_Miter_baseIT_E13iterator_typeES6_
FNDA:488,_ZSt12__miter_baseIN9__gnu_cxx17__normal_iteratorIPKN4opae7testing11test_deviceESt6vectorIS4_SaIS4_EEEEENSt11_Miter_baseIT_E13iterator_typeESC_
FNDA:0,_ZSt12__miter_baseIN9__gnu_cxx17__normal_iteratorIPSsSt6vectorISsSaISsEEEEENSt11_Miter_baseIT_E13iterator_typeES8_
FNDA:262,_ZNSt11__copy_moveILb0ELb1ESt26random_access_iterator_tagE8__copy_mIN4opae7testing11test_deviceEEEPT_PKS6_S9_S7_
FNDA:262,_ZSt13__copy_move_aILb0EPKN4opae7testing11test_deviceEPS2_ET1_T0_S7_S6_
FNDA:18,_ZSt14__copy_move_a2ILb0EPKN4opae7testing11test_deviceEPS2_ET1_T0_S7_S6_
FNDA:244,_ZSt14__copy_move_a2ILb0EN9__gnu_cxx17__normal_iteratorIPKN4opae7testing11test_deviceESt6vectorIS4_SaIS4_EEEEPS4_ET1_T0_SD_SC_
FNDA:18,_ZSt4copyIPKN4opae7testing11test_deviceEPS2_ET0_T_S7_S6_
FNDA:244,_ZSt4copyIN9__gnu_cxx17__normal_iteratorIPKN4opae7testing11test_deviceESt6vectorIS4_SaIS4_EEEEPS4_ET0_T_SD_SC_
FNDA:0,_ZNSt20__copy_move_backwardILb1ELb0ESt26random_access_iterator_tagE13__copy_move_bIPSsS3_EET0_T_S5_S4_
FNDA:0,_ZSt22__copy_move_backward_aILb1EPSsS0_ET1_T0_S2_S1_
FNDA:0,_ZSt23__copy_move_backward_a2ILb1EN9__gnu_cxx17__normal_iteratorIPSsSt6vectorISsSaISsEEEES6_ET1_T0_S8_S7_
FNDA:0,_ZSt13move_backwardIN9__gnu_cxx17__normal_iteratorIPSsSt6vectorISsSaISsEEEES6_ET0_T_S8_S7_
FNDA:90,_ZSt4__lgl
FNF:21
FNH:13
DA:119,0
DA:147,0
DA:149,0
DA:193,0
DA:198,0
DA:199,0
DA:200,0
DA:216,26
DA:221,26
DA:222,18
DA:223,8
DA:277,786
DA:278,786
DA:288,524
DA:289,524
DA:368,262
DA:370,262
DA:371,262
DA:372,262
DA:373,262
DA:379,262
DA:387,262
DA:390,262
DA:424,262
DA:428,262
DA:450,262
DA:460,262
DA:548,0
DA:551,0
DA:552,0
DA:553,0
DA:574,0
DA:582,0
DA:587,0
DA:592,0
DA:596,0
DA:655,0
DA:667,0
DA:988,90
DA:989,90
LF:40
LH:22
end_of_record
SF:/usr/include/c++/4.8/bits/stl_construct.h
FN:74,_ZSt10_ConstructISsISsEEvPT_DpOT0_
FN:74,_ZSt10_ConstructISsIEEvPT_DpOT0_
FN:74,_ZSt10_ConstructISsIRKSsEEvPT_DpOT0_
FN:92,_ZSt8_DestroyISsEvPT_
FN:100,_ZNSt12_Destroy_auxILb0EE9__destroyIPSsEEvT_S3_
FN:112,_ZNSt12_Destroy_auxILb1EE9__destroyIPN4opae7testing11test_deviceEEEvT_S6_
FN:122,_ZSt8_DestroyIPN4opae7testing11test_deviceEEvT_S4_
FN:122,_ZSt8_DestroyIPSsEvT_S1_
FN:148,_ZSt8_DestroyIPN4opae7testing11test_deviceES2_EvT_S4_RSaIT0_E
FN:148,_ZSt8_DestroyIPSsSsEvT_S1_RSaIT0_E
FNDA:21972,_ZSt10_ConstructISsISsEEvPT_DpOT0_
FNDA:108,_ZSt10_ConstructISsIEEvPT_DpOT0_
FNDA:0,_ZSt10_ConstructISsIRKSsEEvPT_DpOT0_
FNDA:0,_ZSt8_DestroyISsEvPT_
FNDA:8,_ZNSt12_Destroy_auxILb0EE9__destroyIPSsEEvT_S3_
FNDA:8,_ZNSt12_Destroy_auxILb1EE9__destroyIPN4opae7testing11test_deviceEEEvT_S6_
FNDA:8,_ZSt8_DestroyIPN4opae7testing11test_deviceEEvT_S4_
FNDA:8,_ZSt8_DestroyIPSsEvT_S1_
FNDA:8,_ZSt8_DestroyIPN4opae7testing11test_deviceES2_EvT_S4_RSaIT0_E
FNDA:8,_ZSt8_DestroyIPSsSsEvT_S1_RSaIT0_E
FNF:10
FNH:8
DA:74,22080
DA:75,22080
DA:92,0
DA:93,0
DA:100,8
DA:102,8
DA:103,0
DA:104,8
DA:112,8
DA:122,16
DA:126,16
DA:128,16
DA:148,16
DA:151,16
DA:152,16
LF:15
LH:12
end_of_record
SF:/usr/include/c++/4.8/bits/stl_function.h
FN:234,_ZNKSt4lessISsEclERKSsS2_
FN:234,_ZNKSt4lessIiEclERKiS2_
FN:494,_ZNKSt10_Select1stISt4pairIKiPN4opae7testing11mock_objectEEEclERKS6_
FN:494,_ZNKSt10_Select1stISt4pairIKSsN4opae7testing13test_platformEEEclERKS5_
FN:494,_ZNKSt10_Select1stISt4pairIKiPFiPN4opae7testing11mock_objectEiP13__va_list_tagEEEclERKSA_
FNDA:67632,_ZNKSt4lessIiEclERKiS2_
FNDA:0,_ZNKSt4lessISsEclERKSsS2_
FNDA:43749,_ZNKSt10_Select1stISt4pairIKiPN4opae7testing11mock_objectEEEclERKS6_
FNDA:2869,_ZNKSt10_Select1stISt4pairIKiPFiPN4opae7testing11mock_objectEiP13__va_list_tagEEEclERKSA_
FNDA:372,_ZNKSt10_Select1stISt4pairIKSsN4opae7testing13test_platformEEEclERKS5_
FNF:5
FNH:4
DA:234,67632
DA:235,67632
DA:494,46990
DA:495,46990
LF:4
LH:4
end_of_record
SF:/usr/include/c++/4.8/bits/stl_heap.h
FN:131,_ZSt11__push_heapIN9__gnu_cxx17__normal_iteratorIPSsSt6vectorISsSaISsEEEElSsEvT_T0_S8_T1_
FN:227,_ZSt13__adjust_heapIN9__gnu_cxx17__normal_iteratorIPSsSt6vectorISsSaISsEEEElSsEvT_T0_S8_T1_
FN:253,_ZSt10__pop_heapIN9__gnu_cxx17__normal_iteratorIPSsSt6vectorISsSaISsEEEEEvT_S7_S7_
FN:386,_ZSt9make_heapIN9__gnu_cxx17__normal_iteratorIPSsSt6vectorISsSaISsEEEEEvT_S7_
FN:465,_ZSt9sort_heapIN9__gnu_cxx17__normal_iteratorIPSsSt6vectorISsSaISsEEEEEvT_S7_
FNDA:0,_ZSt11__push_heapIN9__gnu_cxx17__normal_iteratorIPSsSt6vectorISsSaISsEEEElSsEvT_T0_S8_T1_
FNDA:0,_ZSt13__adjust_heapIN9__gnu_cxx17__normal_iteratorIPSsSt6vectorISsSaISsEEEElSsEvT_T0_S8_T1_
FNDA:0,_ZSt10__pop_heapIN9__gnu_cxx17__normal_iteratorIPSsSt6vectorISsSaISsEEEEEvT_S7_S7_
FNDA:0,_ZSt9make_heapIN9__gnu_cxx17__normal_iteratorIPSsSt6vectorISsSaISsEEEEEvT_S7_
FNDA:0,_ZSt9sort_heapIN9__gnu_cxx17__normal_iteratorIPSsSt6vectorISsSaISsEEEEEvT_S7_
FNF:5
FNH:0
DA:131,0
DA:134,0
DA:135,0
DA:137,0
DA:138,0
DA:139,0
DA:141,0
DA:142,0
DA:227,0
DA:230,0
DA:231,0
DA:232,0
DA:234,0
DA:235,0
DA:236,0
DA:237,0
DA:238,0
DA:240,0
DA:242,0
DA:243,0
DA:245,0
DA:247,0
DA:248,0
DA:249,0
DA:253,0
DA:261,0
DA:262,0
DA:263,0
DA:265,0
DA:266,0
DA:386,0
DA:399,0
DA:400,0
DA:402,0
DA:403,0
DA:404,0
DA:406,0
DA:407,0
DA:408,0
DA:409,0
DA:410,0
DA:411,0
DA:465,0
DA:475,0
DA:477,0
DA:478,0
DA:480,0
LF:47
LH:0
end_of_record
SF:/usr/include/c++/4.8/bits/stl_iterator.h
FN:726,_ZN9__gnu_cxx17__normal_iteratorIPSsSt6vectorISsSaISsEEEC2ERKS1_
FN:726,_ZN9__gnu_cxx17__normal_iteratorIPKSsSt6vectorISsSaISsEEEC2ERKS2_
FN:726,_ZN9__gnu_cxx17__normal_iteratorIPKN4opae7testing11test_deviceESt6vectorIS3_SaIS3_EEEC2ERKS5_
FN:738,_ZNK9__gnu_cxx17__normal_iteratorIPKSsSt6vectorISsSaISsEEEdeEv
FN:738,_ZNK9__gnu_cxx17__normal_iteratorIPSsSt6vectorISsSaISsEEEdeEv
FN:746,_ZN9__gnu_cxx17__normal_iteratorIPKSsSt6vectorISsSaISsEEEppEv
FN:746,_ZN9__gnu_cxx17__normal_iteratorIPSsSt6vectorISsSaISsEEEppEv
FN:758,_ZN9__gnu_cxx17__normal_iteratorIPSsSt6vectorISsSaISsEEEmmEv
FN:778,_ZNK9__gnu_cxx17__normal_iteratorIPSsSt6vectorISsSaISsEEEplERKl
FN:786,_ZNK9__gnu_cxx17__normal_iteratorIPSsSt6vectorISsSaISsEEEmiERKl
FN:790,_ZNK9__gnu_cxx17__normal_iteratorIPKN4opae7testing11test_deviceESt6vectorIS3_SaIS3_EEE4baseEv
FN:790,_ZNK9__gnu_cxx17__normal_iteratorIPKSsSt6vectorISsSaISsEEE4baseEv
FN:790,_ZNK9__gnu_cxx17__normal_iteratorIPSsSt6vectorISsSaISsEEE4baseEv
FN:811,_ZN9__gnu_cxxeqIPSsSt6vectorISsSaISsEEEEbRKNS_17__normal_iteratorIT_T0_EESA_
FN:823,_ZN9__gnu_cxxneIPSsSt6vectorISsSaISsEEEEbRKNS_17__normal_iteratorIT_T0_EESA_
FN:823,_ZN9__gnu_cxxneIPKSsSt6vectorISsSaISsEEEEbRKNS_17__normal_iteratorIT_T0_EESB_
FN:836,_ZN9__gnu_cxxltIPSsSt6vectorISsSaISsEEEEbRKNS_17__normal_iteratorIT_T0_EESA_
FN:896,_ZN9__gnu_cxxmiIPSsSt6vectorISsSaISsEEEENS_17__normal_iteratorIT_T0_E15difference_typeERKS8_SB_
FN:950,_ZNSt13move_iteratorIPSsEC2ES0_
FN:958,_ZNKSt13move_iteratorIPSsE4baseEv
FN:962,_ZNKSt13move_iteratorIPSsEdeEv
FN:970,_ZNSt13move_iteratorIPSsEppEv
FN:1037,_ZSteqIPSsEbRKSt13move_iteratorIT_ES5_
FN:1049,_ZStneIPSsEbRKSt13move_iteratorIT_ES5_
FN:1132,_ZSt32__make_move_if_noexcept_iteratorIPSsSt13move_iteratorIS0_EET0_T_
FNDA:488,_ZN9__gnu_cxx17__normal_iteratorIPKN4opae7testing11test_deviceESt6vectorIS3_SaIS3_EEEC2ERKS5_
FNDA:0,_ZN9__gnu_cxx17__normal_iteratorIPKSsSt6vectorISsSaISsEEEC2ERKS2_
FNDA:422,_ZN9__gnu_cxx17__normal_iteratorIPSsSt6vectorISsSaISsEEEC2ERKS1_
FNDA:0,_ZNK9__gnu_cxx17__normal_iteratorIPKSsSt6vectorISsSaISsEEEdeEv
FNDA:108,_ZNK9__gnu_cxx17__normal_iteratorIPSsSt6vectorISsSaISsEEEdeEv
FNDA:0,_ZN9__gnu_cxx17__normal_iteratorIPKSsSt6vectorISsSaISsEEEppEv
FNDA:108,_ZN9__gnu_cxx17__normal_iteratorIPSsSt6vectorISsSaISsEEEppEv
FNDA:0,_ZN9__gnu_cxx17__normal_iteratorIPSsSt6vectorISsSaISsEEEmmEv
FNDA:90,_ZNK9__gnu_cxx17__normal_iteratorIPSsSt6vectorISsSaISsEEEplERKl
FNDA:0,_ZNK9__gnu_cxx17__normal_iteratorIPSsSt6vectorISsSaISsEEEmiERKl
FNDA:488,_ZNK9__gnu_cxx17__normal_iteratorIPKN4opae7testing11test_deviceESt6vectorIS3_SaIS3_EEE4baseEv
FNDA:0,_ZNK9__gnu_cxx17__normal_iteratorIPKSsSt6vectorISsSaISsEEE4baseEv
FNDA:1168,_ZNK9__gnu_cxx17__normal_iteratorIPSsSt6vectorISsSaISsEEE4baseEv
FNDA:90,_ZN9__gnu_cxxeqIPSsSt6vectorISsSaISsEEEEbRKNS_17__normal_iteratorIT_T0_EESA_
FNDA:0,_ZN9__gnu_cxxneIPKSsSt6vectorISsSaISsEEEEbRKNS_17__normal_iteratorIT_T0_EESB_
FNDA:180,_ZN9__gnu_cxxneIPSsSt6vectorISsSaISsEEEEbRKNS_17__normal_iteratorIT_T0_EESA_
FNDA:0,_ZN9__gnu_cxxltIPSsSt6vectorISsSaISsEEEEbRKNS_17__normal_iteratorIT_T0_EESA_
FNDA:292,_ZN9__gnu_cxxmiIPSsSt6vectorISsSaISsEEEENS_17__normal_iteratorIT_T0_E15difference_typeERKS8_SB_
FNDA:86716,_ZNSt13move_iteratorIPSsEC2ES0_
FNDA:130660,_ZNKSt13move_iteratorIPSsE4baseEv
FNDA:21972,_ZNKSt13move_iteratorIPSsEdeEv
FNDA:21972,_ZNSt13move_iteratorIPSsEppEv
FNDA:65330,_ZSteqIPSsEbRKSt13move_iteratorIT_ES5_
FNDA:65330,_ZStneIPSsEbRKSt13move_iteratorIT_ES5_
FNDA:86716,_ZSt32__make_move_if_noexcept_iteratorIPSsSt13move_iteratorIS0_EET0_T_
FNF:25
FNH:17
DA:726,910
DA:738,108
DA:739,108
DA:746,108
DA:748,108
DA:749,108
DA:758,0
DA:760,0
DA:761,0
DA:778,90
DA:779,90
DA:786,0
DA:787,0
DA:790,1656
DA:791,1656
DA:811,90
DA:813,90
DA:823,180
DA:825,180
DA:836,0
DA:838,0
DA:896,292
DA:898,292
DA:950,86716
DA:951,86716
DA:958,130660
DA:959,130660
DA:962,21972
DA:963,21972
DA:970,21972
DA:972,21972
DA:973,21972
DA:1037,65330
DA:1039,65330
DA:1049,65330
DA:1051,65330
DA:1132,86716
DA:1133,86716
LF:38
LH:31
end_of_record
SF:/usr/include/c++/4.8/bits/stl_iterator_base_funcs.h
FN:90,_ZSt10__distanceIPKN4opae7testing11test_deviceEENSt15iterator_traitsIT_E15difference_typeES6_S6_St26random_access_iterator_tag
FN:114,_ZSt8distanceIPKN4opae7testing11test_deviceEENSt15iterator_traitsIT_E15difference_typeES6_S6_
FNDA:18,_ZSt10__distanceIPKN4opae7testing11test_deviceEENSt15iterator_traitsIT_E15difference_typeES6_S6_St26random_access_iterator_tag
FNDA:18,_ZSt8distanceIPKN4opae7testing11test_deviceEENSt15iterator_traitsIT_E15difference_typeES6_S6_
FNF:2
FNH:2
DA:90,18
DA:96,18
DA:114,18
DA:118,18
LF:4
LH:4
end_of_record
SF:/usr/include/c++/4.8/bits/stl_iterator_base_types.h
FN:201,_ZSt19__iterator_categoryIPKN4opae7testing11test_deviceEENSt15iterator_traitsIT_E17iterator_categoryERKS6_
FN:212,_ZNSt10_Iter_baseIPKN4opae7testing11test_deviceELb0EE7_S_baseES4_
FN:212,_ZNSt10_Iter_baseIN9__gnu_cxx17__normal_iteratorIPSsSt6vectorISsSaISsEEEELb0EE7_S_baseES6_
FN:212,_ZNSt10_Iter_baseIN9__gnu_cxx17__normal_iteratorIPKN4opae7testing11test_deviceESt6vectorIS4_SaIS4_EEEELb0EE7_S_baseESA_
FN:212,_ZNSt10_Iter_baseIPN4opae7testing11test_deviceELb0EE7_S_baseES3_
FN:220,_ZNSt10_Iter_baseIN9__gnu_cxx17__normal_iteratorIPSsSt6vectorISsSaISsEEEELb1EE7_S_baseES6_
FN:220,_ZNSt10_Iter_baseIN9__gnu_cxx17__normal_iteratorIPKN4opae7testing11test_deviceESt6vectorIS4_SaIS4_EEEELb1EE7_S_baseESA_
FNDA:18,_ZSt19__iterator_categoryIPKN4opae7testing11test_deviceEENSt15iterator_traitsIT_E17iterator_categoryERKS6_
FNDA:262,_ZNSt10_Iter_baseIPN4opae7testing11test_deviceELb0EE7_S_baseES3_
FNDA:72,_ZNSt10_Iter_baseIPKN4opae7testing11test_deviceELb0EE7_S_baseES4_
FNDA:488,_ZNSt10_Iter_baseIN9__gnu_cxx17__normal_iteratorIPKN4opae7testing11test_deviceESt6vectorIS4_SaIS4_EEEELb0EE7_S_baseESA_
FNDA:0,_ZNSt10_Iter_baseIN9__gnu_cxx17__normal_iteratorIPSsSt6vectorISsSaISsEEEELb0EE7_S_baseES6_
FNDA:488,_ZNSt10_Iter_baseIN9__gnu_cxx17__normal_iteratorIPKN4opae7testing11test_deviceESt6vectorIS4_SaIS4_EEEELb1EE7_S_baseESA_
FNDA:0,_ZNSt10_Iter_baseIN9__gnu_cxx17__normal_iteratorIPSsSt6vectorISsSaISsEEEELb1EE7_S_baseES6_
FNF:7
FNH:5
DA:201,18
DA:202,18
DA:212,822
DA:213,822
DA:220,488
DA:221,488
LF:6
LH:6
end_of_record
SF:/usr/include/c++/4.8/bits/stl_map.h
FN:96,_ZNSt3mapIiPN4opae7testing11mock_objectESt4lessIiESaISt4pairIKiS3_EEED2Ev
FN:96,_ZNSt3mapISsN4opae7testing13test_platformESt4lessISsESaISt4pairIKSsS2_EEED2Ev
FN:160,_ZNSt3mapIiPN4opae7testing11mock_objectESt4lessIiESaISt4pairIKiS3_EEEC2Ev
FN:160,_ZNSt3mapIiPFiPN4opae7testing11mock_objectEiP13__va_list_tagESt4lessIiESaISt4pairIKiS7_EEEC2Ev
FN:206,_ZNSt3mapISsN4opae7testing13test_platformESt4lessISsESaISt4pairIKSsS2_EEEC2ESt16initializer_listIS7_ERKS4_RKS8_
FN:320,_ZNSt3mapISsN4opae7testing13test_platformESt4lessISsESaISt4pairIKSsS2_EEE5beginEv
FN:320,_ZNSt3mapIiPN4opae7testing11mock_objectESt4lessIiESaISt4pairIKiS3_EEE5beginEv
FN:338,_ZNSt3mapISsN4opae7testing13test_platformESt4lessISsESaISt4pairIKSsS2_EEE3endEv
FN:338,_ZNSt3mapIiPN4opae7testing11mock_objectESt4lessIiESaISt4pairIKiS3_EEE3endEv
FN:338,_ZNSt3mapIiPFiPN4opae7testing11mock_objectEiP13__va_list_tagESt4lessIiESaISt4pairIKiS7_EEE3endEv
FN:434,_ZNKSt3mapISsN4opae7testing13test_platformESt4lessISsESaISt4pairIKSsS2_EEE4sizeEv
FN:456,_ZNSt3mapISsN4opae7testing13test_platformESt4lessISsESaISt4pairIKSsS2_EEEixERS6_
FN:456,_ZNSt3mapIiPN4opae7testing11mock_objectESt4lessIiESaISt4pairIKiS3_EEEixERS7_
FN:456,_ZNSt3mapIiPFiPN4opae7testing11mock_objectEiP13__va_list_tagESt4lessIiESaISt4pairIKiS7_EEEixERSB_
FN:788,_ZNSt3mapIiPN4opae7testing11mock_objectESt4lessIiESaISt4pairIKiS3_EEE5clearEv
FN:797,_ZNKSt3mapIiPN4opae7testing11mock_objectESt4lessIiESaISt4pairIKiS3_EEE8key_compEv
FN:797,_ZNKSt3mapIiPFiPN4opae7testing11mock_objectEiP13__va_list_tagESt4lessIiESaISt4pairIKiS7_EEE8key_compEv
FN:797,_ZNKSt3mapISsN4opae7testing13test_platformESt4lessISsESaISt4pairIKSsS2_EEE8key_compEv
FN:821,_ZNSt3mapIiPN4opae7testing11mock_objectESt4lessIiESaISt4pairIKiS3_EEE4findERS7_
FN:821,_ZNSt3mapIiPFiPN4opae7testing11mock_objectEiP13__va_list_tagESt4lessIiESaISt4pairIKiS7_EEE4findERSB_
FN:821,_ZNSt3mapISsN4opae7testing13test_platformESt4lessISsESaISt4pairIKSsS2_EEE4findERS6_
FN:863,_ZNSt3mapISsN4opae7testing13test_platformESt4lessISsESaISt4pairIKSsS2_EEE11lower_boundERS6_
FN:863,_ZNSt3mapIiPFiPN4opae7testing11mock_objectEiP13__va_list_tagESt4lessIiESaISt4pairIKiS7_EEE11lower_boundERSB_
FN:863,_ZNSt3mapIiPN4opae7testing11mock_objectESt4lessIiESaISt4pairIKiS3_EEE11lower_boundERS7_
FNDA:0,_ZNSt3mapIiPN4opae7testing11mock_objectESt4lessIiESaISt4pairIKiS3_EEED2Ev
FNDA:0,_ZNSt3mapISsN4opae7testing13test_platformESt4lessISsESaISt4pairIKSsS2_EEED2Ev
FNDA:18,_ZNSt3mapIiPFiPN4opae7testing11mock_objectEiP13__va_list_tagESt4lessIiESaISt4pairIKiS7_EEEC2Ev
FNDA:18,_ZNSt3mapIiPN4opae7testing11mock_objectESt4lessIiESaISt4pairIKiS3_EEEC2Ev
FNDA:18,_ZNSt3mapISsN4opae7testing13test_platformESt4lessISsESaISt4pairIKSsS2_EEEC2ESt16initializer_listIS7_ERKS4_RKS8_
FNDA:118,_ZNSt3mapIiPN4opae7testing11mock_objectESt4lessIiESaISt4pairIKiS3_EEE5beginEv
FNDA:108,_ZNSt3mapISsN4opae7testing13test_platformESt4lessISsESaISt4pairIKSsS2_EEE5beginEv
FNDA:622,_ZNSt3mapIiPFiPN4opae7testing11mock_objectEiP13__va_list_tagESt4lessIiESaISt4pairIKiS7_EEE3endEv
FNDA:22018,_ZNSt3mapIiPN4opae7testing11mock_objectESt4lessIiESaISt4pairIKiS3_EEE3endEv
FNDA:344,_ZNSt3mapISsN4opae7testing13test_platformESt4lessISsESaISt4pairIKSsS2_EEE3endEv
FNDA:108,_ZNKSt3mapISsN4opae7testing13test_platformESt4lessISsESaISt4pairIKSsS2_EEE4sizeEv
FNDA:21838,_ZNSt3mapIiPN4opae7testing11mock_objectESt4lessIiESaISt4pairIKiS3_EEEixERS7_
FNDA:280,_ZNSt3mapIiPFiPN4opae7testing11mock_objectEiP13__va_list_tagESt4lessIiESaISt4pairIKiS7_EEEixERSB_
FNDA:118,_ZNSt3mapISsN4opae7testing13test_platformESt4lessISsESaISt4pairIKSsS2_EEEixERS6_
FNDA:118,_ZNSt3mapIiPN4opae7testing11mock_objectESt4lessIiESaISt4pairIKiS3_EEE5clearEv
FNDA:21586,_ZNKSt3mapIiPN4opae7testing11mock_objectESt4lessIiESaISt4pairIKiS3_EEE8key_compEv
FNDA:208,_ZNKSt3mapIiPFiPN4opae7testing11mock_objectEiP13__va_list_tagESt4lessIiESaISt4pairIKiS7_EEE8key_compEv
FNDA:118,_ZNKSt3mapISsN4opae7testing13test_platformESt4lessISsESaISt4pairIKSsS2_EEE8key_compEv
FNDA:62,_ZNSt3mapIiPN4opae7testing11mock_objectESt4lessIiESaISt4pairIKiS3_EEE4findERS7_
FNDA:342,_ZNSt3mapIiPFiPN4opae7testing11mock_objectEiP13__va_list_tagESt4lessIiESaISt4pairIKiS7_EEE4findERSB_
FNDA:118,_ZNSt3mapISsN4opae7testing13test_platformESt4lessISsESaISt4pairIKSsS2_EEE4findERS6_
FNDA:21838,_ZNSt3mapIiPN4opae7testing11mock_objectESt4lessIiESaISt4pairIKiS3_EEE11lower_boundERS7_
FNDA:280,_ZNSt3mapIiPFiPN4opae7testing11mock_objectEiP13__va_list_tagESt4lessIiESaISt4pairIKiS7_EEE11lower_boundERSB_
FNDA:118,_ZNSt3mapISsN4opae7testing13test_platformESt4lessISsESaISt4pairIKSsS2_EEE11lower_boundERS6_
FNF:24
FNH:22
DA:96,0
DA:160,36
DA:161,36
DA:206,18
DA:209,18
DA:210,18
DA:320,226
DA:321,226
DA:338,22984
DA:339,22984
DA:434,108
DA:435,108
DA:456,22236
DA:461,22236
DA:463,22236
DA:465,552
DA:471,22236
DA:788,118
DA:789,118
DA:797,21912
DA:798,21912
DA:821,522
DA:822,522
DA:863,22236
DA:864,22236
LF:25
LH:24
end_of_record
SF:/usr/include/c++/4.8/bits/stl_pair.h
FN:96,_ZNSt4pairIKSsN4opae7testing13test_platformEED2Ev
FN:96,_ZNSt4pairISsN4opae7testing13test_platformEED2Ev
FN:124,_ZNSt4pairISsN4opae7testing13test_platformEEC2IKSsS2_vEERKS_IT_T0_E
FN:127,_ZNSt4pairIKSsN4opae7testing13test_platformEEC2ERKS4_
FN:133,_ZNSt4pairIPSt18_Rb_tree_node_baseS1_EC2IRS1_vEEOT_RKS1_
FN:138,_ZNSt4pairIPSt18_Rb_tree_node_baseS1_EC2IRS1_vEERKS1_OT_
FN:144,_ZNSt4pairIPSt18_Rb_tree_node_baseS1_EC2IRPSt13_Rb_tree_nodeIS_IKiPFiPN4opae7testing11mock_objectEiP13__va_list_tagEEESH_vEEOT_OT0_
FN:144,_ZNSt4pairIPSt18_Rb_tree_node_baseS1_EC2IRPSt13_Rb_tree_nodeIS_IKSsN4opae7testing13test_platformEEESC_vEEOT_OT0_
FN:144,_ZNSt4pairIPSt18_Rb_tree_node_baseS1_EC2IRS1_S4_vEEOT_OT0_
FN:144,_ZNSt4pairIPSt18_Rb_tree_node_baseS1_EC2IRPSt13_Rb_tree_nodeIS_IKiPN4opae7testing11mock_objectEEESD_vEEOT_OT0_
FN:144,_ZNSt4pairIKSsN4opae7testing13test_platformEEC1IRA9_KcS3_vEEOT_OT0_
FNDA:108,_ZNSt4pairISsN4opae7testing13test_platformEED2Ev
FNDA:18,_ZNSt4pairIKSsN4opae7testing13test_platformEED2Ev
FNDA:108,_ZNSt4pairISsN4opae7testing13test_platformEEC2IKSsS2_vEERKS_IT_T0_E
FNDA:18,_ZNSt4pairIKSsN4opae7testing13test_platformEEC2ERKS4_
FNDA:0,_ZNSt4pairIPSt18_Rb_tree_node_baseS1_EC2IRS1_vEEOT_RKS1_
FNDA:228,_ZNSt4pairIPSt18_Rb_tree_node_baseS1_EC2IRS1_vEERKS1_OT_
FNDA:132,_ZNSt4pairIPSt18_Rb_tree_node_baseS1_EC2IRPSt13_Rb_tree_nodeIS_IKiPN4opae7testing11mock_objectEEESD_vEEOT_OT0_
FNDA:18,_ZNSt4pairIPSt18_Rb_tree_node_baseS1_EC2IRPSt13_Rb_tree_nodeIS_IKiPFiPN4opae7testing11mock_objectEiP13__va_list_tagEEESH_vEEOT_OT0_
FNDA:18,_ZNSt4pairIPSt18_Rb_tree_node_baseS1_EC2IRPSt13_Rb_tree_nodeIS_IKSsN4opae7testing13test_platformEEESC_vEEOT_OT0_
FNDA:174,_ZNSt4pairIPSt18_Rb_tree_node_baseS1_EC2IRS1_S4_vEEOT_OT0_
FNDA:18,_ZNSt4pairIKSsN4opae7testing13test_platformEEC1IRA9_KcS3_vEEOT_OT0_
FNF:11
FNH:10
DA:96,126
DA:124,108
DA:125,108
DA:127,18
DA:133,0
DA:134,0
DA:138,228
DA:139,228
DA:144,360
DA:145,360
LF:10
LH:8
end_of_record
SF:/usr/include/c++/4.8/bits/stl_tree.h
FN:131,_ZNSt13_Rb_tree_nodeISt4pairIKSsN4opae7testing13test_platformEEED2Ev
FN:138,_ZNSt13_Rb_tree_nodeISt4pairIKSsN4opae7testing13test_platformEEEC2IIRKSt21piecewise_construct_tSt5tupleIIRS1_EESB_IIEEEEEDpOT_
FN:138,_ZNSt13_Rb_tree_nodeISt4pairIKiPN4opae7testing11mock_objectEEEC2IIRKSt21piecewise_construct_tSt5tupleIIRS1_EESC_IIEEEEEDpOT_
FN:138,_ZNSt13_Rb_tree_nodeISt4pairIKSsN4opae7testing13test_platformEEEC2IIRKS5_EEEDpOT_
FN:138,_ZNSt13_Rb_tree_nodeISt4pairIKiPFiPN4opae7testing11mock_objectEiP13__va_list_tagEEEC2IIRKSt21piecewise_construct_tSt5tupleIIRS1_EESG_IIEEEEEDpOT_
FN:174,_ZNSt17_Rb_tree_iteratorISt4pairIKSsN4opae7testing13test_platformEEEC2EPSt13_Rb_tree_nodeIS5_E
FN:174,_ZNSt17_Rb_tree_iteratorISt4pairIKiPFiPN4opae7testing11mock_objectEiP13__va_list_tagEEEC2EPSt13_Rb_tree_nodeISA_E
FN:174,_ZNSt17_Rb_tree_iteratorISt4pairIKiPN4opae7testing11mock_objectEEEC2EPSt13_Rb_tree_nodeIS6_E
FN:178,_ZNKSt17_Rb_tree_iteratorISt4pairIKiPN4opae7testing11mock_objectEEEdeEv
FN:178,_ZNKSt17_Rb_tree_iteratorISt4pairIKiPFiPN4opae7testing11mock_objectEiP13__va_list_tagEEEdeEv
FN:178,_ZNKSt17_Rb_tree_iteratorISt4pairIKSsN4opae7testing13test_platformEEEdeEv
FN:182,_ZNKSt17_Rb_tree_iteratorISt4pairIKiPFiPN4opae7testing11mock_objectEiP13__va_list_tagEEEptEv
FN:182,_ZNKSt17_Rb_tree_iteratorISt4pairIKiPN4opae7testing11mock_objectEEEptEv
FN:187,_ZNSt17_Rb_tree_iteratorISt4pairIKiPFiPN4opae7testing11mock_objectEiP13__va_list_tagEEEppEv
FN:187,_ZNSt17_Rb_tree_iteratorISt4pairIKiPN4opae7testing11mock_objectEEEppEv
FN:187,_ZNSt17_Rb_tree_iteratorISt4pairIKSsN4opae7testing13test_platformEEEppEv
FN:202,_ZNSt17_Rb_tree_iteratorISt4pairIKiPN4opae7testing11mock_objectEEEmmEv
FN:202,_ZNSt17_Rb_tree_iteratorISt4pairIKSsN4opae7testing13test_platformEEEmmEv
FN:202,_ZNSt17_Rb_tree_iteratorISt4pairIKiPFiPN4opae7testing11mock_objectEiP13__va_list_tagEEEmmEv
FN:217,_ZNKSt17_Rb_tree_iteratorISt4pairIKiPN4opae7testing11mock_objectEEEeqERKS7_
FN:217,_ZNKSt17_Rb_tree_iteratorISt4pairIKiPFiPN4opae7testing11mock_objectEiP13__va_list_tagEEEeqERKSB_
FN:217,_ZNKSt17_Rb_tree_iteratorISt4pairIKSsN4opae7testing13test_platformEEEeqERKS6_
FN:221,_ZNKSt17_Rb_tree_iteratorISt4pairIKSsN4opae7testing13test_platformEEEneERKS6_
FN:221,_ZNKSt17_Rb_tree_iteratorISt4pairIKiPN4opae7testing11mock_objectEEEneERKS7_
FN:221,_ZNKSt17_Rb_tree_iteratorISt4pairIKiPFiPN4opae7testing11mock_objectEiP13__va_list_tagEEEneERKSB_
FN:250,_ZNSt23_Rb_tree_const_iteratorISt4pairIKiPN4opae7testing11mock_objectEEEC2ERKSt17_Rb_tree_iteratorIS6_E
FN:250,_ZNSt23_Rb_tree_const_iteratorISt4pairIKSsN4opae7testing13test_platformEEEC2ERKSt17_Rb_tree_iteratorIS5_E
FN:250,_ZNSt23_Rb_tree_const_iteratorISt4pairIKiPFiPN4opae7testing11mock_objectEiP13__va_list_tagEEEC2ERKSt17_Rb_tree_iteratorISA_E
FN:254,_ZNKSt23_Rb_tree_const_iteratorISt4pairIKSsN4opae7testing13test_platformEEE13_M_const_castEv
FN:254,_ZNKSt23_Rb_tree_const_iteratorISt4pairIKiPFiPN4opae7testing11mock_objectEiP13__va_list_tagEEE13_M_const_castEv
FN:254,_ZNKSt23_Rb_tree_const_iteratorISt4pairIKiPN4opae7testing11mock_objectEEE13_M_const_castEv
FN:356,_ZNSt8_Rb_treeIiSt4pairIKiPN4opae7testing11mock_objectEESt10_Select1stIS6_ESt4lessIiESaIS6_EE21_M_get_Node_allocatorEv
FN:356,_ZNSt8_Rb_treeISsSt4pairIKSsN4opae7testing13test_platformEESt10_Select1stIS5_ESt4lessISsESaIS5_EE21_M_get_Node_allocatorEv
FN:356,_ZNSt8_Rb_treeIiSt4pairIKiPFiPN4opae7testing11mock_objectEiP13__va_list_tagEESt10_Select1stISA_ESt4lessIiESaISA_EE21_M_get_Node_allocatorEv
FN:369,_ZNSt8_Rb_treeIiSt4pairIKiPFiPN4opae7testing11mock_objectEiP13__va_list_tagEESt10_Select1stISA_ESt4lessIiESaISA_EE11_M_get_nodeEv
FN:369,_ZNSt8_Rb_treeIiSt4pairIKiPN4opae7testing11mock_objectEESt10_Select1stIS6_ESt4lessIiESaIS6_EE11_M_get_nodeEv
FN:369,_ZNSt8_Rb_treeISsSt4pairIKSsN4opae7testing13test_platformEESt10_Select1stIS5_ESt4lessISsESaIS5_EE11_M_get_nodeEv
FN:373,_ZNSt8_Rb_treeIiSt4pairIKiPN4opae7testing11mock_objectEESt10_Select1stIS6_ESt4lessIiESaIS6_EE11_M_put_nodeEPSt13_Rb_tree_nodeIS6_E
FN:373,_ZNSt8_Rb_treeIiSt4pairIKiPFiPN4opae7testing11mock_objectEiP13__va_list_tagEESt10_Select1stISA_ESt4lessIiESaISA_EE11_M_put_nodeEPSt13_Rb_tree_nodeISA_E
FN:373,_ZNSt8_Rb_treeISsSt4pairIKSsN4opae7testing13test_platformEESt10_Select1stIS5_ESt4lessISsESaIS5_EE11_M_put_nodeEPSt13_Rb_tree_nodeIS5_E
FN:401,_ZNSt8_Rb_treeIiSt4pairIKiPN4opae7testing11mock_objectEESt10_Select1stIS6_ESt4lessIiESaIS6_EE14_M_create_nodeIIRKSt21piecewise_construct_tSt5tupleIIRS1_EESH_IIEEEEEPSt13_Rb_tree_nodeIS6_EDpOT_
FN:401,_ZNSt8_Rb_treeISsSt4pairIKSsN4opae7testing13test_platformEESt10_Select1stIS5_ESt4lessISsESaIS5_EE14_M_create_nodeIIRKS5_EEEPSt13_Rb_tree_nodeIS5_EDpOT_
FN:401,_ZNSt8_Rb_treeIiSt4pairIKiPFiPN4opae7testing11mock_objectEiP13__va_list_tagEESt10_Select1stISA_ESt4lessIiESaISA_EE14_M_create_nodeIIRKSt21piecewise_construct_tSt5tupleIIRS1_EESL_IIEEEEEPSt13_Rb_tree_nodeISA_EDpOT_
FN:401,_ZNSt8_Rb_treeISsSt4pairIKSsN4opae7testing13test_platformEESt10_Select1stIS5_ESt4lessISsESaIS5_EE14_M_create_nodeIIRKSt21piecewise_construct_tSt5tupleIIRS1_EESG_IIEEEEEPSt13_Rb_tree_nodeIS5_EDpOT_
FN:419,_ZNSt8_Rb_treeISsSt4pairIKSsN4opae7testing13test_platformEESt10_Select1stIS5_ESt4lessISsESaIS5_EE15_M_destroy_nodeEPSt13_Rb_tree_nodeIS5_E
FN:419,_ZNSt8_Rb_treeIiSt4pairIKiPFiPN4opae7testing11mock_objectEiP13__va_list_tagEESt10_Select1stISA_ESt4lessIiESaISA_EE15_M_destroy_nodeEPSt13_Rb_tree_nodeISA_E
FN:419,_ZNSt8_Rb_treeIiSt4pairIKiPN4opae7testing11mock_objectEESt10_Select1stIS6_ESt4lessIiESaIS6_EE15_M_destroy_nodeEPSt13_Rb_tree_nodeIS6_E
FN:439,_ZNSt8_Rb_treeISsSt4pairIKSsN4opae7testing13test_platformEESt10_Select1stIS5_ESt4lessISsESaIS5_EE13_Rb_tree_implIS9_Lb1EED2Ev
FN:439,_ZNSt8_Rb_treeIiSt4pairIKiPN4opae7testing11mock_objectEESt10_Select1stIS6_ESt4lessIiESaIS6_EE13_Rb_tree_implISA_Lb1EED2Ev
FN:445,_ZNSt8_Rb_treeIiSt4pairIKiPN4opae7testing11mock_objectEESt10_Select1stIS6_ESt4lessIiESaIS6_EE13_Rb_tree_implISA_Lb1EEC2Ev
FN:445,_ZNSt8_Rb_treeIiSt4pairIKiPFiPN4opae7testing11mock_objectEiP13__va_list_tagEESt10_Select1stISA_ESt4lessIiESaISA_EE13_Rb_tree_implISE_Lb1EEC2Ev
FN:456,_ZNSt8_Rb_treeISsSt4pairIKSsN4opae7testing13test_platformEESt10_Select1stIS5_ESt4lessISsESaIS5_EE13_Rb_tree_implIS9_Lb1EEC2ERKS9_OSaISt13_Rb_tree_nodeIS5_EE
FN:464,_ZNSt8_Rb_treeISsSt4pairIKSsN4opae7testing13test_platformEESt10_Select1stIS5_ESt4lessISsESaIS5_EE13_Rb_tree_implIS9_Lb1EE13_M_initializeEv
FN:464,_ZNSt8_Rb_treeIiSt4pairIKiPFiPN4opae7testing11mock_objectEiP13__va_list_tagEESt10_Select1stISA_ESt4lessIiESaISA_EE13_Rb_tree_implISE_Lb1EE13_M_initializeEv
FN:464,_ZNSt8_Rb_treeIiSt4pairIKiPN4opae7testing11mock_objectEESt10_Select1stIS6_ESt4lessIiESaIS6_EE13_Rb_tree_implISA_Lb1EE13_M_initializeEv
FN:477,_ZNSt8_Rb_treeIiSt4pairIKiPN4opae7testing11mock_objectEESt10_Select1stIS6_ESt4lessIiESaIS6_EE7_M_rootEv
FN:485,_ZNSt8_Rb_treeIiSt4pairIKiPN4opae7testing11mock_objectEESt10_Select1stIS6_ESt4lessIiESaIS6_EE11_M_leftmostEv
FN:485,_ZNSt8_Rb_treeIiSt4pairIKiPFiPN4opae7testing11mock_objectEiP13__va_list_tagEESt10_Select1stISA_ESt4lessIiESaISA_EE11_M_leftmostEv
FN:485,_ZNSt8_Rb_treeISsSt4pairIKSsN4opae7testing13test_platformEESt10_Select1stIS5_ESt4lessISsESaIS5_EE11_M_leftmostEv
FN:493,_ZNSt8_Rb_treeIiSt4pairIKiPFiPN4opae7testing11mock_objectEiP13__va_list_tagEESt10_Select1stISA_ESt4lessIiESaISA_EE12_M_rightmostEv
FN:493,_ZNSt8_Rb_treeIiSt4pairIKiPN4opae7testing11mock_objectEESt10_Select1stIS6_ESt4lessIiESaIS6_EE12_M_rightmostEv
FN:493,_ZNSt8_Rb_treeISsSt4pairIKSsN4opae7testing13test_platformEESt10_Select1stIS5_ESt4lessISsESaIS5_EE12_M_rightmostEv
FN:501,_ZNSt8_Rb_treeISsSt4pairIKSsN4opae7testing13test_platformEESt10_Select1stIS5_ESt4lessISsESaIS5_EE8_M_beginEv
FN:501,_ZNSt8_Rb_treeIiSt4pairIKiPN4opae7testing11mock_objectEESt10_Select1stIS6_ESt4lessIiESaIS6_EE8_M_beginEv
FN:501,_ZNSt8_Rb_treeIiSt4pairIKiPFiPN4opae7testing11mock_objectEiP13__va_list_tagEESt10_Select1stISA_ESt4lessIiESaISA_EE8_M_beginEv
FN:512,_ZNSt8_Rb_treeIiSt4pairIKiPN4opae7testing11mock_objectEESt10_Select1stIS6_ESt4lessIiESaIS6_EE6_M_endEv
FN:512,_ZNSt8_Rb_treeISsSt4pairIKSsN4opae7testing13test_platformEESt10_Select1stIS5_ESt4lessISsESaIS5_EE6_M_endEv
FN:512,_ZNSt8_Rb_treeIiSt4pairIKiPFiPN4opae7testing11mock_objectEiP13__va_list_tagEESt10_Select1stISA_ESt4lessIiESaISA_EE6_M_endEv
FN:520,_ZNSt8_Rb_treeISsSt4pairIKSsN4opae7testing13test_platformEESt10_Select1stIS5_ESt4lessISsESaIS5_EE8_S_valueEPKSt13_Rb_tree_nodeIS5_E
FN:520,_ZNSt8_Rb_treeIiSt4pairIKiPN4opae7testing11mock_objectEESt10_Select1stIS6_ESt4lessIiESaIS6_EE8_S_valueEPKSt13_Rb_tree_nodeIS6_E
FN:520,_ZNSt8_Rb_treeIiSt4pairIKiPFiPN4opae7testing11mock_objectEiP13__va_list_tagEESt10_Select1stISA_ESt4lessIiESaISA_EE8_S_valueEPKSt13_Rb_tree_nodeISA_E
FN:524,_ZNSt8_Rb_treeIiSt4pairIKiPFiPN4opae7testing11mock_objectEiP13__va_list_tagEESt10_Select1stISA_ESt4lessIiESaISA_EE6_S_keyEPKSt13_Rb_tree_nodeISA_E
FN:524,_ZNSt8_Rb_treeIiSt4pairIKiPN4opae7testing11mock_objectEESt10_Select1stIS6_ESt4lessIiESaIS6_EE6_S_keyEPKSt13_Rb_tree_nodeIS6_E
FN:524,_ZNSt8_Rb_treeISsSt4pairIKSsN4opae7testing13test_platformEESt10_Select1stIS5_ESt4lessISsESaIS5_EE6_S_keyEPKSt13_Rb_tree_nodeIS5_E
FN:528,_ZNSt8_Rb_treeIiSt4pairIKiPFiPN4opae7testing11mock_objectEiP13__va_list_tagEESt10_Select1stISA_ESt4lessIiESaISA_EE7_S_leftEPSt18_Rb_tree_node_base
FN:528,_ZNSt8_Rb_treeISsSt4pairIKSsN4opae7testing13test_platformEESt10_Select1stIS5_ESt4lessISsESaIS5_EE7_S_leftEPSt18_Rb_tree_node_base
FN:528,_ZNSt8_Rb_treeIiSt4pairIKiPN4opae7testing11mock_objectEESt10_Select1stIS6_ESt4lessIiESaIS6_EE7_S_leftEPSt18_Rb_tree_node_base
FN:536,_ZNSt8_Rb_treeISsSt4pairIKSsN4opae7testing13test_platformEESt10_Select1stIS5_ESt4lessISsESaIS5_EE8_S_rightEPSt18_Rb_tree_node_base
FN:536,_ZNSt8_Rb_treeIiSt4pairIKiPN4opae7testing11mock_objectEESt10_Select1stIS6_ESt4lessIiESaIS6_EE8_S_rightEPSt18_Rb_tree_node_base
FN:536,_ZNSt8_Rb_treeIiSt4pairIKiPFiPN4opae7testing11mock_objectEiP13__va_list_tagEESt10_Select1stISA_ESt4lessIiESaISA_EE8_S_rightEPSt18_Rb_tree_node_base
FN:544,_ZNSt8_Rb_treeIiSt4pairIKiPN4opae7testing11mock_objectEESt10_Select1stIS6_ESt4lessIiESaIS6_EE8_S_valueEPKSt18_Rb_tree_node_base
FN:544,_ZNSt8_Rb_treeISsSt4pairIKSsN4opae7testing13test_platformEESt10_Select1stIS5_ESt4lessISsESaIS5_EE8_S_valueEPKSt18_Rb_tree_node_base
FN:544,_ZNSt8_Rb_treeIiSt4pairIKiPFiPN4opae7testing11mock_objectEiP13__va_list_tagEESt10_Select1stISA_ESt4lessIiESaISA_EE8_S_valueEPKSt18_Rb_tree_node_base
FN:548,_ZNSt8_Rb_treeIiSt4pairIKiPN4opae7testing11mock_objectEESt10_Select1stIS6_ESt4lessIiESaIS6_EE6_S_keyEPKSt18_Rb_tree_node_base
FN:548,_ZNSt8_Rb_treeISsSt4pairIKSsN4opae7testing13test_platformEESt10_Select1stIS5_ESt4lessISsESaIS5_EE6_S_keyEPKSt18_Rb_tree_node_base
FN:548,_ZNSt8_Rb_treeIiSt4pairIKiPFiPN4opae7testing11mock_objectEiP13__va_list_tagEESt10_Select1stISA_ESt4lessIiESaISA_EE6_S_keyEPKSt18_Rb_tree_node_base
FN:648,_ZNSt8_Rb_treeIiSt4pairIKiPFiPN4opae7testing11mock_objectEiP13__va_list_tagEESt10_Select1stISA_ESt4lessIiESaISA_EEC2Ev
FN:648,_ZNSt8_Rb_treeIiSt4pairIKiPN4opae7testing11mock_objectEESt10_Select1stIS6_ESt4lessIiESaIS6_EEC2Ev
FN:650,_ZNSt8_Rb_treeISsSt4pairIKSsN4opae7testing13test_platformEESt10_Select1stIS5_ESt4lessISsESaIS5_EEC2ERKS9_RKSA_
FN:670,_ZNSt8_Rb_treeISsSt4pairIKSsN4opae7testing13test_platformEESt10_Select1stIS5_ESt4lessISsESaIS5_EED2Ev
FN:670,_ZNSt8_Rb_treeIiSt4pairIKiPN4opae7testing11mock_objectEESt10_Select1stIS6_ESt4lessIiESaIS6_EED2Ev
FN:678,_ZNKSt8_Rb_treeIiSt4pairIKiPFiPN4opae7testing11mock_objectEiP13__va_list_tagEESt10_Select1stISA_ESt4lessIiESaISA_EE8key_compEv
FN:678,_ZNKSt8_Rb_treeISsSt4pairIKSsN4opae7testing13test_platformEESt10_Select1stIS5_ESt4lessISsESaIS5_EE8key_compEv
FN:678,_ZNKSt8_Rb_treeIiSt4pairIKiPN4opae7testing11mock_objectEESt10_Select1stIS6_ESt4lessIiESaIS6_EE8key_compEv
FN:682,_ZNSt8_Rb_treeISsSt4pairIKSsN4opae7testing13test_platformEESt10_Select1stIS5_ESt4lessISsESaIS5_EE5beginEv
FN:682,_ZNSt8_Rb_treeIiSt4pairIKiPN4opae7testing11mock_objectEESt10_Select1stIS6_ESt4lessIiESaIS6_EE5beginEv
FN:682,_ZNSt8_Rb_treeIiSt4pairIKiPFiPN4opae7testing11mock_objectEiP13__va_list_tagEESt10_Select1stISA_ESt4lessIiESaISA_EE5beginEv
FN:696,_ZNSt8_Rb_treeIiSt4pairIKiPFiPN4opae7testing11mock_objectEiP13__va_list_tagEESt10_Select1stISA_ESt4lessIiESaISA_EE3endEv
FN:696,_ZNSt8_Rb_treeIiSt4pairIKiPN4opae7testing11mock_objectEESt10_Select1stIS6_ESt4lessIiESaIS6_EE3endEv
FN:696,_ZNSt8_Rb_treeISsSt4pairIKSsN4opae7testing13test_platformEESt10_Select1stIS5_ESt4lessISsESaIS5_EE3endEv
FN:727,_ZNKSt8_Rb_treeISsSt4pairIKSsN4opae7testing13test_platformEESt10_Select1stIS5_ESt4lessISsESaIS5_EE4sizeEv
FN:727,_ZNKSt8_Rb_treeIiSt4pairIKiPN4opae7testing11mock_objectEESt10_Select1stIS6_ESt4lessIiESaIS6_EE4sizeEv
FN:727,_ZNKSt8_Rb_treeIiSt4pairIKiPFiPN4opae7testing11mock_objectEiP13__va_list_tagEESt10_Select1stISA_ESt4lessIiESaISA_EE4sizeEv
FN:858,_ZNSt8_Rb_treeIiSt4pairIKiPN4opae7testing11mock_objectEESt10_Select1stIS6_ESt4lessIiESaIS6_EE5clearEv
FN:878,_ZNSt8_Rb_treeISsSt4pairIKSsN4opae7testing13test_platformEESt10_Select1stIS5_ESt4lessISsESaIS5_EE11lower_boundERS1_
FN:878,_ZNSt8_Rb_treeIiSt4pairIKiPFiPN4opae7testing11mock_objectEiP13__va_list_tagEESt10_Select1stISA_ESt4lessIiESaISA_EE11lower_boundERS1_
FN:878,_ZNSt8_Rb_treeIiSt4pairIKiPN4opae7testing11mock_objectEESt10_Select1stIS6_ESt4lessIiESaIS6_EE11lower_boundERS1_
FN:1012,_ZNSt8_Rb_treeISsSt4pairIKSsN4opae7testing13test_platformEESt10_Select1stIS5_ESt4lessISsESaIS5_EE10_M_insert_IRKS5_EESt17_Rb_tree_iteratorIS5_EPSt18_Rb_tree_node_baseSI_OT_
FN:1119,_ZNSt8_Rb_treeIiSt4pairIKiPN4opae7testing11mock_objectEESt10_Select1stIS6_ESt4lessIiESaIS6_EE8_M_eraseEPSt13_Rb_tree_nodeIS6_E
FN:1119,_ZNSt8_Rb_treeISsSt4pairIKSsN4opae7testing13test_platformEESt10_Select1stIS5_ESt4lessISsESaIS5_EE8_M_eraseEPSt13_Rb_tree_nodeIS5_E
FN:1136,_ZNSt8_Rb_treeIiSt4pairIKiPN4opae7testing11mock_objectEESt10_Select1stIS6_ESt4lessIiESaIS6_EE14_M_lower_boundEPSt13_Rb_tree_nodeIS6_ESF_RS1_
FN:1136,_ZNSt8_Rb_treeISsSt4pairIKSsN4opae7testing13test_platformEESt10_Select1stIS5_ESt4lessISsESaIS5_EE14_M_lower_boundEPSt13_Rb_tree_nodeIS5_ESE_RS1_
FN:1136,_ZNSt8_Rb_treeIiSt4pairIKiPFiPN4opae7testing11mock_objectEiP13__va_list_tagEESt10_Select1stISA_ESt4lessIiESaISA_EE14_M_lower_boundEPSt13_Rb_tree_nodeISA_ESJ_RS1_
FN:1314,_ZNSt8_Rb_treeISsSt4pairIKSsN4opae7testing13test_platformEESt10_Select1stIS5_ESt4lessISsESaIS5_EE24_M_get_insert_unique_posERS1_
FN:1314,_ZNSt8_Rb_treeIiSt4pairIKiPN4opae7testing11mock_objectEESt10_Select1stIS6_ESt4lessIiESaIS6_EE24_M_get_insert_unique_posERS1_
FN:1314,_ZNSt8_Rb_treeIiSt4pairIKiPFiPN4opae7testing11mock_objectEiP13__va_list_tagEESt10_Select1stISA_ESt4lessIiESaISA_EE24_M_get_insert_unique_posERS1_
FN:1411,_ZNSt8_Rb_treeISsSt4pairIKSsN4opae7testing13test_platformEESt10_Select1stIS5_ESt4lessISsESaIS5_EE29_M_get_insert_hint_unique_posESt23_Rb_tree_const_iteratorIS5_ERS1_
FN:1411,_ZNSt8_Rb_treeIiSt4pairIKiPN4opae7testing11mock_objectEESt10_Select1stIS6_ESt4lessIiESaIS6_EE29_M_get_insert_hint_unique_posESt23_Rb_tree_const_iteratorIS6_ERS1_
FN:1411,_ZNSt8_Rb_treeIiSt4pairIKiPFiPN4opae7testing11mock_objectEiP13__va_list_tagEESt10_Select1stISA_ESt4lessIiESaISA_EE29_M_get_insert_hint_unique_posESt23_Rb_tree_const_iteratorISA_ERS1_
FN:1470,_ZNSt8_Rb_treeISsSt4pairIKSsN4opae7testing13test_platformEESt10_Select1stIS5_ESt4lessISsESaIS5_EE17_M_insert_unique_IRKS5_EESt17_Rb_tree_iteratorIS5_ESt23_Rb_tree_const_iteratorIS5_EOT_
FN:1568,_ZNSt8_Rb_treeIiSt4pairIKiPFiPN4opae7testing11mock_objectEiP13__va_list_tagEESt10_Select1stISA_ESt4lessIiESaISA_EE14_M_insert_nodeEPSt18_Rb_tree_node_baseSI_PSt13_Rb_tree_nodeISA_E
FN:1568,_ZNSt8_Rb_treeISsSt4pairIKSsN4opae7testing13test_platformEESt10_Select1stIS5_ESt4lessISsESaIS5_EE14_M_insert_nodeEPSt18_Rb_tree_node_baseSD_PSt13_Rb_tree_nodeIS5_E
FN:1568,_ZNSt8_Rb_treeIiSt4pairIKiPN4opae7testing11mock_objectEESt10_Select1stIS6_ESt4lessIiESaIS6_EE14_M_insert_nodeEPSt18_Rb_tree_node_baseSE_PSt13_Rb_tree_nodeIS6_E
FN:1666,_ZNSt8_Rb_treeIiSt4pairIKiPFiPN4opae7testing11mock_objectEiP13__va_list_tagEESt10_Select1stISA_ESt4lessIiESaISA_EE22_M_emplace_hint_uniqueIIRKSt21piecewise_construct_tSt5tupleIIRS1_EESL_IIEEEEESt17_Rb_tree_iteratorISA_ESt23_Rb_tree_const_iteratorISA_EDpOT_
FN:1666,_ZNSt8_Rb_treeISsSt4pairIKSsN4opae7testing13test_platformEESt10_Select1stIS5_ESt4lessISsESaIS5_EE22_M_emplace_hint_uniqueIIRKSt21piecewise_construct_tSt5tupleIIRS1_EESG_IIEEEEESt17_Rb_tree_iteratorIS5_ESt23_Rb_tree_const_iteratorIS5_EDpOT_
FN:1666,_ZNSt8_Rb_treeIiSt4pairIKiPN4opae7testing11mock_objectEESt10_Select1stIS6_ESt4lessIiESaIS6_EE22_M_emplace_hint_uniqueIIRKSt21piecewise_construct_tSt5tupleIIRS1_EESH_IIEEEEESt17_Rb_tree_iteratorIS6_ESt23_Rb_tree_const_iteratorIS6_EDpOT_
FN:1718,_ZNSt8_Rb_treeISsSt4pairIKSsN4opae7testing13test_platformEESt10_Select1stIS5_ESt4lessISsESaIS5_EE16_M_insert_uniqueIPKS5_EEvT_SF_
FN:1789,_ZNSt8_Rb_treeISsSt4pairIKSsN4opae7testing13test_platformEESt10_Select1stIS5_ESt4lessISsESaIS5_EE4findERS1_
FN:1789,_ZNSt8_Rb_treeIiSt4pairIKiPN4opae7testing11mock_objectEESt10_Select1stIS6_ESt4lessIiESaIS6_EE4findERS1_
FN:1789,_ZNSt8_Rb_treeIiSt4pairIKiPFiPN4opae7testing11mock_objectEiP13__va_list_tagEESt10_Select1stISA_ESt4lessIiESaISA_EE4findERS1_
FNDA:0,_ZNSt13_Rb_tree_nodeISt4pairIKSsN4opae7testing13test_platformEEED2Ev
FNDA:18,_ZNSt13_Rb_tree_nodeISt4pairIKSsN4opae7testing13test_platformEEEC2IIRKS5_EEEDpOT_
FNDA:317,_ZNSt13_Rb_tree_nodeISt4pairIKiPN4opae7testing11mock_objectEEEC2IIRKSt21piecewise_construct_tSt5tupleIIRS1_EESC_IIEEEEEDpOT_
FNDA:235,_ZNSt13_Rb_tree_nodeISt4pairIKiPFiPN4opae7testing11mock_objectEiP13__va_list_tagEEEC2IIRKSt21piecewise_construct_tSt5tupleIIRS1_EESG_IIEEEEEDpOT_
FNDA:0,_ZNSt13_Rb_tree_nodeISt4pairIKSsN4opae7testing13test_platformEEEC2IIRKSt21piecewise_construct_tSt5tupleIIRS1_EESB_IIEEEEEDpOT_
FNDA:2329,_ZNSt17_Rb_tree_iteratorISt4pairIKiPFiPN4opae7testing11mock_objectEiP13__va_list_tagEEEC2EPSt13_Rb_tree_nodeISA_E
FNDA:44996,_ZNSt17_Rb_tree_iteratorISt4pairIKiPN4opae7testing11mock_objectEEEC2EPSt13_Rb_tree_nodeIS6_E
FNDA:896,_ZNSt17_Rb_tree_iteratorISt4pairIKSsN4opae7testing13test_platformEEEC2EPSt13_Rb_tree_nodeIS5_E
FNDA:488,_ZNKSt17_Rb_tree_iteratorISt4pairIKiPFiPN4opae7testing11mock_objectEiP13__va_list_tagEEEdeEv
FNDA:344,_ZNKSt17_Rb_tree_iteratorISt4pairIKSsN4opae7testing13test_platformEEEdeEv
FNDA:43723,_ZNKSt17_Rb_tree_iteratorISt4pairIKiPN4opae7testing11mock_objectEEEdeEv
FNDA:62,_ZNKSt17_Rb_tree_iteratorISt4pairIKiPN4opae7testing11mock_objectEEEptEv
FNDA:60,_ZNKSt17_Rb_tree_iteratorISt4pairIKiPFiPN4opae7testing11mock_objectEiP13__va_list_tagEEEptEv
FNDA:0,_ZNSt17_Rb_tree_iteratorISt4pairIKiPFiPN4opae7testing11mock_objectEiP13__va_list_tagEEEppEv
FNDA:108,_ZNSt17_Rb_tree_iteratorISt4pairIKSsN4opae7testing13test_platformEEEppEv
FNDA:299,_ZNSt17_Rb_tree_iteratorISt4pairIKiPN4opae7testing11mock_objectEEEppEv
FNDA:0,_ZNSt17_Rb_tree_iteratorISt4pairIKiPN4opae7testing11mock_objectEEEmmEv
FNDA:90,_ZNSt17_Rb_tree_iteratorISt4pairIKiPFiPN4opae7testing11mock_objectEiP13__va_list_tagEEEmmEv
FNDA:0,_ZNSt17_Rb_tree_iteratorISt4pairIKSsN4opae7testing13test_platformEEEmmEv
FNDA:640,_ZNKSt17_Rb_tree_iteratorISt4pairIKiPFiPN4opae7testing11mock_objectEiP13__va_list_tagEEEeqERKSB_
FNDA:254,_ZNKSt17_Rb_tree_iteratorISt4pairIKSsN4opae7testing13test_platformEEEeqERKS6_
FNDA:22094,_ZNKSt17_Rb_tree_iteratorISt4pairIKiPN4opae7testing11mock_objectEEEeqERKS7_
FNDA:342,_ZNKSt17_Rb_tree_iteratorISt4pairIKiPFiPN4opae7testing11mock_objectEiP13__va_list_tagEEEneERKSB_
FNDA:417,_ZNKSt17_Rb_tree_iteratorISt4pairIKiPN4opae7testing11mock_objectEEEneERKS7_
FNDA:334,_ZNKSt17_Rb_tree_iteratorISt4pairIKSsN4opae7testing13test_platformEEEneERKS6_
FNDA:317,_ZNSt23_Rb_tree_const_iteratorISt4pairIKiPN4opae7testing11mock_objectEEEC2ERKSt17_Rb_tree_iteratorIS6_E
FNDA:235,_ZNSt23_Rb_tree_const_iteratorISt4pairIKiPFiPN4opae7testing11mock_objectEiP13__va_list_tagEEEC2ERKSt17_Rb_tree_iteratorISA_E
FNDA:18,_ZNSt23_Rb_tree_const_iteratorISt4pairIKSsN4opae7testing13test_platformEEEC2ERKSt17_Rb_tree_iteratorIS5_E
FNDA:317,_ZNKSt23_Rb_tree_const_iteratorISt4pairIKiPN4opae7testing11mock_objectEEE13_M_const_castEv
FNDA:235,_ZNKSt23_Rb_tree_const_iteratorISt4pairIKiPFiPN4opae7testing11mock_objectEiP13__va_list_tagEEE13_M_const_castEv
FNDA:18,_ZNKSt23_Rb_tree_const_iteratorISt4pairIKSsN4opae7testing13test_platformEEE13_M_const_castEv
FNDA:235,_ZNSt8_Rb_treeIiSt4pairIKiPFiPN4opae7testing11mock_objectEiP13__va_list_tagEESt10_Select1stISA_ESt4lessIiESaISA_EE21_M_get_Node_allocatorEv
FNDA:616,_ZNSt8_Rb_treeIiSt4pairIKiPN4opae7testing11mock_objectEESt10_Select1stIS6_ESt4lessIiESaIS6_EE21_M_get_Node_allocatorEv
FNDA:18,_ZNSt8_Rb_treeISsSt4pairIKSsN4opae7testing13test_platformEESt10_Select1stIS5_ESt4lessISsESaIS5_EE21_M_get_Node_allocatorEv
FNDA:317,_ZNSt8_Rb_treeIiSt4pairIKiPN4opae7testing11mock_objectEESt10_Select1stIS6_ESt4lessIiESaIS6_EE11_M_get_nodeEv
FNDA:235,_ZNSt8_Rb_treeIiSt4pairIKiPFiPN4opae7testing11mock_objectEiP13__va_list_tagEESt10_Select1stISA_ESt4lessIiESaISA_EE11_M_get_nodeEv
FNDA:18,_ZNSt8_Rb_treeISsSt4pairIKSsN4opae7testing13test_platformEESt10_Select1stIS5_ESt4lessISsESaIS5_EE11_M_get_nodeEv
FNDA:0,_ZNSt8_Rb_treeIiSt4pairIKiPFiPN4opae7testing11mock_objectEiP13__va_list_tagEESt10_Select1stISA_ESt4lessIiESaISA_EE11_M_put_nodeEPSt13_Rb_tree_nodeISA_E
FNDA:299,_ZNSt8_Rb_treeIiSt4pairIKiPN4opae7testing11mock_objectEESt10_Select1stIS6_ESt4lessIiESaIS6_EE11_M_put_nodeEPSt13_Rb_tree_nodeIS6_E
FNDA:0,_ZNSt8_Rb_treeISsSt4pairIKSsN4opae7testing13test_platformEESt10_Select1stIS5_ESt4lessISsESaIS5_EE11_M_put_nodeEPSt13_Rb_tree_nodeIS5_E
FNDA:18,_ZNSt8_Rb_treeISsSt4pairIKSsN4opae7testing13test_platformEESt10_Select1stIS5_ESt4lessISsESaIS5_EE14_M_create_nodeIIRKS5_EEEPSt13_Rb_tree_nodeIS5_EDpOT_
FNDA:317,_ZNSt8_Rb_treeIiSt4pairIKiPN4opae7testing11mock_objectEESt10_Select1stIS6_ESt4lessIiESaIS6_EE14_M_create_nodeIIRKSt21piecewise_construct_tSt5tupleIIRS1_EESH_IIEEEEEPSt13_Rb_tree_nodeIS6_EDpOT_
FNDA:235,_ZNSt8_Rb_treeIiSt4pairIKiPFiPN4opae7testing11mock_objectEiP13__va_list_tagEESt10_Select1stISA_ESt4lessIiESaISA_EE14_M_create_nodeIIRKSt21piecewise_construct_tSt5tupleIIRS1_EESL_IIEEEEEPSt13_Rb_tree_nodeISA_EDpOT_
FNDA:0,_ZNSt8_Rb_treeISsSt4pairIKSsN4opae7testing13test_platformEESt10_Select1stIS5_ESt4lessISsESaIS5_EE14_M_create_nodeIIRKSt21piecewise_construct_tSt5tupleIIRS1_EESG_IIEEEEEPSt13_Rb_tree_nodeIS5_EDpOT_
FNDA:0,_ZNSt8_Rb_treeIiSt4pairIKiPFiPN4opae7testing11mock_objectEiP13__va_list_tagEESt10_Select1stISA_ESt4lessIiESaISA_EE15_M_destroy_nodeEPSt13_Rb_tree_nodeISA_E
FNDA:299,_ZNSt8_Rb_treeIiSt4pairIKiPN4opae7testing11mock_objectEESt10_Select1stIS6_ESt4lessIiESaIS6_EE15_M_destroy_nodeEPSt13_Rb_tree_nodeIS6_E
FNDA:0,_ZNSt8_Rb_treeISsSt4pairIKSsN4opae7testing13test_platformEESt10_Select1stIS5_ESt4lessISsESaIS5_EE15_M_destroy_nodeEPSt13_Rb_tree_nodeIS5_E
FNDA:0,_ZNSt8_Rb_treeIiSt4pairIKiPN4opae7testing11mock_objectEESt10_Select1stIS6_ESt4lessIiESaIS6_EE13_Rb_tree_implISA_Lb1EED2Ev
FNDA:0,_ZNSt8_Rb_treeISsSt4pairIKSsN4opae7testing13test_platformEESt10_Select1stIS5_ESt4lessISsESaIS5_EE13_Rb_tree_implIS9_Lb1EED2Ev
FNDA:18,_ZNSt8_Rb_treeIiSt4pairIKiPFiPN4opae7testing11mock_objectEiP13__va_list_tagEESt10_Select1stISA_ESt4lessIiESaISA_EE13_Rb_tree_implISE_Lb1EEC2Ev
FNDA:18,_ZNSt8_Rb_treeIiSt4pairIKiPN4opae7testing11mock_objectEESt10_Select1stIS6_ESt4lessIiESaIS6_EE13_Rb_tree_implISA_Lb1EEC2Ev
FNDA:18,_ZNSt8_Rb_treeISsSt4pairIKSsN4opae7testing13test_platformEESt10_Select1stIS5_ESt4lessISsESaIS5_EE13_Rb_tree_implIS9_Lb1EEC2ERKS9_OSaISt13_Rb_tree_nodeIS5_EE
FNDA:18,_ZNSt8_Rb_treeIiSt4pairIKiPFiPN4opae7testing11mock_objectEiP13__va_list_tagEESt10_Select1stISA_ESt4lessIiESaISA_EE13_Rb_tree_implISE_Lb1EE13_M_initializeEv
FNDA:18,_ZNSt8_Rb_treeIiSt4pairIKiPN4opae7testing11mock_objectEESt10_Select1stIS6_ESt4lessIiESaIS6_EE13_Rb_tree_implISA_Lb1EE13_M_initializeEv
FNDA:18,_ZNSt8_Rb_treeISsSt4pairIKSsN4opae7testing13test_platformEESt10_Select1stIS5_ESt4lessISsESaIS5_EE13_Rb_tree_implIS9_Lb1EE13_M_initializeEv
FNDA:118,_ZNSt8_Rb_treeIiSt4pairIKiPN4opae7testing11mock_objectEESt10_Select1stIS6_ESt4lessIiESaIS6_EE7_M_rootEv
FNDA:309,_ZNSt8_Rb_treeIiSt4pairIKiPFiPN4opae7testing11mock_objectEiP13__va_list_tagEESt10_Select1stISA_ESt4lessIiESaISA_EE11_M_leftmostEv
FNDA:0,_ZNSt8_Rb_treeISsSt4pairIKSsN4opae7testing13test_platformEESt10_Select1stIS5_ESt4lessISsESaIS5_EE11_M_leftmostEv
FNDA:313,_ZNSt8_Rb_treeIiSt4pairIKiPN4opae7testing11mock_objectEESt10_Select1stIS6_ESt4lessIiESaIS6_EE11_M_leftmostEv
FNDA:108,_ZNSt8_Rb_treeIiSt4pairIKiPFiPN4opae7testing11mock_objectEiP13__va_list_tagEESt10_Select1stISA_ESt4lessIiESaISA_EE12_M_rightmostEv
FNDA:0,_ZNSt8_Rb_treeISsSt4pairIKSsN4opae7testing13test_platformEESt10_Select1stIS5_ESt4lessISsESaIS5_EE12_M_rightmostEv
FNDA:358,_ZNSt8_Rb_treeIiSt4pairIKiPN4opae7testing11mock_objectEESt10_Select1stIS6_ESt4lessIiESaIS6_EE12_M_rightmostEv
FNDA:640,_ZNSt8_Rb_treeIiSt4pairIKiPFiPN4opae7testing11mock_objectEiP13__va_list_tagEESt10_Select1stISA_ESt4lessIiESaISA_EE8_M_beginEv
FNDA:22150,_ZNSt8_Rb_treeIiSt4pairIKiPN4opae7testing11mock_objectEESt10_Select1stIS6_ESt4lessIiESaIS6_EE8_M_beginEv
FNDA:254,_ZNSt8_Rb_treeISsSt4pairIKSsN4opae7testing13test_platformEESt10_Select1stIS5_ESt4lessISsESaIS5_EE8_M_beginEv
FNDA:1001,_ZNSt8_Rb_treeIiSt4pairIKiPFiPN4opae7testing11mock_objectEiP13__va_list_tagEESt10_Select1stISA_ESt4lessIiESaISA_EE6_M_endEv
FNDA:22837,_ZNSt8_Rb_treeIiSt4pairIKiPN4opae7testing11mock_objectEESt10_Select1stIS6_ESt4lessIiESaIS6_EE6_M_endEv
FNDA:290,_ZNSt8_Rb_treeISsSt4pairIKSsN4opae7testing13test_platformEESt10_Select1stIS5_ESt4lessISsESaIS5_EE6_M_endEv
FNDA:43382,_ZNSt8_Rb_treeIiSt4pairIKiPN4opae7testing11mock_objectEESt10_Select1stIS6_ESt4lessIiESaIS6_EE8_S_valueEPKSt13_Rb_tree_nodeIS6_E
FNDA:2184,_ZNSt8_Rb_treeIiSt4pairIKiPFiPN4opae7testing11mock_objectEiP13__va_list_tagEESt10_Select1stISA_ESt4lessIiESaISA_EE8_S_valueEPKSt13_Rb_tree_nodeISA_E
FNDA:236,_ZNSt8_Rb_treeISsSt4pairIKSsN4opae7testing13test_platformEESt10_Select1stIS5_ESt4lessISsESaIS5_EE8_S_valueEPKSt13_Rb_tree_nodeIS5_E
FNDA:43382,_ZNSt8_Rb_treeIiSt4pairIKiPN4opae7testing11mock_objectEESt10_Select1stIS6_ESt4lessIiESaIS6_EE6_S_keyEPKSt13_Rb_tree_nodeIS6_E
FNDA:2184,_ZNSt8_Rb_treeIiSt4pairIKiPFiPN4opae7testing11mock_objectEiP13__va_list_tagEESt10_Select1stISA_ESt4lessIiESaISA_EE6_S_keyEPKSt13_Rb_tree_nodeISA_E
FNDA:236,_ZNSt8_Rb_treeISsSt4pairIKSsN4opae7testing13test_platformEESt10_Select1stIS5_ESt4lessISsESaIS5_EE6_S_keyEPKSt13_Rb_tree_nodeIS5_E
FNDA:1225,_ZNSt8_Rb_treeIiSt4pairIKiPFiPN4opae7testing11mock_objectEiP13__va_list_tagEESt10_Select1stISA_ESt4lessIiESaISA_EE7_S_leftEPSt18_Rb_tree_node_base
FNDA:22034,_ZNSt8_Rb_treeIiSt4pairIKiPN4opae7testing11mock_objectEESt10_Select1stIS6_ESt4lessIiESaIS6_EE7_S_leftEPSt18_Rb_tree_node_base
FNDA:236,_ZNSt8_Rb_treeISsSt4pairIKSsN4opae7testing13test_platformEESt10_Select1stIS5_ESt4lessISsESaIS5_EE7_S_leftEPSt18_Rb_tree_node_base
FNDA:706,_ZNSt8_Rb_treeIiSt4pairIKiPFiPN4opae7testing11mock_objectEiP13__va_list_tagEESt10_Select1stISA_ESt4lessIiESaISA_EE8_S_rightEPSt18_Rb_tree_node_base
FNDA:21509,_ZNSt8_Rb_treeIiSt4pairIKiPN4opae7testing11mock_objectEESt10_Select1stIS6_ESt4lessIiESaIS6_EE8_S_rightEPSt18_Rb_tree_node_base
FNDA:0,_ZNSt8_Rb_treeISsSt4pairIKSsN4opae7testing13test_platformEESt10_Select1stIS5_ESt4lessISsESaIS5_EE8_S_rightEPSt18_Rb_tree_node_base
FNDA:367,_ZNSt8_Rb_treeIiSt4pairIKiPN4opae7testing11mock_objectEESt10_Select1stIS6_ESt4lessIiESaIS6_EE8_S_valueEPKSt18_Rb_tree_node_base
FNDA:685,_ZNSt8_Rb_treeIiSt4pairIKiPFiPN4opae7testing11mock_objectEiP13__va_list_tagEESt10_Select1stISA_ESt4lessIiESaISA_EE8_S_valueEPKSt18_Rb_tree_node_base
FNDA:118,_ZNSt8_Rb_treeISsSt4pairIKSsN4opae7testing13test_platformEESt10_Select1stIS5_ESt4lessISsESaIS5_EE8_S_valueEPKSt18_Rb_tree_node_base
FNDA:367,_ZNSt8_Rb_treeIiSt4pairIKiPN4opae7testing11mock_objectEESt10_Select1stIS6_ESt4lessIiESaIS6_EE6_S_keyEPKSt18_Rb_tree_node_base
FNDA:685,_ZNSt8_Rb_treeIiSt4pairIKiPFiPN4opae7testing11mock_objectEiP13__va_list_tagEESt10_Select1stISA_ESt4lessIiESaISA_EE6_S_keyEPKSt18_Rb_tree_node_base
FNDA:118,_ZNSt8_Rb_treeISsSt4pairIKSsN4opae7testing13test_platformEESt10_Select1stIS5_ESt4lessISsESaIS5_EE6_S_keyEPKSt18_Rb_tree_node_base
FNDA:18,_ZNSt8_Rb_treeIiSt4pairIKiPFiPN4opae7testing11mock_objectEiP13__va_list_tagEESt10_Select1stISA_ESt4lessIiESaISA_EEC2Ev
FNDA:18,_ZNSt8_Rb_treeIiSt4pairIKiPN4opae7testing11mock_objectEESt10_Select1stIS6_ESt4lessIiESaIS6_EEC2Ev
FNDA:18,_ZNSt8_Rb_treeISsSt4pairIKSsN4opae7testing13test_platformEESt10_Select1stIS5_ESt4lessISsESaIS5_EEC2ERKS9_RKSA_
FNDA:0,_ZNSt8_Rb_treeIiSt4pairIKiPN4opae7testing11mock_objectEESt10_Select1stIS6_ESt4lessIiESaIS6_EED2Ev
FNDA:0,_ZNSt8_Rb_treeISsSt4pairIKSsN4opae7testing13test_platformEESt10_Select1stIS5_ESt4lessISsESaIS5_EED2Ev
FNDA:21586,_ZNKSt8_Rb_treeIiSt4pairIKiPN4opae7testing11mock_objectEESt10_Select1stIS6_ESt4lessIiESaIS6_EE8key_compEv
FNDA:208,_ZNKSt8_Rb_treeIiSt4pairIKiPFiPN4opae7testing11mock_objectEiP13__va_list_tagEESt10_Select1stISA_ESt4lessIiESaISA_EE8key_compEv
FNDA:118,_ZNKSt8_Rb_treeISsSt4pairIKSsN4opae7testing13test_platformEESt10_Select1stIS5_ESt4lessISsESaIS5_EE8key_compEv
FNDA:18,_ZNSt8_Rb_treeIiSt4pairIKiPFiPN4opae7testing11mock_objectEiP13__va_list_tagEESt10_Select1stISA_ESt4lessIiESaISA_EE5beginEv
FNDA:250,_ZNSt8_Rb_treeIiSt4pairIKiPN4opae7testing11mock_objectEESt10_Select1stIS6_ESt4lessIiESaIS6_EE5beginEv
FNDA:126,_ZNSt8_Rb_treeISsSt4pairIKSsN4opae7testing13test_platformEESt10_Select1stIS5_ESt4lessISsESaIS5_EE5beginEv
FNDA:1201,_ZNSt8_Rb_treeIiSt4pairIKiPFiPN4opae7testing11mock_objectEiP13__va_list_tagEESt10_Select1stISA_ESt4lessIiESaISA_EE3endEv
FNDA:22080,_ZNSt8_Rb_treeIiSt4pairIKiPN4opae7testing11mock_objectEESt10_Select1stIS6_ESt4lessIiESaIS6_EE3endEv
FNDA:480,_ZNSt8_Rb_treeISsSt4pairIKSsN4opae7testing13test_platformEESt10_Select1stIS5_ESt4lessISsESaIS5_EE3endEv
FNDA:252,_ZNKSt8_Rb_treeIiSt4pairIKiPN4opae7testing11mock_objectEESt10_Select1stIS6_ESt4lessIiESaIS6_EE4sizeEv
FNDA:72,_ZNKSt8_Rb_treeIiSt4pairIKiPFiPN4opae7testing11mock_objectEiP13__va_list_tagEESt10_Select1stISA_ESt4lessIiESaISA_EE4sizeEv
FNDA:126,_ZNKSt8_Rb_treeISsSt4pairIKSsN4opae7testing13test_platformEESt10_Select1stIS5_ESt4lessISsESaIS5_EE4sizeEv
FNDA:118,_ZNSt8_Rb_treeIiSt4pairIKiPN4opae7testing11mock_objectEESt10_Select1stIS6_ESt4lessIiESaIS6_EE5clearEv
FNDA:21838,_ZNSt8_Rb_treeIiSt4pairIKiPN4opae7testing11mock_objectEESt10_Select1stIS6_ESt4lessIiESaIS6_EE11lower_boundERS1_
FNDA:280,_ZNSt8_Rb_treeIiSt4pairIKiPFiPN4opae7testing11mock_objectEiP13__va_list_tagEESt10_Select1stISA_ESt4lessIiESaISA_EE11lower_boundERS1_
FNDA:118,_ZNSt8_Rb_treeISsSt4pairIKSsN4opae7testing13test_platformEESt10_Select1stIS5_ESt4lessISsESaIS5_EE11lower_boundERS1_
FNDA:18,_ZNSt8_Rb_treeISsSt4pairIKSsN4opae7testing13test_platformEESt10_Select1stIS5_ESt4lessISsESaIS5_EE10_M_insert_IRKS5_EESt17_Rb_tree_iteratorIS5_EPSt18_Rb_tree_node_baseSI_OT_
FNDA:417,_ZNSt8_Rb_treeIiSt4pairIKiPN4opae7testing11mock_objectEESt10_Select1stIS6_ESt4lessIiESaIS6_EE8_M_eraseEPSt13_Rb_tree_nodeIS6_E
FNDA:0,_ZNSt8_Rb_treeISsSt4pairIKSsN4opae7testing13test_platformEESt10_Select1stIS5_ESt4lessISsESaIS5_EE8_M_eraseEPSt13_Rb_tree_nodeIS5_E
FNDA:21900,_ZNSt8_Rb_treeIiSt4pairIKiPN4opae7testing11mock_objectEESt10_Select1stIS6_ESt4lessIiESaIS6_EE14_M_lower_boundEPSt13_Rb_tree_nodeIS6_ESF_RS1_
FNDA:622,_ZNSt8_Rb_treeIiSt4pairIKiPFiPN4opae7testing11mock_objectEiP13__va_list_tagEESt10_Select1stISA_ESt4lessIiESaISA_EE14_M_lower_boundEPSt13_Rb_tree_nodeISA_ESJ_RS1_
FNDA:236,_ZNSt8_Rb_treeISsSt4pairIKSsN4opae7testing13test_platformEESt10_Select1stIS5_ESt4lessISsESaIS5_EE14_M_lower_boundEPSt13_Rb_tree_nodeIS5_ESE_RS1_
FNDA:132,_ZNSt8_Rb_treeIiSt4pairIKiPN4opae7testing11mock_objectEESt10_Select1stIS6_ESt4lessIiESaIS6_EE24_M_get_insert_unique_posERS1_
FNDA:18,_ZNSt8_Rb_treeIiSt4pairIKiPFiPN4opae7testing11mock_objectEiP13__va_list_tagEESt10_Select1stISA_ESt4lessIiESaISA_EE24_M_get_insert_unique_posERS1_
FNDA:18,_ZNSt8_Rb_treeISsSt4pairIKSsN4opae7testing13test_platformEESt10_Select1stIS5_ESt4lessISsESaIS5_EE24_M_get_insert_unique_posERS1_
FNDA:317,_ZNSt8_Rb_treeIiSt4pairIKiPN4opae7testing11mock_objectEESt10_Select1stIS6_ESt4lessIiESaIS6_EE29_M_get_insert_hint_unique_posESt23_Rb_tree_const_iteratorIS6_ERS1_
FNDA:235,_ZNSt8_Rb_treeIiSt4pairIKiPFiPN4opae7testing11mock_objectEiP13__va_list_tagEESt10_Select1stISA_ESt4lessIiESaISA_EE29_M_get_insert_hint_unique_posESt23_Rb_tree_const_iteratorISA_ERS1_
FNDA:18,_ZNSt8_Rb_treeISsSt4pairIKSsN4opae7testing13test_platformEESt10_Select1stIS5_ESt4lessISsESaIS5_EE29_M_get_insert_hint_unique_posESt23_Rb_tree_const_iteratorIS5_ERS1_
FNDA:18,_ZNSt8_Rb_treeISsSt4pairIKSsN4opae7testing13test_platformEESt10_Select1stIS5_ESt4lessISsESaIS5_EE17_M_insert_unique_IRKS5_EESt17_Rb_tree_iteratorIS5_ESt23_Rb_tree_const_iteratorIS5_EOT_
FNDA:317,_ZNSt8_Rb_treeIiSt4pairIKiPN4opae7testing11mock_objectEESt10_Select1stIS6_ESt4lessIiESaIS6_EE14_M_insert_nodeEPSt18_Rb_tree_node_baseSE_PSt13_Rb_tree_nodeIS6_E
FNDA:235,_ZNSt8_Rb_treeIiSt4pairIKiPFiPN4opae7testing11mock_objectEiP13__va_list_tagEESt10_Select1stISA_ESt4lessIiESaISA_EE14_M_insert_nodeEPSt18_Rb_tree_node_baseSI_PSt13_Rb_tree_nodeISA_E
FNDA:0,_ZNSt8_Rb_treeISsSt4pairIKSsN4opae7testing13test_platformEESt10_Select1stIS5_ESt4lessISsESaIS5_EE14_M_insert_nodeEPSt18_Rb_tree_node_baseSD_PSt13_Rb_tree_nodeIS5_E
FNDA:317,_ZNSt8_Rb_treeIiSt4pairIKiPN4opae7testing11mock_objectEESt10_Select1stIS6_ESt4lessIiESaIS6_EE22_M_emplace_hint_uniqueIIRKSt21piecewise_construct_tSt5tupleIIRS1_EESH_IIEEEEESt17_Rb_tree_iteratorIS6_ESt23_Rb_tree_const_iteratorIS6_EDpOT_
FNDA:235,_ZNSt8_Rb_treeIiSt4pairIKiPFiPN4opae7testing11mock_objectEiP13__va_list_tagEESt10_Select1stISA_ESt4lessIiESaISA_EE22_M_emplace_hint_uniqueIIRKSt21piecewise_construct_tSt5tupleIIRS1_EESL_IIEEEEESt17_Rb_tree_iteratorISA_ESt23_Rb_tree_const_iteratorISA_EDpOT_
FNDA:0,_ZNSt8_Rb_treeISsSt4pairIKSsN4opae7testing13test_platformEESt10_Select1stIS5_ESt4lessISsESaIS5_EE22_M_emplace_hint_uniqueIIRKSt21piecewise_construct_tSt5tupleIIRS1_EESG_IIEEEEESt17_Rb_tree_iteratorIS5_ESt23_Rb_tree_const_iteratorIS5_EDpOT_
FNDA:18,_ZNSt8_Rb_treeISsSt4pairIKSsN4opae7testing13test_platformEESt10_Select1stIS5_ESt4lessISsESaIS5_EE16_M_insert_uniqueIPKS5_EEvT_SF_
FNDA:62,_ZNSt8_Rb_treeIiSt4pairIKiPN4opae7testing11mock_objectEESt10_Select1stIS6_ESt4lessIiESaIS6_EE4findERS1_
FNDA:342,_ZNSt8_Rb_treeIiSt4pairIKiPFiPN4opae7testing11mock_objectEiP13__va_list_tagEESt10_Select1stISA_ESt4lessIiESaISA_EE4findERS1_
FNDA:118,_ZNSt8_Rb_treeISsSt4pairIKSsN4opae7testing13test_platformEESt10_Select1stIS5_ESt4lessISsESaIS5_EE4findERS1_
FNF:130
FNH:110
DA:131,0
DA:138,570
DA:140,570
DA:174,48221
DA:175,48221
DA:178,44555
DA:179,44555
DA:182,122
DA:184,122
DA:187,407
DA:189,407
DA:190,407
DA:202,90
DA:204,90
DA:205,90
DA:217,22988
DA:218,22988
DA:221,1093
DA:222,1093
DA:250,570
DA:251,570
DA:254,570
DA:256,570
DA:356,869
DA:357,869
DA:369,570
DA:370,570
DA:373,299
DA:374,299
DA:401,570
DA:403,570
DA:406,570
DA:407,570
DA:408,570
DA:410,=====
DA:412,=====
DA:413,=====
DA:415,570
DA:419,299
DA:421,299
DA:422,299
DA:423,299
DA:439,0
DA:445,36
DA:447,36
DA:448,36
DA:456,18
DA:457,18
DA:458,18
DA:459,18
DA:464,54
DA:466,54
DA:467,54
DA:468,54
DA:469,54
DA:470,54
DA:477,118
DA:478,118
DA:485,622
DA:486,622
DA:493,466
DA:494,466
DA:501,23044
DA:502,23044
DA:512,24128
DA:513,24128
DA:520,45802
DA:521,45802
DA:524,45802
DA:525,45802
DA:528,23495
DA:529,23495
DA:536,22215
DA:537,22215
DA:544,1170
DA:545,1170
DA:548,1170
DA:549,1170
DA:648,36
DA:650,18
DA:652,18
DA:670,0
DA:671,0
DA:678,21912
DA:679,21912
DA:682,394
DA:685,394
DA:696,23761
DA:697,23761
DA:727,450
DA:728,450
DA:858,118
DA:860,118
DA:861,118
DA:862,118
DA:863,118
DA:864,118
DA:865,118
DA:878,22236
DA:879,22236
DA:1012,18
DA:1019,18
DA:1020,18
DA:1021,54
DA:1023,18
DA:1025,18
DA:1026,18
DA:1027,18
DA:1028,18
DA:1119,417
DA:1123,1133
DA:1125,299
DA:1126,299
DA:1127,299
DA:1128,299
DA:1130,417
DA:1136,22758
DA:1140,90538
DA:1141,45022
DA:1142,23196
DA:1144,21826
DA:1145,22758
DA:1314,168
DA:1318,168
DA:1319,168
DA:1320,168
DA:1321,336
DA:1323,0
DA:1324,0
DA:1325,0
DA:1327,168
DA:1328,168
DA:1330,168
DA:1331,168
DA:1333,0
DA:1335,0
DA:1336,0
DA:1337,0
DA:1411,570
DA:1415,570
DA:1419,570
DA:1421,516
DA:1422,174
DA:1423,174
DA:1425,168
DA:1427,228
DA:1430,228
DA:1431,228
DA:1432,138
DA:1433,90
DA:1435,90
DA:1436,54
DA:1438,36
DA:1441,0
DA:1443,0
DA:1446,0
DA:1447,0
DA:1448,0
DA:1449,0
DA:1451,0
DA:1452,0
DA:1454,0
DA:1457,0
DA:1461,0
DA:1470,18
DA:1478,18
DA:1480,18
DA:1482,18
DA:1483,0
DA:1568,552
DA:1571,378
DA:1572,228
DA:1573,1158
DA:1575,552
DA:1576,552
DA:1577,552
DA:1578,552
DA:1666,552
DA:1669,552
DA:1673,552
DA:1675,552
DA:1676,552
DA:1678,0
DA:1679,0
DA:1681,=====
DA:1683,=====
DA:1684,=====
DA:1718,18
DA:1721,36
DA:1722,18
DA:1723,18
DA:1789,522
DA:1792,522
DA:1793,2088
DA:1794,450
DA:1795,2538
LF:196
LH:165
end_of_record
SF:/usr/include/c++/4.8/bits/stl_uninitialized.h
FN:68,_ZNSt20__uninitialized_copyILb0EE13__uninit_copyISt13move_iteratorIPSsES3_EET0_T_S6_S5_
FN:68,_ZNSt20__uninitialized_copyILb0EE13__uninit_copyIN9__gnu_cxx17__normal_iteratorIPKSsSt6vectorISsSaISsEEEEPSsEET0_T_SC_SB_
FN:91,_ZNSt20__uninitialized_copyILb1EE13__uninit_copyIN9__gnu_cxx17__normal_iteratorIPKN4opae7testing11test_deviceESt6vectorIS6_SaIS6_EEEEPS6_EET0_T_SF_SE_
FN:91,_ZNSt20__uninitialized_copyILb1EE13__uninit_copyIPKN4opae7testing11test_deviceEPS4_EET0_T_S9_S8_
FN:107,_ZSt18uninitialized_copyIPKN4opae7testing11test_deviceEPS2_ET0_T_S7_S6_
FN:107,_ZSt18uninitialized_copyIN9__gnu_cxx17__normal_iteratorIPKN4opae7testing11test_deviceESt6vectorIS4_SaIS4_EEEEPS4_ET0_T_SD_SC_
FN:107,_ZSt18uninitialized_copyIN9__gnu_cxx17__normal_iteratorIPKSsSt6vectorISsSaISsEEEEPSsET0_T_SA_S9_
FN:107,_ZSt18uninitialized_copyISt13move_iteratorIPSsES1_ET0_T_S4_S3_
FN:256,_ZSt22__uninitialized_copy_aISt13move_iteratorIPSsES1_SsET0_T_S4_S3_RSaIT1_E
FN:256,_ZSt22__uninitialized_copy_aIPKN4opae7testing11test_deviceEPS2_S2_ET0_T_S7_S6_RSaIT1_E
FN:256,_ZSt22__uninitialized_copy_aIN9__gnu_cxx17__normal_iteratorIPKN4opae7testing11test_deviceESt6vectorIS4_SaIS4_EEEEPS4_S4_ET0_T_SD_SC_RSaIT1_E
FN:256,_ZSt22__uninitialized_copy_aIN9__gnu_cxx17__normal_iteratorIPKSsSt6vectorISsSaISsEEEEPSsSsET0_T_SA_S9_RSaIT1_E
FN:274,_ZSt34__uninitialized_move_if_noexcept_aIPSsS0_SaISsEET0_T_S3_S2_RT1_
FN:489,_ZNSt27__uninitialized_default_n_1ILb0EE18__uninit_default_nIPSsmEEvT_T0_
FN:538,_ZSt25__uninitialized_default_nIPSsmEvT_T0_
FN:603,_ZSt27__uninitialized_default_n_aIPSsmSsEvT_T0_RSaIT1_E
FNDA:43358,_ZNSt20__uninitialized_copyILb0EE13__uninit_copyISt13move_iteratorIPSsES3_EET0_T_S6_S5_
FNDA:0,_ZNSt20__uninitialized_copyILb0EE13__uninit_copyIN9__gnu_cxx17__normal_iteratorIPKSsSt6vectorISsSaISsEEEEPSsEET0_T_SC_SB_
FNDA:18,_ZNSt20__uninitialized_copyILb1EE13__uninit_copyIPKN4opae7testing11test_deviceEPS4_EET0_T_S9_S8_
FNDA:244,_ZNSt20__uninitialized_copyILb1EE13__uninit_copyIN9__gnu_cxx17__normal_iteratorIPKN4opae7testing11test_deviceESt6vectorIS6_SaIS6_EEEEPS6_EET0_T_SF_SE_
FNDA:43358,_ZSt18uninitialized_copyISt13move_iteratorIPSsES1_ET0_T_S4_S3_
FNDA:18,_ZSt18uninitialized_copyIPKN4opae7testing11test_deviceEPS2_ET0_T_S7_S6_
FNDA:244,_ZSt18uninitialized_copyIN9__gnu_cxx17__normal_iteratorIPKN4opae7testing11test_deviceESt6vectorIS4_SaIS4_EEEEPS4_ET0_T_SD_SC_
FNDA:0,_ZSt18uninitialized_copyIN9__gnu_cxx17__normal_iteratorIPKSsSt6vectorISsSaISsEEEEPSsET0_T_SA_S9_
FNDA:43358,_ZSt22__uninitialized_copy_aISt13move_iteratorIPSsES1_SsET0_T_S4_S3_RSaIT1_E
FNDA:18,_ZSt22__uninitialized_copy_aIPKN4opae7testing11test_deviceEPS2_S2_ET0_T_S7_S6_RSaIT1_E
FNDA:244,_ZSt22__uninitialized_copy_aIN9__gnu_cxx17__normal_iteratorIPKN4opae7testing11test_deviceESt6vectorIS4_SaIS4_EEEEPS4_S4_ET0_T_SD_SC_RSaIT1_E
FNDA:0,_ZSt22__uninitialized_copy_aIN9__gnu_cxx17__normal_iteratorIPKSsSt6vectorISsSaISsEEEEPSsSsET0_T_SA_S9_RSaIT1_E
FNDA:43358,_ZSt34__uninitialized_move_if_noexcept_aIPSsS0_SaISsEET0_T_S3_S2_RT1_
FNDA:108,_ZNSt27__uninitialized_default_n_1ILb0EE18__uninit_default_nIPSsmEEvT_T0_
FNDA:108,_ZSt25__uninitialized_default_nIPSsmEvT_T0_
FNDA:108,_ZSt27__uninitialized_default_n_aIPSsmSsEvT_T0_RSaIT1_E
FNF:16
FNH:13
DA:68,43358
DA:71,43358
DA:74,65330
DA:75,21972
DA:76,43358
DA:78,=====
DA:80,=====
DA:81,=====
DA:91,262
DA:93,262
DA:107,43620
DA:117,43620
DA:256,43620
DA:258,43620
DA:274,43358
DA:281,43358
DA:489,108
DA:491,108
DA:494,216
DA:495,108
DA:497,=====
DA:499,=====
DA:500,=====
DA:502,108
DA:538,108
DA:543,108
DA:545,108
DA:603,108
DA:605,108
LF:29
LH:23
end_of_record
SF:/usr/include/c++/4.8/bits/stl_vector.h
FN:79,_ZNSt12_Vector_baseIN4opae7testing11test_deviceESaIS2_EE12_Vector_implD2Ev
FN:79,_ZNSt12_Vector_baseISsSaISsEE12_Vector_implD2Ev
FN:86,_ZNSt12_Vector_baseIN4opae7testing11test_deviceESaIS2_EE12_Vector_implC2Ev
FN:86,_ZNSt12_Vector_baseISsSaISsEE12_Vector_implC2Ev
FN:90,_ZNSt12_Vector_baseIN4opae7testing11test_deviceESaIS2_EE12_Vector_implC2ERKS3_
FN:90,_ZNSt12_Vector_baseISsSaISsEE12_Vector_implC2ERKS0_
FN:95,_ZNSt12_Vector_baseIN4opae7testing11test_deviceESaIS2_EE12_Vector_implC2EOS3_
FN:101,_ZNSt12_Vector_baseIN4opae7testing11test_deviceESaIS2_EE12_Vector_impl12_M_swap_dataERS5_
FN:113,_ZNSt12_Vector_baseISsSaISsEE19_M_get_Tp_allocatorEv
FN:113,_ZNSt12_Vector_baseIN4opae7testing11test_deviceESaIS2_EE19_M_get_Tp_allocatorEv
FN:117,_ZNKSt12_Vector_baseIN4opae7testing11test_deviceESaIS2_EE19_M_get_Tp_allocatorEv
FN:117,_ZNKSt12_Vector_baseISsSaISsEE19_M_get_Tp_allocatorEv
FN:124,_ZNSt12_Vector_baseISsSaISsEEC2Ev
FN:124,_ZNSt12_Vector_baseIN4opae7testing11test_deviceESaIS2_EEC2Ev
FN:127,_ZNSt12_Vector_baseIN4opae7testing11test_deviceESaIS2_EEC2ERKS3_
FN:134,_ZNSt12_Vector_baseIN4opae7testing11test_deviceESaIS2_EEC2EmRKS3_
FN:134,_ZNSt12_Vector_baseISsSaISsEEC2EmRKS0_
FN:142,_ZNSt12_Vector_baseIN4opae7testing11test_deviceESaIS2_EEC2EOS4_
FN:159,_ZNSt12_Vector_baseIN4opae7testing11test_deviceESaIS2_EED2Ev
FN:159,_ZNSt12_Vector_baseISsSaISsEED2Ev
FN:167,_ZNSt12_Vector_baseIN4opae7testing11test_deviceESaIS2_EE11_M_allocateEm
FN:167,_ZNSt12_Vector_baseISsSaISsEE11_M_allocateEm
FN:171,_ZNSt12_Vector_baseISsSaISsEE13_M_deallocateEPSsm
FN:171,_ZNSt12_Vector_baseIN4opae7testing11test_deviceESaIS2_EE13_M_deallocateEPS2_m
FN:179,_ZNSt12_Vector_baseISsSaISsEE17_M_create_storageEm
FN:179,_ZNSt12_Vector_baseIN4opae7testing11test_deviceESaIS2_EE17_M_create_storageEm
FN:248,_ZNSt6vectorIN4opae7testing11test_deviceESaIS2_EEC2Ev
FN:248,_ZNSt6vectorISsSaISsEEC2Ev
FN:269,_ZNSt6vectorISsSaISsEEC2EmRKS0_
FN:310,_ZNSt6vectorISsSaISsEEC2ERKS1_
FN:310,_ZNSt6vectorIN4opae7testing11test_deviceESaIS2_EEC2ERKS4_
FN:327,_ZNSt6vectorIN4opae7testing11test_deviceESaIS2_EEC2EOS4_
FN:364,_ZNSt6vectorIN4opae7testing11test_deviceESaIS2_EEC2ESt16initializer_listIS2_ERKS3_
FN:414,_ZNSt6vectorISsSaISsEED2Ev
FN:414,_ZNSt6vectorIN4opae7testing11test_deviceESaIS2_EED2Ev
FN:538,_ZNSt6vectorISsSaISsEE5beginEv
FN:547,_ZNKSt6vectorIN4opae7testing11test_deviceESaIS2_EE5beginEv
FN:547,_ZNKSt6vectorISsSaISsEE5beginEv
FN:556,_ZNSt6vectorISsSaISsEE3endEv
FN:565,_ZNKSt6vectorISsSaISsEE3endEv
FN:565,_ZNKSt6vectorIN4opae7testing11test_deviceESaIS2_EE3endEv
FN:645,_ZNKSt6vectorIN4opae7testing11test_deviceESaIS2_EE4sizeEv
FN:645,_ZNKSt6vectorISsSaISsEE4sizeEv
FN:650,_ZNKSt6vectorISsSaISsEE8max_sizeEv
FN:770,_ZNSt6vectorISsSaISsEEixEm
FN:919,_ZNSt6vectorISsSaISsEE9push_backEOSs
FN:1197,_ZNSt6vectorIN4opae7testing11test_deviceESaIS2_EE19_M_range_initializeIPKS2_EEvT_S8_St20forward_iterator_tag
FN:1222,_ZNSt6vectorISsSaISsEE21_M_default_initializeEm
FN:1336,_ZNKSt6vectorISsSaISsEE12_M_check_lenEmPKc
FNDA:8,_ZNSt12_Vector_baseIN4opae7testing11test_deviceESaIS2_EE12_Vector_implD2Ev
FNDA:0,_ZNSt12_Vector_baseISsSaISsEE12_Vector_implD2Ev
FNDA:0,_ZNSt12_Vector_baseIN4opae7testing11test_deviceESaIS2_EE12_Vector_implC2Ev
FNDA:21792,_ZNSt12_Vector_baseISsSaISsEE12_Vector_implC2Ev
FNDA:8,_ZNSt12_Vector_baseIN4opae7testing11test_deviceESaIS2_EE12_Vector_implC2ERKS3_
FNDA:0,_ZNSt12_Vector_baseISsSaISsEE12_Vector_implC2ERKS0_
FNDA:18,_ZNSt12_Vector_baseIN4opae7testing11test_deviceESaIS2_EE12_Vector_implC2EOS3_
FNDA:4,_ZNSt12_Vector_baseIN4opae7testing11test_deviceESaIS2_EE12_Vector_impl12_M_swap_dataERS5_
FNDA:20,_ZNSt12_Vector_baseIN4opae7testing11test_deviceESaIS2_EE19_M_get_Tp_allocatorEv
FNDA:16,_ZNSt12_Vector_baseISsSaISsEE19_M_get_Tp_allocatorEv
FNDA:4,_ZNKSt12_Vector_baseIN4opae7testing11test_deviceESaIS2_EE19_M_get_Tp_allocatorEv
FNDA:108224,_ZNKSt12_Vector_baseISsSaISsEE19_M_get_Tp_allocatorEv
FNDA:0,_ZNSt12_Vector_baseIN4opae7testing11test_deviceESaIS2_EEC2Ev
FNDA:21792,_ZNSt12_Vector_baseISsSaISsEEC2Ev
FNDA:4,_ZNSt12_Vector_baseIN4opae7testing11test_deviceESaIS2_EEC2ERKS3_
FNDA:244,_ZNSt12_Vector_baseIN4opae7testing11test_deviceESaIS2_EEC2EmRKS3_
FNDA:21660,_ZNSt12_Vector_baseISsSaISsEEC2EmRKS0_
FNDA:18,_ZNSt12_Vector_baseIN4opae7testing11test_deviceESaIS2_EEC2EOS4_
FNDA:8,_ZNSt12_Vector_baseIN4opae7testing11test_deviceESaIS2_EED2Ev
FNDA:0,_ZNSt12_Vector_baseISsSaISsEED2Ev
FNDA:4,_ZNSt12_Vector_baseISsSaISsEE11_M_allocateEm
FNDA:262,_ZNSt12_Vector_baseIN4opae7testing11test_deviceESaIS2_EE11_M_allocateEm
FNDA:8,_ZNSt12_Vector_baseIN4opae7testing11test_deviceESaIS2_EE13_M_deallocateEPS2_m
FNDA:4,_ZNSt12_Vector_baseISsSaISsEE13_M_deallocateEPSsm
FNDA:244,_ZNSt12_Vector_baseIN4opae7testing11test_deviceESaIS2_EE17_M_create_storageEm
FNDA:21660,_ZNSt12_Vector_baseISsSaISsEE17_M_create_storageEm
FNDA:0,_ZNSt6vectorIN4opae7testing11test_deviceESaIS2_EEC2Ev
FNDA:21792,_ZNSt6vectorISsSaISsEEC2Ev
FNDA:108,_ZNSt6vectorISsSaISsEEC2EmRKS0_
FNDA:244,_ZNSt6vectorIN4opae7testing11test_deviceESaIS2_EEC2ERKS4_
FNDA:21552,_ZNSt6vectorISsSaISsEEC2ERKS1_
FNDA:18,_ZNSt6vectorIN4opae7testing11test_deviceESaIS2_EEC2EOS4_
FNDA:18,_ZNSt6vectorIN4opae7testing11test_deviceESaIS2_EEC2ESt16initializer_listIS2_ERKS3_
FNDA:8,_ZNSt6vectorIN4opae7testing11test_deviceESaIS2_EED2Ev
FNDA:0,_ZNSt6vectorISsSaISsEED2Ev
FNDA:220,_ZNSt6vectorISsSaISsEE5beginEv
FNDA:244,_ZNKSt6vectorIN4opae7testing11test_deviceESaIS2_EE5beginEv
FNDA:0,_ZNKSt6vectorISsSaISsEE5beginEv
FNDA:112,_ZNSt6vectorISsSaISsEE3endEv
FNDA:244,_ZNKSt6vectorIN4opae7testing11test_deviceESaIS2_EE3endEv
FNDA:0,_ZNKSt6vectorISsSaISsEE3endEv
FNDA:130,_ZNKSt6vectorIN4opae7testing11test_deviceESaIS2_EE4sizeEv
FNDA:238250,_ZNKSt6vectorISsSaISsEE4sizeEv
FNDA:86672,_ZNKSt6vectorISsSaISsEE8max_sizeEv
FNDA:21953,_ZNSt6vectorISsSaISsEEixEm
FNDA:43314,_ZNSt6vectorISsSaISsEE9push_backEOSs
FNDA:18,_ZNSt6vectorIN4opae7testing11test_deviceESaIS2_EE19_M_range_initializeIPKS2_EEvT_S8_St20forward_iterator_tag
FNDA:108,_ZNSt6vectorISsSaISsEE21_M_default_initializeEm
FNDA:43336,_ZNKSt6vectorISsSaISsEE12_M_check_lenEmPKc
FNF:49
FNH:40
DA:79,8
DA:86,21792
DA:87,21792
DA:88,21792
DA:90,8
DA:91,8
DA:92,8
DA:95,18
DA:96,18
DA:97,18
DA:98,18
DA:101,4
DA:103,4
DA:104,4
DA:105,4
DA:106,4
DA:113,36
DA:114,36
DA:117,108228
DA:118,108228
DA:124,21792
DA:125,21792
DA:127,4
DA:128,4
DA:134,21904
DA:135,21904
DA:136,21904
DA:142,18
DA:143,18
DA:144,18
DA:159,8
DA:160,8
DA:161,16
DA:167,266
DA:168,266
DA:171,12
DA:173,12
DA:174,4
DA:175,12
DA:179,21904
DA:181,21904
DA:182,21904
DA:183,21904
DA:184,21904
DA:248,21792
DA:249,21792
DA:269,108
DA:270,108
DA:271,108
DA:310,21796
DA:312,21796
DA:313,21796
DA:316,21796
DA:317,21796
DA:327,18
DA:328,18
DA:364,18
DA:366,18
DA:368,18
DA:369,36
DA:370,18
DA:414,8
DA:415,8
DA:416,16
DA:538,220
DA:539,220
DA:547,244
DA:548,244
DA:556,112
DA:557,112
DA:565,244
DA:566,244
DA:645,238380
DA:646,238380
DA:650,86672
DA:651,86672
DA:770,21953
DA:771,21953
DA:919,43314
DA:920,43314
DA:1197,18
DA:1200,18
DA:1201,18
DA:1202,18
DA:1203,18
DA:1206,18
DA:1207,18
DA:1222,108
DA:1224,108
DA:1225,108
DA:1226,108
DA:1227,108
DA:1336,43336
DA:1338,43336
DA:1339,0
DA:1341,43336
DA:1342,43336
LF:97
LH:96
end_of_record
SF:/usr/include/c++/4.8/bits/vector.tcc
FN:91,_ZNSt6vectorISsSaISsEE12emplace_backIISsEEEvDpOT_
FN:399,_ZNSt6vectorISsSaISsEE19_M_emplace_back_auxIISsEEEvDpOT_
FNDA:43314,_ZNSt6vectorISsSaISsEE12emplace_backIISsEEEvDpOT_
FNDA:43314,_ZNSt6vectorISsSaISsEE19_M_emplace_back_auxIISsEEEvDpOT_
FNF:2
FNH:2
DA:91,43314
DA:94,43314
DA:96,0
DA:97,0
DA:98,0
DA:101,43314
DA:102,43314
DA:399,43314
DA:403,43314
DA:404,43314
DA:405,43314
DA:408,86628
DA:409,86628
DA:410,43314
DA:412,43314
DA:415,43314
DA:417,43314
DA:419,=====
DA:421,=====
DA:422,=====
DA:424,=====
DA:425,=====
DA:426,=====
DA:428,43314
DA:429,43314
DA:430,43314
DA:432,43314
DA:433,43314
DA:434,43314
DA:435,43314
DA:436,43314
LF:31
LH:22
end_of_record
SF:/usr/include/c++/4.8/ext/alloc_traits.h
FN:166,_ZN9__gnu_cxx14__alloc_traitsISaISsEE17_S_select_on_copyERKS1_
FN:166,_ZN9__gnu_cxx14__alloc_traitsISaIN4opae7testing11test_deviceEEE17_S_select_on_copyERKS4_
FNDA:244,_ZN9__gnu_cxx14__alloc_traitsISaIN4opae7testing11test_deviceEEE17_S_select_on_copyERKS4_
FNDA:21552,_ZN9__gnu_cxx14__alloc_traitsISaISsEE17_S_select_on_copyERKS1_
FNF:2
FNH:2
DA:166,21796
DA:167,21796
LF:2
LH:2
end_of_record
SF:/usr/include/c++/4.8/ext/atomicity.h
FN:48,_ZN9__gnu_cxxL18__exchange_and_addEPVii
FN:65,_ZN9__gnu_cxxL25__exchange_and_add_singleEPii
FN:78,_ZN9__gnu_cxxL27__exchange_and_add_dispatchEPii
FNDA:127390,_ZN9__gnu_cxxL18__exchange_and_addEPVii
FNDA:0,_ZN9__gnu_cxxL25__exchange_and_add_singleEPii
FNDA:127390,_ZN9__gnu_cxxL27__exchange_and_add_dispatchEPii
FNF:3
FNH:2
DA:48,127390
DA:49,127390
DA:65,0
DA:67,0
DA:68,0
DA:69,0
DA:78,127390
DA:81,127390
DA:82,127390
DA:84,0
LF:10
LH:5
end_of_record
SF:/usr/include/c++/4.8/ext/new_allocator.h
FN:79,_ZN9__gnu_cxx13new_allocatorISsEC2Ev
FN:79,_ZN9__gnu_cxx13new_allocatorIN4opae7testing11test_deviceEEC2Ev
FN:79,_ZN9__gnu_cxx13new_allocatorISt13_Rb_tree_nodeISt4pairIKiPN4opae7testing11mock_objectEEEEC2Ev
FN:79,_ZN9__gnu_cxx13new_allocatorISt13_Rb_tree_nodeISt4pairIKSsN4opae7testing13test_platformEEEEC2Ev
FN:79,_ZN9__gnu_cxx13new_allocatorISt13_Rb_tree_nodeISt4pairIKiPFiPN4opae7testing11mock_objectEiP13__va_list_tagEEEEC2Ev
FN:79,_ZN9__gnu_cxx13new_allocatorISt4pairIKSsN4opae7testing13test_platformEEEC2Ev
FN:79,_ZN9__gnu_cxx13new_allocatorIcEC2Ev
FN:81,_ZN9__gnu_cxx13new_allocatorISt13_Rb_tree_nodeISt4pairIKSsN4opae7testing13test_platformEEEEC2ERKS9_
FN:81,_ZN9__gnu_cxx13new_allocatorISsEC2ERKS1_
FN:81,_ZN9__gnu_cxx13new_allocatorISt4pairIKSsN4opae7testing13test_platformEEEC2ERKS7_
FN:81,_ZN9__gnu_cxx13new_allocatorIN4opae7testing11test_deviceEEC2ERKS4_
FN:81,_ZN9__gnu_cxx13new_allocatorIcEC2ERKS1_
FN:86,_ZN9__gnu_cxx13new_allocatorISt4pairIKSsN4opae7testing13test_platformEEED2Ev
FN:86,_ZN9__gnu_cxx13new_allocatorISt13_Rb_tree_nodeISt4pairIKSsN4opae7testing13test_platformEEEED2Ev
FN:86,_ZN9__gnu_cxx13new_allocatorISt13_Rb_tree_nodeISt4pairIKiPN4opae7testing11mock_objectEEEED2Ev
FN:86,_ZN9__gnu_cxx13new_allocatorISsED2Ev
FN:86,_ZN9__gnu_cxx13new_allocatorISt13_Rb_tree_nodeISt4pairIKiPFiPN4opae7testing11mock_objectEiP13__va_list_tagEEEED2Ev
FN:86,_ZN9__gnu_cxx13new_allocatorIN4opae7testing11test_deviceEED2Ev
FN:86,_ZN9__gnu_cxx13new_allocatorIcED2Ev
FN:99,_ZN9__gnu_cxx13new_allocatorISsE8allocateEmPKv
FN:99,_ZN9__gnu_cxx13new_allocatorISt13_Rb_tree_nodeISt4pairIKiPN4opae7testing11mock_objectEEEE8allocateEmPKv
FN:99,_ZN9__gnu_cxx13new_allocatorIN4opae7testing11test_deviceEE8allocateEmPKv
FN:99,_ZN9__gnu_cxx13new_allocatorISt13_Rb_tree_nodeISt4pairIKiPFiPN4opae7testing11mock_objectEiP13__va_list_tagEEEE8allocateEmPKv
FN:99,_ZN9__gnu_cxx13new_allocatorISt13_Rb_tree_nodeISt4pairIKSsN4opae7testing13test_platformEEEE8allocateEmPKv
FN:109,_ZN9__gnu_cxx13new_allocatorISt13_Rb_tree_nodeISt4pairIKSsN4opae7testing13test_platformEEEE10deallocateEPS8_m
FN:109,_ZN9__gnu_cxx13new_allocatorISt13_Rb_tree_nodeISt4pairIKiPFiPN4opae7testing11mock_objectEiP13__va_list_tagEEEE10deallocateEPSD_m
FN:109,_ZN9__gnu_cxx13new_allocatorIN4opae7testing11test_deviceEE10deallocateEPS3_m
FN:109,_ZN9__gnu_cxx13new_allocatorISsE10deallocateEPSsm
FN:109,_ZN9__gnu_cxx13new_allocatorISt13_Rb_tree_nodeISt4pairIKiPN4opae7testing11mock_objectEEEE10deallocateEPS9_m
FN:113,_ZNK9__gnu_cxx13new_allocatorISt13_Rb_tree_nodeISt4pairIKSsN4opae7testing13test_platformEEEE8max_sizeEv
FN:113,_ZNK9__gnu_cxx13new_allocatorISt13_Rb_tree_nodeISt4pairIKiPN4opae7testing11mock_objectEEEE8max_sizeEv
FN:113,_ZNK9__gnu_cxx13new_allocatorISsE8max_sizeEv
FN:113,_ZNK9__gnu_cxx13new_allocatorISt13_Rb_tree_nodeISt4pairIKiPFiPN4opae7testing11mock_objectEiP13__va_list_tagEEEE8max_sizeEv
FN:113,_ZNK9__gnu_cxx13new_allocatorIN4opae7testing11test_deviceEE8max_sizeEv
FN:119,_ZN9__gnu_cxx13new_allocatorISt13_Rb_tree_nodeISt4pairIKSsN4opae7testing13test_platformEEEE9constructIS8_IRKS7_EEEvPT_DpOT0_
FN:119,_ZN9__gnu_cxx13new_allocatorISt13_Rb_tree_nodeISt4pairIKiPN4opae7testing11mock_objectEEEE9constructIS9_IRKSt21piecewise_construct_tSt5tupleIIRS3_EESF_IIEEEEEvPT_DpOT0_
FN:119,_ZN9__gnu_cxx13new_allocatorISt13_Rb_tree_nodeISt4pairIKSsN4opae7testing13test_platformEEEE9constructIS8_IRKSt21piecewise_construct_tSt5tupleIIRS3_EESE_IIEEEEEvPT_DpOT0_
FN:119,_ZN9__gnu_cxx13new_allocatorISsE9constructISsISsEEEvPT_DpOT0_
FN:119,_ZN9__gnu_cxx13new_allocatorISt13_Rb_tree_nodeISt4pairIKiPFiPN4opae7testing11mock_objectEiP13__va_list_tagEEEE9constructISD_IRKSt21piecewise_construct_tSt5tupleIIRS3_EESJ_IIEEEEEvPT_DpOT0_
FN:124,_ZN9__gnu_cxx13new_allocatorISt13_Rb_tree_nodeISt4pairIKSsN4opae7testing13test_platformEEEE7destroyIS8_EEvPT_
FN:124,_ZN9__gnu_cxx13new_allocatorISt13_Rb_tree_nodeISt4pairIKiPFiPN4opae7testing11mock_objectEiP13__va_list_tagEEEE7destroyISD_EEvPT_
FN:124,_ZN9__gnu_cxx13new_allocatorISsE7destroyISsEEvPT_
FN:124,_ZN9__gnu_cxx13new_allocatorISt13_Rb_tree_nodeISt4pairIKiPN4opae7testing11mock_objectEEEE7destroyIS9_EEvPT_
FNDA:18,_ZN9__gnu_cxx13new_allocatorISt13_Rb_tree_nodeISt4pairIKiPFiPN4opae7testing11mock_objectEiP13__va_list_tagEEEEC2Ev
FNDA:18,_ZN9__gnu_cxx13new_allocatorISt13_Rb_tree_nodeISt4pairIKiPN4opae7testing11mock_objectEEEEC2Ev
FNDA:18,_ZN9__gnu_cxx13new_allocatorISt13_Rb_tree_nodeISt4pairIKSsN4opae7testing13test_platformEEEEC2Ev
FNDA:4,_ZN9__gnu_cxx13new_allocatorISsEC2Ev
FNDA:18,_ZN9__gnu_cxx13new_allocatorISt4pairIKSsN4opae7testing13test_platformEEEC2Ev
FNDA:4,_ZN9__gnu_cxx13new_allocatorIN4opae7testing11test_deviceEEC2Ev
FNDA:0,_ZN9__gnu_cxx13new_allocatorIcEC2Ev
FNDA:18,_ZN9__gnu_cxx13new_allocatorISt13_Rb_tree_nodeISt4pairIKSsN4opae7testing13test_platformEEEEC2ERKS9_
FNDA:16,_ZN9__gnu_cxx13new_allocatorIN4opae7testing11test_deviceEEC2ERKS4_
FNDA:0,_ZN9__gnu_cxx13new_allocatorISsEC2ERKS1_
FNDA:18,_ZN9__gnu_cxx13new_allocatorISt4pairIKSsN4opae7testing13test_platformEEEC2ERKS7_
FNDA:0,_ZN9__gnu_cxx13new_allocatorIcEC2ERKS1_
FNDA:0,_ZN9__gnu_cxx13new_allocatorISt13_Rb_tree_nodeISt4pairIKiPFiPN4opae7testing11mock_objectEiP13__va_list_tagEEEED2Ev
FNDA:0,_ZN9__gnu_cxx13new_allocatorISt13_Rb_tree_nodeISt4pairIKiPN4opae7testing11mock_objectEEEED2Ev
FNDA:18,_ZN9__gnu_cxx13new_allocatorISt13_Rb_tree_nodeISt4pairIKSsN4opae7testing13test_platformEEEED2Ev
FNDA:0,_ZN9__gnu_cxx13new_allocatorISsED2Ev
FNDA:36,_ZN9__gnu_cxx13new_allocatorISt4pairIKSsN4opae7testing13test_platformEEED2Ev
FNDA:16,_ZN9__gnu_cxx13new_allocatorIN4opae7testing11test_deviceEED2Ev
FNDA:0,_ZN9__gnu_cxx13new_allocatorIcED2Ev
FNDA:317,_ZN9__gnu_cxx13new_allocatorISt13_Rb_tree_nodeISt4pairIKiPN4opae7testing11mock_objectEEEE8allocateEmPKv
FNDA:235,_ZN9__gnu_cxx13new_allocatorISt13_Rb_tree_nodeISt4pairIKiPFiPN4opae7testing11mock_objectEiP13__va_list_tagEEEE8allocateEmPKv
FNDA:18,_ZN9__gnu_cxx13new_allocatorISt13_Rb_tree_nodeISt4pairIKSsN4opae7testing13test_platformEEEE8allocateEmPKv
FNDA:4,_ZN9__gnu_cxx13new_allocatorISsE8allocateEmPKv
FNDA:262,_ZN9__gnu_cxx13new_allocatorIN4opae7testing11test_deviceEE8allocateEmPKv
FNDA:0,_ZN9__gnu_cxx13new_allocatorISt13_Rb_tree_nodeISt4pairIKiPFiPN4opae7testing11mock_objectEiP13__va_list_tagEEEE10deallocateEPSD_m
FNDA:299,_ZN9__gnu_cxx13new_allocatorISt13_Rb_tree_nodeISt4pairIKiPN4opae7testing11mock_objectEEEE10deallocateEPS9_m
FNDA:0,_ZN9__gnu_cxx13new_allocatorISt13_Rb_tree_nodeISt4pairIKSsN4opae7testing13test_platformEEEE10deallocateEPS8_m
FNDA:4,_ZN9__gnu_cxx13new_allocatorIN4opae7testing11test_deviceEE10deallocateEPS3_m
FNDA:0,_ZN9__gnu_cxx13new_allocatorISsE10deallocateEPSsm
FNDA:317,_ZNK9__gnu_cxx13new_allocatorISt13_Rb_tree_nodeISt4pairIKiPN4opae7testing11mock_objectEEEE8max_sizeEv
FNDA:235,_ZNK9__gnu_cxx13new_allocatorISt13_Rb_tree_nodeISt4pairIKiPFiPN4opae7testing11mock_objectEiP13__va_list_tagEEEE8max_sizeEv
FNDA:18,_ZNK9__gnu_cxx13new_allocatorISt13_Rb_tree_nodeISt4pairIKSsN4opae7testing13test_platformEEEE8max_sizeEv
FNDA:12,_ZNK9__gnu_cxx13new_allocatorISsE8max_sizeEv
FNDA:262,_ZNK9__gnu_cxx13new_allocatorIN4opae7testing11test_deviceEE8max_sizeEv
FNDA:18,_ZN9__gnu_cxx13new_allocatorISt13_Rb_tree_nodeISt4pairIKSsN4opae7testing13test_platformEEEE9constructIS8_IRKS7_EEEvPT_DpOT0_
FNDA:317,_ZN9__gnu_cxx13new_allocatorISt13_Rb_tree_nodeISt4pairIKiPN4opae7testing11mock_objectEEEE9constructIS9_IRKSt21piecewise_construct_tSt5tupleIIRS3_EESF_IIEEEEEvPT_DpOT0_
FNDA:43314,_ZN9__gnu_cxx13new_allocatorISsE9constructISsISsEEEvPT_DpOT0_
FNDA:235,_ZN9__gnu_cxx13new_allocatorISt13_Rb_tree_nodeISt4pairIKiPFiPN4opae7testing11mock_objectEiP13__va_list_tagEEEE9constructISD_IRKSt21piecewise_construct_tSt5tupleIIRS3_EESJ_IIEEEEEvPT_DpOT0_
FNDA:0,_ZN9__gnu_cxx13new_allocatorISt13_Rb_tree_nodeISt4pairIKSsN4opae7testing13test_platformEEEE9constructIS8_IRKSt21piecewise_construct_tSt5tupleIIRS3_EESE_IIEEEEEvPT_DpOT0_
FNDA:0,_ZN9__gnu_cxx13new_allocatorISsE7destroyISsEEvPT_
FNDA:0,_ZN9__gnu_cxx13new_allocatorISt13_Rb_tree_nodeISt4pairIKiPFiPN4opae7testing11mock_objectEiP13__va_list_tagEEEE7destroyISD_EEvPT_
FNDA:299,_ZN9__gnu_cxx13new_allocatorISt13_Rb_tree_nodeISt4pairIKiPN4opae7testing11mock_objectEEEE7destroyIS9_EEvPT_
FNDA:0,_ZN9__gnu_cxx13new_allocatorISt13_Rb_tree_nodeISt4pairIKSsN4opae7testing13test_platformEEEE7destroyIS8_EEvPT_
FNF:43
FNH:29
DA:79,80
DA:81,52
DA:86,70
DA:99,836
DA:101,836
DA:102,0
DA:104,836
DA:109,303
DA:110,303
DA:113,844
DA:114,844
DA:119,43884
DA:120,43884
DA:124,299
LF:14
LH:13
end_of_record
SF:/usr/include/c++/4.8/ext/string_conversions.h
FN:54,_ZN9__gnu_cxx6__stoaImmcIiEEET0_PFT_PKT1_PPS3_DpT2_EPKcS5_PmS9_
FNDA:21550,_ZN9__gnu_cxx6__stoaImmcIiEEET0_PFT_PKT1_PPS3_DpT2_EPKcS5_PmS9_
FNF:1
FNH:1
DA:54,21550
DA:61,21550
DA:62,21550
DA:64,21550
DA:65,0
DA:66,21550
DA:70,0
DA:72,21550
DA:74,21550
DA:75,0
DA:77,21550
LF:11
LH:8
end_of_record
SF:/usr/include/c++/4.8/initializer_list
FN:71,_ZNKSt16initializer_listISt4pairIKSsN4opae7testing13test_platformEEE4sizeEv
FN:71,_ZNKSt16initializer_listIN4opae7testing11test_deviceEE4sizeEv
FN:75,_ZNKSt16initializer_listIN4opae7testing11test_deviceEE5beginEv
FN:75,_ZNKSt16initializer_listISt4pairIKSsN4opae7testing13test_platformEEE5beginEv
FN:79,_ZNKSt16initializer_listISt4pairIKSsN4opae7testing13test_platformEEE3endEv
FN:79,_ZNKSt16initializer_listIN4opae7testing11test_deviceEE3endEv
FNDA:18,_ZNKSt16initializer_listISt4pairIKSsN4opae7testing13test_platformEEE4sizeEv
FNDA:18,_ZNKSt16initializer_listIN4opae7testing11test_deviceEE4sizeEv
FNDA:36,_ZNKSt16initializer_listISt4pairIKSsN4opae7testing13test_platformEEE5beginEv
FNDA:36,_ZNKSt16initializer_listIN4opae7testing11test_deviceEE5beginEv
FNDA:18,_ZNKSt16initializer_listISt4pairIKSsN4opae7testing13test_platformEEE3endEv
FNDA:18,_ZNKSt16initializer_listIN4opae7testing11test_deviceEE3endEv
FNF:6
FNH:6
DA:71,36
DA:75,72
DA:79,36
LF:3
LH:3
end_of_record
SF:/usr/include/c++/4.8/new
FN:109,_ZnwmPv
FN:115,_ZdlPvS_
FNDA:79,_ZnwmPv
FNDA:0,_ZdlPvS_
FNF:2
FNH:1
DA:109,79
DA:110,79
DA:115,0
LF:3
LH:2
end_of_record
SF:/usr/include/c++/4.8/tuple
FN:134,_ZNSt10_Head_baseILm0ERKiLb0EEC2ES1_
FN:134,_ZNSt10_Head_baseILm0ERKSsLb0EEC2ES1_
FN:169,_ZNSt10_Head_baseILm0ERKSsLb0EE7_M_headERS2_
FN:169,_ZNSt10_Head_baseILm0ERKiLb0EE7_M_headERS2_
FN:197,_ZNSt11_Tuple_implILm1EIEEC2Ev
FN:241,_ZNSt11_Tuple_implILm0EIRKiEE7_M_headERS2_
FN:241,_ZNSt11_Tuple_implILm0EIRKSsEE7_M_headERS2_
FN:247,_ZNSt11_Tuple_implILm0EIRKSsEE7_M_tailERS2_
FN:247,_ZNSt11_Tuple_implILm0EIRKiEE7_M_tailERS2_
FN:256,_ZNSt11_Tuple_implILm0EIRKiEEC2ES1_
FN:256,_ZNSt11_Tuple_implILm0EIRKSsEEC2ES1_
FN:269,_ZNSt11_Tuple_implILm0EIRKiEEC2EOS2_
FN:269,_ZNSt11_Tuple_implILm0EIRKSsEEC2EOS2_
FN:399,_ZNSt5tupleIIRKiEEC2ES1_
FN:399,_ZNSt5tupleIIRKSsEEC2ES1_
FN:411,_ZNSt5tupleIIRKiEEC2EOS2_
FN:411,_ZNSt5tupleIIRKSsEEC2EOS2_
FN:744,_ZSt12__get_helperILm0ERKSsIEENSt9__add_refIT0_E4typeERSt11_Tuple_implIXT_EIS3_DpT1_EE
FN:744,_ZSt12__get_helperILm0ERKiIEENSt9__add_refIT0_E4typeERSt11_Tuple_implIXT_EIS3_DpT1_EE
FN:759,_ZSt3getILm0EIRKSsEENSt9__add_refINSt13tuple_elementIXT_ESt5tupleIIDpT0_EEE4typeEE4typeERS7_
FN:759,_ZSt3getILm0EIRKiEENSt9__add_refINSt13tuple_elementIXT_ESt5tupleIIDpT0_EEE4typeEE4typeERS7_
FN:1074,_ZNSt4pairIKiPFiPN4opae7testing11mock_objectEiP13__va_list_tagEEC2IIRS0_EIEEESt21piecewise_construct_tSt5tupleIIDpT_EESD_IIDpT0_EE
FN:1074,_ZNSt4pairIKSsN4opae7testing13test_platformEEC2IIRS0_EIEEESt21piecewise_construct_tSt5tupleIIDpT_EES8_IIDpT0_EE
FN:1074,_ZNSt4pairIKiPN4opae7testing11mock_objectEEC2IIRS0_EIEEESt21piecewise_construct_tSt5tupleIIDpT_EES9_IIDpT0_EE
FN:1086,_ZNSt4pairIKSsN4opae7testing13test_platformEEC2IIRS0_EILm0EEIEIEEERSt5tupleIIDpT_EERS7_IIDpT1_EESt12_Index_tupleIIXspT0_EEESG_IIXspT2_EEE
FN:1086,_ZNSt4pairIKiPFiPN4opae7testing11mock_objectEiP13__va_list_tagEEC2IIRS0_EILm0EEIEIEEERSt5tupleIIDpT_EERSC_IIDpT1_EESt12_Index_tupleIIXspT0_EEESL_IIXspT2_EEE
FN:1086,_ZNSt4pairIKiPN4opae7testing11mock_objectEEC2IIRS0_EILm0EEIEIEEERSt5tupleIIDpT_EERS8_IIDpT1_EESt12_Index_tupleIIXspT0_EEESH_IIXspT2_EEE
FNDA:1104,_ZNSt10_Head_baseILm0ERKiLb0EEC2ES1_
FNDA:0,_ZNSt10_Head_baseILm0ERKSsLb0EEC2ES1_
FNDA:1104,_ZNSt10_Head_baseILm0ERKiLb0EE7_M_headERS2_
FNDA:0,_ZNSt10_Head_baseILm0ERKSsLb0EE7_M_headERS2_
FNDA:552,_ZNSt11_Tuple_implILm1EIEEC2Ev
FNDA:1104,_ZNSt11_Tuple_implILm0EIRKiEE7_M_headERS2_
FNDA:0,_ZNSt11_Tuple_implILm0EIRKSsEE7_M_headERS2_
FNDA:552,_ZNSt11_Tuple_implILm0EIRKiEE7_M_tailERS2_
FNDA:0,_ZNSt11_Tuple_implILm0EIRKSsEE7_M_tailERS2_
FNDA:552,_ZNSt11_Tuple_implILm0EIRKiEEC2ES1_
FNDA:0,_ZNSt11_Tuple_implILm0EIRKSsEEC2ES1_
FNDA:552,_ZNSt11_Tuple_implILm0EIRKiEEC2EOS2_
FNDA:0,_ZNSt11_Tuple_implILm0EIRKSsEEC2EOS2_
FNDA:552,_ZNSt5tupleIIRKiEEC2ES1_
FNDA:0,_ZNSt5tupleIIRKSsEEC2ES1_
FNDA:552,_ZNSt5tupleIIRKiEEC2EOS2_
FNDA:0,_ZNSt5tupleIIRKSsEEC2EOS2_
FNDA:552,_ZSt12__get_helperILm0ERKiIEENSt9__add_refIT0_E4typeERSt11_Tuple_implIXT_EIS3_DpT1_EE
FNDA:0,_ZSt12__get_helperILm0ERKSsIEENSt9__add_refIT0_E4typeERSt11_Tuple_implIXT_EIS3_DpT1_EE
FNDA:552,_ZSt3getILm0EIRKiEENSt9__add_refINSt13tuple_elementIXT_ESt5tupleIIDpT0_EEE4typeEE4typeERS7_
FNDA:0,_ZSt3getILm0EIRKSsEENSt9__add_refINSt13tuple_elementIXT_ESt5tupleIIDpT0_EEE4typeEE4typeERS7_
FNDA:317,_ZNSt4pairIKiPN4opae7testing11mock_objectEEC2IIRS0_EIEEESt21piecewise_construct_tSt5tupleIIDpT_EES9_IIDpT0_EE
FNDA:235,_ZNSt4pairIKiPFiPN4opae7testing11mock_objectEiP13__va_list_tagEEC2IIRS0_EIEEESt21piecewise_construct_tSt5tupleIIDpT_EESD_IIDpT0_EE
FNDA:0,_ZNSt4pairIKSsN4opae7testing13test_platformEEC2IIRS0_EIEEESt21piecewise_construct_tSt5tupleIIDpT_EES8_IIDpT0_EE
FNDA:317,_ZNSt4pairIKiPN4opae7testing11mock_objectEEC2IIRS0_EILm0EEIEIEEERSt5tupleIIDpT_EERS8_IIDpT1_EESt12_Index_tupleIIXspT0_EEESH_IIXspT2_EEE
FNDA:235,_ZNSt4pairIKiPFiPN4opae7testing11mock_objectEiP13__va_list_tagEEC2IIRS0_EILm0EEIEIEEERSt5tupleIIDpT_EERSC_IIDpT1_EESt12_Index_tupleIIXspT0_EEESL_IIXspT2_EEE
FNDA:0,_ZNSt4pairIKSsN4opae7testing13test_platformEEC2IIRS0_EILm0EEIEIEEERSt5tupleIIDpT_EERS7_IIDpT1_EESt12_Index_tupleIIXspT0_EEESG_IIXspT2_EEE
FNF:27
FNH:15
DA:134,1104
DA:135,1104
DA:169,1104
DA:197,552
DA:241,1104
DA:247,552
DA:256,552
DA:257,552
DA:269,552
DA:272,552
DA:273,552
DA:399,552
DA:400,552
DA:411,552
DA:744,552
DA:745,552
DA:759,552
DA:760,552
DA:1074,552
DA:1079,552
DA:1080,552
DA:1086,552
DA:1089,552
DA:1090,552
DA:1091,552
LF:25
LH:25
end_of_record
SF:/usr/include/x86_64-linux-gnu/c++/4.8/bits/gthr-default.h
FN:247,_ZL18__gthread_active_pv
FNDA:127390,_ZL18__gthread_active_pv
FNF:1
FNH:1
DA:247,127390
DA:251,127390
LF:2
LH:2
end_of_record
TN:
SF:/home/workspace/jelonanx/opae-sdk/testing/mock/test_system.h
FN:116,_ZN4opae7testing13test_platformD2Ev
FN:116,_ZN4opae7testing13test_platformC2Ev
FN:116,_ZN4opae7testing13test_platformaSEOS1_
FNDA:3,_ZN4opae7testing13test_platformaSEOS1_
FNDA:11,_ZN4opae7testing13test_platformD2Ev
FNDA:3,_ZN4opae7testing13test_platformC2Ev
FNF:3
FNH:3
DA:116,17
LF:1
LH:1
end_of_record
SF:/home/workspace/jelonanx/opae-sdk/testing/xfpga/test_reconf_c.cpp
FN:37,_ZN8reconf_cD2Ev
FN:37,_ZN8reconf_cD0Ev
FN:40,_ZN8reconf_cC2Ev
FN:42,_ZN8reconf_c5SetUpEv
FN:56,_ZN8reconf_c8TearDownEv
FN:84,_ZN27reconf_c_gbs_reconf_01_Test8TestBodyEv
FN:84,_ZN27reconf_c_gbs_reconf_01_TestD0Ev
FN:84,_ZN27reconf_c_gbs_reconf_01_TestC2Ev
FN:84,_ZN27reconf_c_gbs_reconf_01_Test13AddToRegistryEv
FN:84,_Z41__static_initialization_and_destruction_0ii
FN:84,_ZN27reconf_c_gbs_reconf_01_TestD2Ev
FN:112,_ZN27reconf_c_gbs_reconf_02_Test13AddToRegistryEv
FN:112,_ZN27reconf_c_gbs_reconf_02_Test8TestBodyEv
FN:112,_ZN27reconf_c_gbs_reconf_02_TestD0Ev
FN:112,_ZN27reconf_c_gbs_reconf_02_TestD2Ev
FN:112,_ZN27reconf_c_gbs_reconf_02_TestC2Ev
FN:142,_ZN30reconf_c_gbs_reconf_slots_Test8TestBodyEv
FN:142,_ZN30reconf_c_gbs_reconf_slots_TestC2Ev
FN:142,_ZN30reconf_c_gbs_reconf_slots_TestD2Ev
FN:142,_ZN30reconf_c_gbs_reconf_slots_TestD0Ev
FN:142,_ZN30reconf_c_gbs_reconf_slots_Test13AddToRegistryEv
FN:154,_Z38gtest_reconfreconf_c_EvalGenerateName_RKN7testing13TestParamInfoISsEE
FN:154,_Z35gtest_reconfreconf_c_EvalGenerator_v
FN:154,_GLOBAL__sub_I__ZN27reconf_c_gbs_reconf_01_Test24gtest_registering_dummy_E
FNDA:0,_ZN8reconf_cD0Ev
FNDA:3,_ZN8reconf_cD2Ev
FNDA:3,_ZN8reconf_cC2Ev
FNDA:3,_ZN8reconf_c5SetUpEv
FNDA:3,_ZN8reconf_c8TearDownEv
FNDA:1,_ZN27reconf_c_gbs_reconf_01_TestD0Ev
FNDA:1,_ZN27reconf_c_gbs_reconf_01_TestD2Ev
FNDA:1,_ZN27reconf_c_gbs_reconf_01_Test8TestBodyEv
FNDA:1,_ZN27reconf_c_gbs_reconf_01_Test13AddToRegistryEv
FNDA:1,_ZN27reconf_c_gbs_reconf_01_TestC2Ev
FNDA:1,_ZN27reconf_c_gbs_reconf_02_TestD0Ev
FNDA:1,_ZN27reconf_c_gbs_reconf_02_TestD2Ev
FNDA:1,_ZN27reconf_c_gbs_reconf_02_Test8TestBodyEv
FNDA:1,_ZN27reconf_c_gbs_reconf_02_Test13AddToRegistryEv
FNDA:1,_ZN27reconf_c_gbs_reconf_02_TestC2Ev
FNDA:1,_ZN30reconf_c_gbs_reconf_slots_TestD0Ev
FNDA:1,_ZN30reconf_c_gbs_reconf_slots_TestD2Ev
FNDA:1,_ZN30reconf_c_gbs_reconf_slots_Test8TestBodyEv
FNDA:1,_ZN30reconf_c_gbs_reconf_slots_Test13AddToRegistryEv
FNDA:1,_ZN30reconf_c_gbs_reconf_slots_TestC2Ev
FNDA:1,_GLOBAL__sub_I__ZN27reconf_c_gbs_reconf_01_Test24gtest_registering_dummy_E
FNDA:1,_Z41__static_initialization_and_destruction_0ii
FNDA:3,_Z38gtest_reconfreconf_c_EvalGenerateName_RKN7testing13TestParamInfoISsEE
FNDA:3,_Z35gtest_reconfreconf_c_EvalGenerator_v
FNF:24
FNH:23
DA:37,3
DA:40,3
DA:42,3
DA:43,3
DA:44,3
DA:45,3
DA:46,3
DA:47,3
DA:49,3
DA:50,3
DA:51,3
DA:53,3
DA:56,3
DA:57,3
DA:58,3
DA:59,3
DA:60,3
DA:61,3
DA:63,3
DA:64,3
DA:84,6
DA:85,1
DA:86,1
DA:91,2
DA:93,1
DA:95,1
DA:97,1
DA:99,1
DA:101,1
DA:112,6
DA:113,1
DA:116,1
DA:119,2
DA:122,1
DA:123,1
DA:126,1
DA:127,1
DA:129,1
DA:130,1
DA:132,1
DA:133,1
DA:142,6
DA:146,1
DA:147,1
DA:148,1
DA:149,1
DA:150,1
DA:151,1
DA:154,9
LF:49
LH:49
end_of_record
SF:/usr/include/c++/4.8/array
FN:52,_ZNSt14__array_traitsIPvLm2EE6_S_refERA2_KS0_m
FN:162,_ZNKSt5arrayIPvLm2EE4sizeEv
FN:172,_ZNSt5arrayIPvLm2EEixEm
FN:217,_ZNSt5arrayIPvLm2EE4dataEv
FNDA:5,_ZNSt14__array_traitsIPvLm2EE6_S_refERA2_KS0_m
FNDA:3,_ZNKSt5arrayIPvLm2EE4sizeEv
FNDA:2,_ZNSt5arrayIPvLm2EEixEm
FNDA:3,_ZNSt5arrayIPvLm2EE4dataEv
FNF:4
FNH:4
DA:52,5
DA:53,5
DA:162,3
DA:172,2
DA:173,2
DA:217,3
DA:218,3
LF:7
LH:7
end_of_record
SF:/usr/include/c++/4.8/bits/alloc_traits.h
FN:253,_ZNSt16allocator_traitsISaIN7testing8internal25ParameterizedTestCaseInfoI8reconf_cE17InstantiationInfoEEE12_S_constructIS5_IS5_EEENSt9enable_ifIXsrNS7_18__construct_helperIT_IDpT0_EEE5valueEvE4typeERS6_PSB_DpOSC_
FN:253,_ZNSt16allocator_traitsISaISt13_Rb_tree_nodeISsEEE12_S_constructIS1_IRKSsEEENSt9enable_ifIXsrNS3_18__construct_helperIT_IDpT0_EEE5valueEvE4typeERS2_PS9_DpOSA_
FN:253,_ZNSt16allocator_traitsISaIN7testing8internal10linked_ptrINS1_25ParameterizedTestCaseInfoI8reconf_cE8TestInfoEEEEE12_S_constructIS7_IS7_EEENSt9enable_ifIXsrNS9_18__construct_helperIT_IDpT0_EEE5valueEvE4typeERS8_PSD_DpOSE_
FN:253,_ZNSt16allocator_traitsISaIPN7testing8internal29ParameterizedTestCaseInfoBaseEEE12_S_constructIS3_IS3_EEENSt9enable_ifIXsrNS5_18__construct_helperIT_IDpT0_EEE5valueEvE4typeERS4_PS9_DpOSA_
FN:280,_ZNSt16allocator_traitsISaIN7testing8internal25ParameterizedTestCaseInfoI8reconf_cE17InstantiationInfoEEE10_S_destroyIS5_EENSt9enable_ifIXsrNS7_16__destroy_helperIT_EE5valueEvE4typeERS6_PSB_
FN:280,_ZNSt16allocator_traitsISaIPN7testing8internal29ParameterizedTestCaseInfoBaseEEE10_S_destroyIS3_EENSt9enable_ifIXsrNS5_16__destroy_helperIT_EE5valueEvE4typeERS4_PS9_
FN:280,_ZNSt16allocator_traitsISaIN7testing8internal10linked_ptrINS1_25ParameterizedTestCaseInfoI8reconf_cE8TestInfoEEEEE10_S_destroyIS7_EENSt9enable_ifIXsrNS9_16__destroy_helperIT_EE5valueEvE4typeERS8_PSD_
FN:305,_ZNSt16allocator_traitsISaIPN7testing8internal29ParameterizedTestCaseInfoBaseEEE11_S_max_sizeIKS4_EENSt9enable_ifIXsrNS5_16__maxsize_helperIT_EE5valueEmE4typeERSA_
FN:305,_ZNSt16allocator_traitsISaIN7testing8internal10linked_ptrINS1_25ParameterizedTestCaseInfoI8reconf_cE8TestInfoEEEEE11_S_max_sizeIKS8_EENSt9enable_ifIXsrNS9_16__maxsize_helperIT_EE5valueEmE4typeERSE_
FN:305,_ZNSt16allocator_traitsISaIN7testing8internal25ParameterizedTestCaseInfoI8reconf_cE17InstantiationInfoEEE11_S_max_sizeIKS6_EENSt9enable_ifIXsrNS7_16__maxsize_helperIT_EE5valueEmE4typeERSC_
FN:391,_ZNSt16allocator_traitsISaIN7testing8internal25ParameterizedTestCaseInfoI8reconf_cE17InstantiationInfoEEE9constructIS5_IS5_EEEDTcl12_S_constructfp_fp0_spcl7forwardIT0_Efp1_EEERS6_PT_DpOS9_
FN:391,_ZNSt16allocator_traitsISaIPN7testing8internal29ParameterizedTestCaseInfoBaseEEE9constructIS3_IS3_EEEDTcl12_S_constructfp_fp0_spcl7forwardIT0_Efp1_EEERS4_PT_DpOS7_
FN:391,_ZNSt16allocator_traitsISaIN7testing8internal10linked_ptrINS1_25ParameterizedTestCaseInfoI8reconf_cE8TestInfoEEEEE9constructIS7_IS7_EEEDTcl12_S_constructfp_fp0_spcl7forwardIT0_Efp1_EEERS8_PT_DpOSB_
FN:391,_ZNSt16allocator_traitsISaISt13_Rb_tree_nodeISsEEE9constructIS1_IRKSsEEEDTcl12_S_constructfp_fp0_spcl7forwardIT0_Efp1_EEERS2_PT_DpOS7_
FN:404,_ZNSt16allocator_traitsISaIN7testing8internal25ParameterizedTestCaseInfoI8reconf_cE17InstantiationInfoEEE7destroyIS5_EEvRS6_PT_
FN:404,_ZNSt16allocator_traitsISaIN7testing8internal10linked_ptrINS1_25ParameterizedTestCaseInfoI8reconf_cE8TestInfoEEEEE7destroyIS7_EEvRS8_PT_
FN:404,_ZNSt16allocator_traitsISaIPN7testing8internal29ParameterizedTestCaseInfoBaseEEE7destroyIS3_EEvRS4_PT_
FN:415,_ZNSt16allocator_traitsISaIN7testing8internal10linked_ptrINS1_25ParameterizedTestCaseInfoI8reconf_cE8TestInfoEEEEE8max_sizeERKS8_
FN:415,_ZNSt16allocator_traitsISaIN7testing8internal25ParameterizedTestCaseInfoI8reconf_cE17InstantiationInfoEEE8max_sizeERKS6_
FN:415,_ZNSt16allocator_traitsISaIPN7testing8internal29ParameterizedTestCaseInfoBaseEEE8max_sizeERKS4_
FN:478,_ZSt18__do_alloc_on_moveISaIN4opae7testing11test_deviceEEEvRT_S5_St17integral_constantIbLb1EE
FN:486,_ZSt15__alloc_on_moveISaIN4opae7testing11test_deviceEEEvRT_S5_
FNDA:3,_ZNSt16allocator_traitsISaISt13_Rb_tree_nodeISsEEE12_S_constructIS1_IRKSsEEENSt9enable_ifIXsrNS3_18__construct_helperIT_IDpT0_EEE5valueEvE4typeERS2_PS9_DpOSA_
FNDA:1,_ZNSt16allocator_traitsISaIN7testing8internal25ParameterizedTestCaseInfoI8reconf_cE17InstantiationInfoEEE12_S_constructIS5_IS5_EEENSt9enable_ifIXsrNS7_18__construct_helperIT_IDpT0_EEE5valueEvE4typeERS6_PSB_DpOSC_
FNDA:3,_ZNSt16allocator_traitsISaIN7testing8internal10linked_ptrINS1_25ParameterizedTestCaseInfoI8reconf_cE8TestInfoEEEEE12_S_constructIS7_IS7_EEENSt9enable_ifIXsrNS9_18__construct_helperIT_IDpT0_EEE5valueEvE4typeERS8_PSD_DpOSE_
FNDA:1,_ZNSt16allocator_traitsISaIPN7testing8internal29ParameterizedTestCaseInfoBaseEEE12_S_constructIS3_IS3_EEENSt9enable_ifIXsrNS5_18__construct_helperIT_IDpT0_EEE5valueEvE4typeERS4_PS9_DpOSA_
FNDA:0,_ZNSt16allocator_traitsISaIN7testing8internal25ParameterizedTestCaseInfoI8reconf_cE17InstantiationInfoEEE10_S_destroyIS5_EENSt9enable_ifIXsrNS7_16__destroy_helperIT_EE5valueEvE4typeERS6_PSB_
FNDA:0,_ZNSt16allocator_traitsISaIN7testing8internal10linked_ptrINS1_25ParameterizedTestCaseInfoI8reconf_cE8TestInfoEEEEE10_S_destroyIS7_EENSt9enable_ifIXsrNS9_16__destroy_helperIT_EE5valueEvE4typeERS8_PSD_
FNDA:0,_ZNSt16allocator_traitsISaIPN7testing8internal29ParameterizedTestCaseInfoBaseEEE10_S_destroyIS3_EENSt9enable_ifIXsrNS5_16__destroy_helperIT_EE5valueEvE4typeERS4_PS9_
FNDA:2,_ZNSt16allocator_traitsISaIN7testing8internal25ParameterizedTestCaseInfoI8reconf_cE17InstantiationInfoEEE11_S_max_sizeIKS6_EENSt9enable_ifIXsrNS7_16__maxsize_helperIT_EE5valueEmE4typeERSC_
FNDA:6,_ZNSt16allocator_traitsISaIN7testing8internal10linked_ptrINS1_25ParameterizedTestCaseInfoI8reconf_cE8TestInfoEEEEE11_S_max_sizeIKS8_EENSt9enable_ifIXsrNS9_16__maxsize_helperIT_EE5valueEmE4typeERSE_
FNDA:2,_ZNSt16allocator_traitsISaIPN7testing8internal29ParameterizedTestCaseInfoBaseEEE11_S_max_sizeIKS4_EENSt9enable_ifIXsrNS5_16__maxsize_helperIT_EE5valueEmE4typeERSA_
FNDA:3,_ZNSt16allocator_traitsISaISt13_Rb_tree_nodeISsEEE9constructIS1_IRKSsEEEDTcl12_S_constructfp_fp0_spcl7forwardIT0_Efp1_EEERS2_PT_DpOS7_
FNDA:1,_ZNSt16allocator_traitsISaIN7testing8internal25ParameterizedTestCaseInfoI8reconf_cE17InstantiationInfoEEE9constructIS5_IS5_EEEDTcl12_S_constructfp_fp0_spcl7forwardIT0_Efp1_EEERS6_PT_DpOS9_
FNDA:3,_ZNSt16allocator_traitsISaIN7testing8internal10linked_ptrINS1_25ParameterizedTestCaseInfoI8reconf_cE8TestInfoEEEEE9constructIS7_IS7_EEEDTcl12_S_constructfp_fp0_spcl7forwardIT0_Efp1_EEERS8_PT_DpOSB_
FNDA:1,_ZNSt16allocator_traitsISaIPN7testing8internal29ParameterizedTestCaseInfoBaseEEE9constructIS3_IS3_EEEDTcl12_S_constructfp_fp0_spcl7forwardIT0_Efp1_EEERS4_PT_DpOS7_
FNDA:0,_ZNSt16allocator_traitsISaIN7testing8internal25ParameterizedTestCaseInfoI8reconf_cE17InstantiationInfoEEE7destroyIS5_EEvRS6_PT_
FNDA:0,_ZNSt16allocator_traitsISaIN7testing8internal10linked_ptrINS1_25ParameterizedTestCaseInfoI8reconf_cE8TestInfoEEEEE7destroyIS7_EEvRS8_PT_
FNDA:0,_ZNSt16allocator_traitsISaIPN7testing8internal29ParameterizedTestCaseInfoBaseEEE7destroyIS3_EEvRS4_PT_
FNDA:2,_ZNSt16allocator_traitsISaIN7testing8internal25ParameterizedTestCaseInfoI8reconf_cE17InstantiationInfoEEE8max_sizeERKS6_
FNDA:6,_ZNSt16allocator_traitsISaIN7testing8internal10linked_ptrINS1_25ParameterizedTestCaseInfoI8reconf_cE8TestInfoEEEEE8max_sizeERKS8_
FNDA:2,_ZNSt16allocator_traitsISaIPN7testing8internal29ParameterizedTestCaseInfoBaseEEE8max_sizeERKS4_
FNDA:3,_ZSt18__do_alloc_on_moveISaIN4opae7testing11test_deviceEEEvRT_S5_St17integral_constantIbLb1EE
FNDA:3,_ZSt15__alloc_on_moveISaIN4opae7testing11test_deviceEEEvRT_S5_
FNF:22
FNH:16
DA:253,8
DA:254,8
DA:280,0
DA:281,0
DA:305,10
DA:306,10
DA:391,8
DA:393,8
DA:404,0
DA:405,0
DA:415,10
DA:416,10
DA:478,3
DA:479,3
DA:486,3
DA:490,3
DA:491,3
LF:17
LH:13
end_of_record
SF:/usr/include/c++/4.8/bits/allocator.h
FN:113,_ZNSaIN7testing8internal10linked_ptrINS0_25ParameterizedTestCaseInfoI8reconf_cE8TestInfoEEEEC2Ev
FN:113,_ZNSaISt13_Rb_tree_nodeISsEEC2Ev
FN:113,_ZNSaIN4opae7testing11test_deviceEEC2Ev
FN:113,_ZNSaISsEC2Ev
FN:113,_ZNSaIN7testing8internal25ParameterizedTestCaseInfoI8reconf_cE17InstantiationInfoEEC2Ev
FN:115,_ZNSaIN4opae7testing11test_deviceEEC2ERKS2_
FN:115,_ZNSaISsEC2ERKS_
FN:121,_ZNSaIN7testing8internal10linked_ptrINS0_25ParameterizedTestCaseInfoI8reconf_cE8TestInfoEEEED2Ev
FN:121,_ZNSaIN7testing8internal25ParameterizedTestCaseInfoI8reconf_cE17InstantiationInfoEED2Ev
FN:121,_ZNSaISsED2Ev
FN:121,_ZNSaIN4opae7testing11test_deviceEED2Ev
FN:121,_ZNSaISt13_Rb_tree_nodeISsEED2Ev
FN:133,_ZSteqIcEbRKSaIT_ES3_
FNDA:3,_ZNSaISt13_Rb_tree_nodeISsEEC2Ev
FNDA:1,_ZNSaIN7testing8internal25ParameterizedTestCaseInfoI8reconf_cE17InstantiationInfoEEC2Ev
FNDA:1,_ZNSaIN7testing8internal10linked_ptrINS0_25ParameterizedTestCaseInfoI8reconf_cE8TestInfoEEEEC2Ev
FNDA:20047,_ZNSaISsEC2Ev
FNDA:4,_ZNSaIN4opae7testing11test_deviceEEC2Ev
FNDA:40082,_ZNSaISsEC2ERKS_
FNDA:22,_ZNSaIN4opae7testing11test_deviceEEC2ERKS2_
FNDA:3,_ZNSaISt13_Rb_tree_nodeISsEED2Ev
FNDA:1,_ZNSaIN7testing8internal25ParameterizedTestCaseInfoI8reconf_cE17InstantiationInfoEED2Ev
FNDA:1,_ZNSaIN7testing8internal10linked_ptrINS0_25ParameterizedTestCaseInfoI8reconf_cE8TestInfoEEEED2Ev
FNDA:60128,_ZNSaISsED2Ev
FNDA:25,_ZNSaIN4opae7testing11test_deviceEED2Ev
FNDA:0,_ZSteqIcEbRKSaIT_ES3_
FNF:13
FNH:12
DA:113,20056
DA:115,40104
DA:116,40104
DA:121,60158
DA:133,0
DA:134,0
LF:6
LH:4
end_of_record
SF:/usr/include/c++/4.8/bits/basic_ios.h
FN:46,_ZSt13__check_facetISt5ctypeIcEERKT_PS3_
FNDA:0,_ZSt13__check_facetISt5ctypeIcEERKT_PS3_
FNF:1
FNH:0
DA:46,0
DA:48,0
DA:49,0
DA:50,0
LF:4
LH:0
end_of_record
SF:/usr/include/c++/4.8/bits/basic_string.h
FN:272,_ZNSs12_Alloc_hiderC2ERKS_
FN:272,_ZNSs12_Alloc_hiderD2Ev
FN:1721,_ZNSs16_S_construct_auxIPcEES0_T_S1_RKSaIcESt12__false_type
FN:1743,_ZNSs12_S_constructIPcEES0_T_S1_RKSaIcE
FN:2402,_ZStplIcSt11char_traitsIcESaIcEESbIT_T0_T1_ERKS6_PKS3_
FN:2519,_ZSteqIcSt11char_traitsIcESaIcEEbRKSbIT_T0_T1_EPKS3_
FN:2569,_ZStltIcSt11char_traitsIcESaIcEEbRKSbIT_T0_T1_ES8_
FNDA:0,_ZNSs12_Alloc_hiderC2ERKS_
FNDA:0,_ZNSs12_Alloc_hiderD2Ev
FNDA:0,_ZNSs16_S_construct_auxIPcEES0_T_S1_RKSaIcESt12__false_type
FNDA:0,_ZNSs12_S_constructIPcEES0_T_S1_RKSaIcE
FNDA:20061,_ZStplIcSt11char_traitsIcESaIcEESbIT_T0_T1_ERKS6_PKS3_
FNDA:8,_ZSteqIcSt11char_traitsIcESaIcEEbRKSbIT_T0_T1_EPKS3_
FNDA:12,_ZStltIcSt11char_traitsIcESaIcEEbRKSbIT_T0_T1_ES8_
FNF:7
FNH:3
DA:272,0
DA:1721,0
DA:1725,0
DA:1743,0
DA:1746,0
DA:2402,20061
DA:2405,20061
DA:2406,20061
DA:2407,20061
DA:2519,8
DA:2521,8
DA:2569,12
DA:2571,12
LF:13
LH:8
end_of_record
SF:/usr/include/c++/4.8/bits/basic_string.tcc
FN:123,_ZNSs12_S_constructIPcEES0_T_S1_RKSaIcESt20forward_iterator_tag
FN:227,_ZNSsC2IPcEET_S1_RKSaIcE
FN:692,_ZStplIcSt11char_traitsIcESaIcEESbIT_T0_T1_EPKS3_RKS6_
FNDA:0,_ZNSs12_S_constructIPcEES0_T_S1_RKSaIcESt20forward_iterator_tag
FNDA:0,_ZNSsC2IPcEET_S1_RKSaIcE
FNDA:3,_ZStplIcSt11char_traitsIcESaIcEESbIT_T0_T1_EPKS3_RKS6_
FNF:3
FNH:1
DA:123,0
DA:128,0
DA:129,0
DA:132,0
DA:133,0
DA:136,0
DA:138,0
DA:140,0
DA:141,=====
DA:143,=====
DA:144,=====
DA:146,0
DA:147,0
DA:227,0
DA:229,0
DA:230,0
DA:692,3
DA:698,3
DA:699,3
DA:700,3
DA:701,3
DA:702,3
DA:703,3
LF:23
LH:7
end_of_record
SF:/usr/include/c++/4.8/bits/char_traits.h
FN:242,_ZNSt11char_traitsIcE6assignERcRKc
FN:254,_ZNSt11char_traitsIcE7compareEPKcS2_m
FN:258,_ZNSt11char_traitsIcE6lengthEPKc
FN:270,_ZNSt11char_traitsIcE4copyEPcPKcm
FNDA:0,_ZNSt11char_traitsIcE6assignERcRKc
FNDA:0,_ZNSt11char_traitsIcE7compareEPKcS2_m
FNDA:3,_ZNSt11char_traitsIcE6lengthEPKc
FNDA:0,_ZNSt11char_traitsIcE4copyEPcPKcm
FNF:4
FNH:1
DA:242,0
DA:243,0
DA:254,0
DA:255,0
DA:258,3
DA:259,3
DA:270,0
DA:271,0
LF:8
LH:2
end_of_record
SF:/usr/include/c++/4.8/bits/ios_base.h
FN:123,_ZStorSt13_Ios_OpenmodeS_
FN:163,_ZStorSt12_Ios_IostateS_
FNDA:54,_ZStorSt13_Ios_OpenmodeS_
FNDA:0,_ZStorSt12_Ios_IostateS_
FNF:2
FNH:1
DA:123,54
DA:124,54
DA:163,0
DA:164,0
LF:4
LH:2
end_of_record
SF:/usr/include/c++/4.8/bits/locale_facets.h
FN:865,_ZNKSt5ctypeIcE5widenEc
FNDA:0,_ZNKSt5ctypeIcE5widenEc
FNF:1
FNH:0
DA:865,0
DA:867,0
DA:868,0
DA:869,0
DA:870,0
LF:5
LH:0
end_of_record
SF:/usr/include/c++/4.8/bits/move.h
FN:47,_ZSt11__addressofIPvEPT_RS1_
FN:47,_ZSt11__addressofISsEPT_RS0_
FN:47,_ZSt11__addressofIN7testing8internal10linked_ptrINS1_25ParameterizedTestCaseInfoI8reconf_cE8TestInfoEEEEPT_RS8_
FN:47,_ZSt11__addressofIN7testing8internal25ParameterizedTestCaseInfoI8reconf_cE17InstantiationInfoEEPT_RS6_
FN:76,_ZSt7forwardIRbEOT_RNSt16remove_referenceIS1_E4typeE
FN:76,_ZSt7forwardIRN7testing8internal10linked_ptrINS1_25ParameterizedTestCaseInfoI8reconf_cE8TestInfoEEEEOT_RNSt16remove_referenceIS9_E4typeE
FN:76,_ZSt7forwardIN7testing8internal10linked_ptrINS1_25ParameterizedTestCaseInfoI8reconf_cE8TestInfoEEEEOT_RNSt16remove_referenceIS8_E4typeE
FN:76,_ZSt7forwardIRSt17_Rb_tree_iteratorISsEEOT_RNSt16remove_referenceIS3_E4typeE
FN:76,_ZSt7forwardIbEOT_RNSt16remove_referenceIS0_E4typeE
FN:76,_ZSt7forwardIRPSt13_Rb_tree_nodeISsEEOT_RNSt16remove_referenceIS4_E4typeE
FN:76,_ZSt7forwardISt17_Rb_tree_iteratorISsEEOT_RNSt16remove_referenceIS2_E4typeE
FN:76,_ZSt7forwardIRKSsEOT_RNSt16remove_referenceIS2_E4typeE
FN:76,_ZSt7forwardIPN7testing8internal29ParameterizedTestCaseInfoBaseEEOT_RNSt16remove_referenceIS4_E4typeE
FN:76,_ZSt7forwardIN7testing8internal25ParameterizedTestCaseInfoI8reconf_cE17InstantiationInfoEEOT_RNSt16remove_referenceIS6_E4typeE
FN:76,_ZSt7forwardIRPSt18_Rb_tree_node_baseEOT_RNSt16remove_referenceIS3_E4typeE
FN:101,_ZSt4moveIRSaIN4opae7testing11test_deviceEEEONSt16remove_referenceIT_E4typeEOS6_
FN:101,_ZSt4moveIRN7testing8internal10linked_ptrINS1_25ParameterizedTestCaseInfoI8reconf_cE8TestInfoEEEEONSt16remove_referenceIT_E4typeEOSA_
FN:101,_ZSt4moveIRPN4opae7testing11test_deviceEEONSt16remove_referenceIT_E4typeEOS6_
FN:101,_ZSt4moveIRSt6vectorIN4opae7testing11test_deviceESaIS3_EEEONSt16remove_referenceIT_E4typeEOS8_
FN:101,_ZSt4moveIRN7testing8internal25ParameterizedTestCaseInfoI8reconf_cE17InstantiationInfoEEONSt16remove_referenceIT_E4typeEOS8_
FN:101,_ZSt4moveIRPN7testing8internal29ParameterizedTestCaseInfoBaseEEONSt16remove_referenceIT_E4typeEOS6_
FN:166,_ZSt4swapIPN4opae7testing11test_deviceEEvRT_S5_
FNDA:1,_ZSt11__addressofIN7testing8internal25ParameterizedTestCaseInfoI8reconf_cE17InstantiationInfoEEPT_RS6_
FNDA:9,_ZSt11__addressofIN7testing8internal10linked_ptrINS1_25ParameterizedTestCaseInfoI8reconf_cE8TestInfoEEEEPT_RS8_
FNDA:160330,_ZSt11__addressofISsEPT_RS0_
FNDA:3,_ZSt11__addressofIPvEPT_RS1_
FNDA:6,_ZSt7forwardIRPSt13_Rb_tree_nodeISsEEOT_RNSt16remove_referenceIS4_E4typeE
FNDA:3,_ZSt7forwardISt17_Rb_tree_iteratorISsEEOT_RNSt16remove_referenceIS2_E4typeE
FNDA:3,_ZSt7forwardIRbEOT_RNSt16remove_referenceIS1_E4typeE
FNDA:3,_ZSt7forwardIRSt17_Rb_tree_iteratorISsEEOT_RNSt16remove_referenceIS3_E4typeE
FNDA:40102,_ZSt7forwardIRKSsEOT_RNSt16remove_referenceIS2_E4typeE
FNDA:3,_ZSt7forwardIRN7testing8internal10linked_ptrINS1_25ParameterizedTestCaseInfoI8reconf_cE8TestInfoEEEEOT_RNSt16remove_referenceIS9_E4typeE
FNDA:5,_ZSt7forwardIN7testing8internal25ParameterizedTestCaseInfoI8reconf_cE17InstantiationInfoEEOT_RNSt16remove_referenceIS6_E4typeE
FNDA:15,_ZSt7forwardIN7testing8internal10linked_ptrINS1_25ParameterizedTestCaseInfoI8reconf_cE8TestInfoEEEEOT_RNSt16remove_referenceIS8_E4typeE
FNDA:5,_ZSt7forwardIPN7testing8internal29ParameterizedTestCaseInfoBaseEEOT_RNSt16remove_referenceIS4_E4typeE
FNDA:25,_ZSt7forwardIRPSt18_Rb_tree_node_baseEOT_RNSt16remove_referenceIS3_E4typeE
FNDA:3,_ZSt7forwardIbEOT_RNSt16remove_referenceIS0_E4typeE
FNDA:5,_ZSt4moveIRSaIN4opae7testing11test_deviceEEEONSt16remove_referenceIT_E4typeEOS6_
FNDA:63,_ZSt4moveIRPN4opae7testing11test_deviceEEONSt16remove_referenceIT_E4typeEOS6_
FNDA:1,_ZSt4moveIRN7testing8internal25ParameterizedTestCaseInfoI8reconf_cE17InstantiationInfoEEONSt16remove_referenceIT_E4typeEOS8_
FNDA:3,_ZSt4moveIRN7testing8internal10linked_ptrINS1_25ParameterizedTestCaseInfoI8reconf_cE8TestInfoEEEEONSt16remove_referenceIT_E4typeEOSA_
FNDA:1,_ZSt4moveIRPN7testing8internal29ParameterizedTestCaseInfoBaseEEONSt16remove_referenceIT_E4typeEOS6_
FNDA:4,_ZSt4moveIRSt6vectorIN4opae7testing11test_deviceESaIS3_EEEONSt16remove_referenceIT_E4typeEOS8_
FNDA:21,_ZSt4swapIPN4opae7testing11test_deviceEEvRT_S5_
FNF:22
FNH:22
DA:47,160343
DA:50,160343
DA:76,40173
DA:77,40173
DA:101,77
DA:102,77
DA:166,21
DA:175,21
DA:176,21
DA:177,21
DA:178,21
LF:11
LH:11
end_of_record
SF:/usr/include/c++/4.8/bits/stl_algobase.h
FN:193,_ZSt3minImERKT_S2_S2_
FN:216,_ZSt3maxImERKT_S2_S2_
FN:277,_ZSt12__niter_baseIPPN7testing8internal29ParameterizedTestCaseInfoBaseEENSt11_Niter_baseIT_E13iterator_typeES6_
FN:288,_ZSt12__miter_baseISt13move_iteratorIPPN7testing8internal29ParameterizedTestCaseInfoBaseEEENSt11_Miter_baseIT_E13iterator_typeES8_
FN:368,_ZNSt11__copy_moveILb1ELb1ESt26random_access_iterator_tagE8__copy_mIPN7testing8internal29ParameterizedTestCaseInfoBaseEEEPT_PKS7_SA_S8_
FN:379,_ZSt13__copy_move_aILb1EPPN7testing8internal29ParameterizedTestCaseInfoBaseES4_ET1_T0_S6_S5_
FN:424,_ZSt14__copy_move_a2ILb1EPPN7testing8internal29ParameterizedTestCaseInfoBaseES4_ET1_T0_S6_S5_
FN:450,_ZSt4copyISt13move_iteratorIPPN7testing8internal29ParameterizedTestCaseInfoBaseEES5_ET0_T_S8_S7_
FNDA:0,_ZSt3minImERKT_S2_S2_
FNDA:40093,_ZSt3maxImERKT_S2_S2_
FNDA:3,_ZSt12__niter_baseIPPN7testing8internal29ParameterizedTestCaseInfoBaseEENSt11_Niter_baseIT_E13iterator_typeES6_
FNDA:2,_ZSt12__miter_baseISt13move_iteratorIPPN7testing8internal29ParameterizedTestCaseInfoBaseEEENSt11_Miter_baseIT_E13iterator_typeES8_
FNDA:1,_ZNSt11__copy_moveILb1ELb1ESt26random_access_iterator_tagE8__copy_mIPN7testing8internal29ParameterizedTestCaseInfoBaseEEEPT_PKS7_SA_S8_
FNDA:1,_ZSt13__copy_move_aILb1EPPN7testing8internal29ParameterizedTestCaseInfoBaseES4_ET1_T0_S6_S5_
FNDA:1,_ZSt14__copy_move_a2ILb1EPPN7testing8internal29ParameterizedTestCaseInfoBaseES4_ET1_T0_S6_S5_
FNDA:1,_ZSt4copyISt13move_iteratorIPPN7testing8internal29ParameterizedTestCaseInfoBaseEES5_ET0_T_S8_S7_
FNF:8
FNH:7
DA:193,0
DA:198,0
DA:199,0
DA:200,0
DA:216,40093
DA:221,40093
DA:222,20047
DA:223,20046
DA:277,3
DA:278,3
DA:288,2
DA:289,2
DA:368,1
DA:370,1
DA:371,1
DA:372,0
DA:373,1
DA:379,1
DA:387,1
DA:390,1
DA:424,1
DA:428,1
DA:450,1
DA:460,1
LF:24
LH:19
end_of_record
SF:/usr/include/c++/4.8/bits/stl_construct.h
FN:74,_ZSt10_ConstructISsIRKSsEEvPT_DpOT0_
FN:74,_ZSt10_ConstructIN7testing8internal10linked_ptrINS1_25ParameterizedTestCaseInfoI8reconf_cE8TestInfoEEEIRS7_EEvPT_DpOT0_
FN:74,_ZSt10_ConstructIN7testing8internal25ParameterizedTestCaseInfoI8reconf_cE17InstantiationInfoEIS5_EEvPT_DpOT0_
FN:92,_ZSt8_DestroyIN7testing8internal10linked_ptrINS1_25ParameterizedTestCaseInfoI8reconf_cE8TestInfoEEEEvPT_
FN:92,_ZSt8_DestroyISsEvPT_
FN:92,_ZSt8_DestroyIN7testing8internal25ParameterizedTestCaseInfoI8reconf_cE17InstantiationInfoEEvPT_
FN:100,_ZNSt12_Destroy_auxILb0EE9__destroyIPSsEEvT_S3_
FN:100,_ZNSt12_Destroy_auxILb0EE9__destroyIPN7testing8internal25ParameterizedTestCaseInfoI8reconf_cE17InstantiationInfoEEEvT_S9_
FN:100,_ZNSt12_Destroy_auxILb0EE9__destroyIPN7testing8internal10linked_ptrINS3_25ParameterizedTestCaseInfoI8reconf_cE8TestInfoEEEEEvT_SB_
FN:112,_ZNSt12_Destroy_auxILb1EE9__destroyIPPN7testing8internal29ParameterizedTestCaseInfoBaseEEEvT_S7_
FN:112,_ZNSt12_Destroy_auxILb1EE9__destroyIPN4opae7testing11test_deviceEEEvT_S6_
FN:122,_ZSt8_DestroyIPPN7testing8internal29ParameterizedTestCaseInfoBaseEEvT_S5_
FN:122,_ZSt8_DestroyIPSsEvT_S1_
FN:122,_ZSt8_DestroyIPN7testing8internal10linked_ptrINS1_25ParameterizedTestCaseInfoI8reconf_cE8TestInfoEEEEvT_S9_
FN:122,_ZSt8_DestroyIPN7testing8internal25ParameterizedTestCaseInfoI8reconf_cE17InstantiationInfoEEvT_S7_
FN:122,_ZSt8_DestroyIPN4opae7testing11test_deviceEEvT_S4_
FN:148,_ZSt8_DestroyIPSsSsEvT_S1_RSaIT0_E
FN:148,_ZSt8_DestroyIPN4opae7testing11test_deviceES2_EvT_S4_RSaIT0_E
FN:148,_ZSt8_DestroyIPPN7testing8internal29ParameterizedTestCaseInfoBaseES3_EvT_S5_RSaIT0_E
FN:148,_ZSt8_DestroyIPN7testing8internal25ParameterizedTestCaseInfoI8reconf_cE17InstantiationInfoES5_EvT_S7_RSaIT0_E
FN:148,_ZSt8_DestroyIPN7testing8internal10linked_ptrINS1_25ParameterizedTestCaseInfoI8reconf_cE8TestInfoEEES7_EvT_S9_RSaIT0_E
FNDA:40081,_ZSt10_ConstructISsIRKSsEEvPT_DpOT0_
FNDA:0,_ZSt10_ConstructIN7testing8internal25ParameterizedTestCaseInfoI8reconf_cE17InstantiationInfoEIS5_EEvPT_DpOT0_
FNDA:3,_ZSt10_ConstructIN7testing8internal10linked_ptrINS1_25ParameterizedTestCaseInfoI8reconf_cE8TestInfoEEEIRS7_EEvPT_DpOT0_
FNDA:1,_ZSt8_DestroyIN7testing8internal25ParameterizedTestCaseInfoI8reconf_cE17InstantiationInfoEEvPT_
FNDA:6,_ZSt8_DestroyIN7testing8internal10linked_ptrINS1_25ParameterizedTestCaseInfoI8reconf_cE8TestInfoEEEEvPT_
FNDA:100204,_ZSt8_DestroyISsEvPT_
FNDA:2,_ZNSt12_Destroy_auxILb0EE9__destroyIPN7testing8internal25ParameterizedTestCaseInfoI8reconf_cE17InstantiationInfoEEEvT_S9_
FNDA:4,_ZNSt12_Destroy_auxILb0EE9__destroyIPN7testing8internal10linked_ptrINS3_25ParameterizedTestCaseInfoI8reconf_cE8TestInfoEEEEEvT_SB_
FNDA:80164,_ZNSt12_Destroy_auxILb0EE9__destroyIPSsEEvT_S3_
FNDA:14,_ZNSt12_Destroy_auxILb1EE9__destroyIPN4opae7testing11test_deviceEEEvT_S6_
FNDA:2,_ZNSt12_Destroy_auxILb1EE9__destroyIPPN7testing8internal29ParameterizedTestCaseInfoBaseEEEvT_S7_
FNDA:2,_ZSt8_DestroyIPN7testing8internal25ParameterizedTestCaseInfoI8reconf_cE17InstantiationInfoEEvT_S7_
FNDA:4,_ZSt8_DestroyIPN7testing8internal10linked_ptrINS1_25ParameterizedTestCaseInfoI8reconf_cE8TestInfoEEEEvT_S9_
FNDA:80164,_ZSt8_DestroyIPSsEvT_S1_
FNDA:14,_ZSt8_DestroyIPN4opae7testing11test_deviceEEvT_S4_
FNDA:2,_ZSt8_DestroyIPPN7testing8internal29ParameterizedTestCaseInfoBaseEEvT_S5_
FNDA:2,_ZSt8_DestroyIPN7testing8internal25ParameterizedTestCaseInfoI8reconf_cE17InstantiationInfoES5_EvT_S7_RSaIT0_E
FNDA:4,_ZSt8_DestroyIPN7testing8internal10linked_ptrINS1_25ParameterizedTestCaseInfoI8reconf_cE8TestInfoEEES7_EvT_S9_RSaIT0_E
FNDA:80164,_ZSt8_DestroyIPSsSsEvT_S1_RSaIT0_E
FNDA:14,_ZSt8_DestroyIPN4opae7testing11test_deviceES2_EvT_S4_RSaIT0_E
FNDA:2,_ZSt8_DestroyIPPN7testing8internal29ParameterizedTestCaseInfoBaseES3_EvT_S5_RSaIT0_E
FNF:21
FNH:20
DA:74,40084
DA:75,40084
DA:92,100211
DA:93,100211
DA:100,80170
DA:102,180381
DA:103,100211
DA:104,80170
DA:112,16
DA:122,80186
DA:126,80186
DA:128,80186
DA:148,80186
DA:151,80186
DA:152,80186
LF:15
LH:15
end_of_record
SF:/usr/include/c++/4.8/bits/stl_function.h
FN:234,_ZNKSt4lessISsEclERKSsS2_
FN:481,_ZNKSt9_IdentityISsEclERKSs
FNDA:12,_ZNKSt4lessISsEclERKSsS2_
FNDA:3,_ZNKSt9_IdentityISsEclERKSs
FNF:2
FNH:2
DA:234,12
DA:235,12
DA:481,3
DA:482,3
LF:4
LH:4
end_of_record
SF:/usr/include/c++/4.8/bits/stl_iterator.h
FN:726,_ZN9__gnu_cxx17__normal_iteratorIPPN7testing8internal29ParameterizedTestCaseInfoBaseESt6vectorIS4_SaIS4_EEEC2ERKS5_
FN:726,_ZN9__gnu_cxx17__normal_iteratorIPN7testing8internal25ParameterizedTestCaseInfoI8reconf_cE17InstantiationInfoESt6vectorIS6_SaIS6_EEEC2ERKS7_
FN:726,_ZN9__gnu_cxx17__normal_iteratorIPKSsSt6vectorISsSaISsEEEC2ERKS2_
FN:726,_ZN9__gnu_cxx17__normal_iteratorIPN7testing8internal10linked_ptrINS2_25ParameterizedTestCaseInfoI8reconf_cE8TestInfoEEESt6vectorIS8_SaIS8_EEEC2ERKS9_
FN:738,_ZNK9__gnu_cxx17__normal_iteratorIPN7testing8internal10linked_ptrINS2_25ParameterizedTestCaseInfoI8reconf_cE8TestInfoEEESt6vectorIS8_SaIS8_EEEdeEv
FN:738,_ZNK9__gnu_cxx17__normal_iteratorIPKSsSt6vectorISsSaISsEEEdeEv
FN:738,_ZNK9__gnu_cxx17__normal_iteratorIPPN7testing8internal29ParameterizedTestCaseInfoBaseESt6vectorIS4_SaIS4_EEEdeEv
FN:742,_ZNK9__gnu_cxx17__normal_iteratorIPN7testing8internal25ParameterizedTestCaseInfoI8reconf_cE17InstantiationInfoESt6vectorIS6_SaIS6_EEEptEv
FN:746,_ZN9__gnu_cxx17__normal_iteratorIPKSsSt6vectorISsSaISsEEEppEv
FN:746,_ZN9__gnu_cxx17__normal_iteratorIPN7testing8internal10linked_ptrINS2_25ParameterizedTestCaseInfoI8reconf_cE8TestInfoEEESt6vectorIS8_SaIS8_EEEppEv
FN:746,_ZN9__gnu_cxx17__normal_iteratorIPPN7testing8internal29ParameterizedTestCaseInfoBaseESt6vectorIS4_SaIS4_EEEppEv
FN:746,_ZN9__gnu_cxx17__normal_iteratorIPN7testing8internal25ParameterizedTestCaseInfoI8reconf_cE17InstantiationInfoESt6vectorIS6_SaIS6_EEEppEv
FN:790,_ZNK9__gnu_cxx17__normal_iteratorIPKSsSt6vectorISsSaISsEEE4baseEv
FN:790,_ZNK9__gnu_cxx17__normal_iteratorIPN7testing8internal25ParameterizedTestCaseInfoI8reconf_cE17InstantiationInfoESt6vectorIS6_SaIS6_EEE4baseEv
FN:790,_ZNK9__gnu_cxx17__normal_iteratorIPPN7testing8internal29ParameterizedTestCaseInfoBaseESt6vectorIS4_SaIS4_EEE4baseEv
FN:790,_ZNK9__gnu_cxx17__normal_iteratorIPN7testing8internal10linked_ptrINS2_25ParameterizedTestCaseInfoI8reconf_cE8TestInfoEEESt6vectorIS8_SaIS8_EEE4baseEv
FN:811,_ZN9__gnu_cxxeqIPKSsSt6vectorISsSaISsEEEEbRKNS_17__normal_iteratorIT_T0_EESB_
FN:823,_ZN9__gnu_cxxneIPPN7testing8internal29ParameterizedTestCaseInfoBaseESt6vectorIS4_SaIS4_EEEEbRKNS_17__normal_iteratorIT_T0_EESE_
FN:823,_ZN9__gnu_cxxneIPKSsSt6vectorISsSaISsEEEEbRKNS_17__normal_iteratorIT_T0_EESB_
FN:823,_ZN9__gnu_cxxneIPN7testing8internal10linked_ptrINS2_25ParameterizedTestCaseInfoI8reconf_cE8TestInfoEEESt6vectorIS8_SaIS8_EEEEbRKNS_17__normal_iteratorIT_T0_EESI_
FN:823,_ZN9__gnu_cxxneIPN7testing8internal25ParameterizedTestCaseInfoI8reconf_cE17InstantiationInfoESt6vectorIS6_SaIS6_EEEEbRKNS_17__normal_iteratorIT_T0_EESG_
FN:896,_ZN9__gnu_cxxmiIPKSsSt6vectorISsSaISsEEEENS_17__normal_iteratorIT_T0_E15difference_typeERKS9_SC_
FN:950,_ZNSt13move_iteratorIPPN7testing8internal29ParameterizedTestCaseInfoBaseEEC2ES4_
FN:950,_ZNSt13move_iteratorIPN7testing8internal25ParameterizedTestCaseInfoI8reconf_cE17InstantiationInfoEEC2ES6_
FN:958,_ZNKSt13move_iteratorIPPN7testing8internal29ParameterizedTestCaseInfoBaseEE4baseEv
FN:958,_ZNKSt13move_iteratorIPN7testing8internal25ParameterizedTestCaseInfoI8reconf_cE17InstantiationInfoEE4baseEv
FN:962,_ZNKSt13move_iteratorIPN7testing8internal25ParameterizedTestCaseInfoI8reconf_cE17InstantiationInfoEEdeEv
FN:970,_ZNSt13move_iteratorIPN7testing8internal25ParameterizedTestCaseInfoI8reconf_cE17InstantiationInfoEEppEv
FN:1037,_ZSteqIPN7testing8internal25ParameterizedTestCaseInfoI8reconf_cE17InstantiationInfoEEbRKSt13move_iteratorIT_ESB_
FN:1049,_ZStneIPN7testing8internal25ParameterizedTestCaseInfoI8reconf_cE17InstantiationInfoEEbRKSt13move_iteratorIT_ESB_
FN:1132,_ZSt32__make_move_if_noexcept_iteratorIPPN7testing8internal29ParameterizedTestCaseInfoBaseESt13move_iteratorIS4_EET0_T_
FN:1132,_ZSt32__make_move_if_noexcept_iteratorIPN7testing8internal25ParameterizedTestCaseInfoI8reconf_cE17InstantiationInfoESt13move_iteratorIS6_EET0_T_
FN:1132,_ZSt32__make_move_if_noexcept_iteratorIPN7testing8internal10linked_ptrINS1_25ParameterizedTestCaseInfoI8reconf_cE8TestInfoEEES8_ET0_T_
FNDA:9,_ZN9__gnu_cxx17__normal_iteratorIPN7testing8internal25ParameterizedTestCaseInfoI8reconf_cE17InstantiationInfoESt6vectorIS6_SaIS6_EEEC2ERKS7_
FNDA:5,_ZN9__gnu_cxx17__normal_iteratorIPN7testing8internal10linked_ptrINS2_25ParameterizedTestCaseInfoI8reconf_cE8TestInfoEEESt6vectorIS8_SaIS8_EEEC2ERKS9_
FNDA:40091,_ZN9__gnu_cxx17__normal_iteratorIPKSsSt6vectorISsSaISsEEEC2ERKS2_
FNDA:14,_ZN9__gnu_cxx17__normal_iteratorIPPN7testing8internal29ParameterizedTestCaseInfoBaseESt6vectorIS4_SaIS4_EEEC2ERKS5_
FNDA:3,_ZNK9__gnu_cxx17__normal_iteratorIPN7testing8internal10linked_ptrINS2_25ParameterizedTestCaseInfoI8reconf_cE8TestInfoEEESt6vectorIS8_SaIS8_EEEdeEv
FNDA:40084,_ZNK9__gnu_cxx17__normal_iteratorIPKSsSt6vectorISsSaISsEEEdeEv
FNDA:11,_ZNK9__gnu_cxx17__normal_iteratorIPPN7testing8internal29ParameterizedTestCaseInfoBaseESt6vectorIS4_SaIS4_EEEdeEv
FNDA:15,_ZNK9__gnu_cxx17__normal_iteratorIPN7testing8internal25ParameterizedTestCaseInfoI8reconf_cE17InstantiationInfoESt6vectorIS6_SaIS6_EEEptEv
FNDA:3,_ZN9__gnu_cxx17__normal_iteratorIPN7testing8internal25ParameterizedTestCaseInfoI8reconf_cE17InstantiationInfoESt6vectorIS6_SaIS6_EEEppEv
FNDA:3,_ZN9__gnu_cxx17__normal_iteratorIPN7testing8internal10linked_ptrINS2_25ParameterizedTestCaseInfoI8reconf_cE8TestInfoEEESt6vectorIS8_SaIS8_EEEppEv
FNDA:40084,_ZN9__gnu_cxx17__normal_iteratorIPKSsSt6vectorISsSaISsEEEppEv
FNDA:2,_ZN9__gnu_cxx17__normal_iteratorIPPN7testing8internal29ParameterizedTestCaseInfoBaseESt6vectorIS4_SaIS4_EEEppEv
FNDA:12,_ZNK9__gnu_cxx17__normal_iteratorIPN7testing8internal25ParameterizedTestCaseInfoI8reconf_cE17InstantiationInfoESt6vectorIS6_SaIS6_EEE4baseEv
FNDA:8,_ZNK9__gnu_cxx17__normal_iteratorIPN7testing8internal10linked_ptrINS2_25ParameterizedTestCaseInfoI8reconf_cE8TestInfoEEESt6vectorIS8_SaIS8_EEE4baseEv
FNDA:120262,_ZNK9__gnu_cxx17__normal_iteratorIPKSsSt6vectorISsSaISsEEE4baseEv
FNDA:16,_ZNK9__gnu_cxx17__normal_iteratorIPPN7testing8internal29ParameterizedTestCaseInfoBaseESt6vectorIS4_SaIS4_EEE4baseEv
FNDA:6,_ZN9__gnu_cxxeqIPKSsSt6vectorISsSaISsEEEEbRKNS_17__normal_iteratorIT_T0_EESB_
FNDA:6,_ZN9__gnu_cxxneIPN7testing8internal25ParameterizedTestCaseInfoI8reconf_cE17InstantiationInfoESt6vectorIS6_SaIS6_EEEEbRKNS_17__normal_iteratorIT_T0_EESG_
FNDA:4,_ZN9__gnu_cxxneIPN7testing8internal10linked_ptrINS2_25ParameterizedTestCaseInfoI8reconf_cE8TestInfoEEESt6vectorIS8_SaIS8_EEEEbRKNS_17__normal_iteratorIT_T0_EESI_
FNDA:60122,_ZN9__gnu_cxxneIPKSsSt6vectorISsSaISsEEEEbRKNS_17__normal_iteratorIT_T0_EESB_
FNDA:8,_ZN9__gnu_cxxneIPPN7testing8internal29ParameterizedTestCaseInfoBaseESt6vectorIS4_SaIS4_EEEEbRKNS_17__normal_iteratorIT_T0_EESE_
FNDA:3,_ZN9__gnu_cxxmiIPKSsSt6vectorISsSaISsEEEENS_17__normal_iteratorIT_T0_E15difference_typeERKS9_SC_
FNDA:2,_ZNSt13move_iteratorIPN7testing8internal25ParameterizedTestCaseInfoI8reconf_cE17InstantiationInfoEEC2ES6_
FNDA:2,_ZNSt13move_iteratorIPPN7testing8internal29ParameterizedTestCaseInfoBaseEEC2ES4_
FNDA:2,_ZNKSt13move_iteratorIPPN7testing8internal29ParameterizedTestCaseInfoBaseEE4baseEv
FNDA:2,_ZNKSt13move_iteratorIPN7testing8internal25ParameterizedTestCaseInfoI8reconf_cE17InstantiationInfoEE4baseEv
FNDA:0,_ZNKSt13move_iteratorIPN7testing8internal25ParameterizedTestCaseInfoI8reconf_cE17InstantiationInfoEEdeEv
FNDA:0,_ZNSt13move_iteratorIPN7testing8internal25ParameterizedTestCaseInfoI8reconf_cE17InstantiationInfoEEppEv
FNDA:1,_ZSteqIPN7testing8internal25ParameterizedTestCaseInfoI8reconf_cE17InstantiationInfoEEbRKSt13move_iteratorIT_ESB_
FNDA:1,_ZStneIPN7testing8internal25ParameterizedTestCaseInfoI8reconf_cE17InstantiationInfoEEbRKSt13move_iteratorIT_ESB_
FNDA:2,_ZSt32__make_move_if_noexcept_iteratorIPN7testing8internal25ParameterizedTestCaseInfoI8reconf_cE17InstantiationInfoESt13move_iteratorIS6_EET0_T_
FNDA:6,_ZSt32__make_move_if_noexcept_iteratorIPN7testing8internal10linked_ptrINS1_25ParameterizedTestCaseInfoI8reconf_cE8TestInfoEEES8_ET0_T_
FNDA:2,_ZSt32__make_move_if_noexcept_iteratorIPPN7testing8internal29ParameterizedTestCaseInfoBaseESt13move_iteratorIS4_EET0_T_
FNF:33
FNH:31
DA:726,40119
DA:738,40098
DA:739,40098
DA:742,15
DA:743,15
DA:746,40092
DA:748,40092
DA:749,40092
DA:790,120298
DA:791,120298
DA:811,6
DA:813,6
DA:823,60140
DA:825,60140
DA:896,3
DA:898,3
DA:950,4
DA:951,4
DA:958,4
DA:959,4
DA:962,0
DA:963,0
DA:970,0
DA:972,0
DA:973,0
DA:1037,1
DA:1039,1
DA:1049,1
DA:1051,1
DA:1132,10
DA:1133,10
LF:31
LH:26
end_of_record
SF:/usr/include/c++/4.8/bits/stl_iterator_base_funcs.h
FN:90,_ZSt10__distanceIPcENSt15iterator_traitsIT_E15difference_typeES2_S2_St26random_access_iterator_tag
FN:90,_ZSt10__distanceIN9__gnu_cxx17__normal_iteratorIPKSsSt6vectorISsSaISsEEEEENSt15iterator_traitsIT_E15difference_typeES9_S9_St26random_access_iterator_tag
FN:114,_ZSt8distanceIPcENSt15iterator_traitsIT_E15difference_typeES2_S2_
FN:114,_ZSt8distanceIN9__gnu_cxx17__normal_iteratorIPKSsSt6vectorISsSaISsEEEEENSt15iterator_traitsIT_E15difference_typeES9_S9_
FNDA:3,_ZSt10__distanceIN9__gnu_cxx17__normal_iteratorIPKSsSt6vectorISsSaISsEEEEENSt15iterator_traitsIT_E15difference_typeES9_S9_St26random_access_iterator_tag
FNDA:0,_ZSt10__distanceIPcENSt15iterator_traitsIT_E15difference_typeES2_S2_St26random_access_iterator_tag
FNDA:3,_ZSt8distanceIN9__gnu_cxx17__normal_iteratorIPKSsSt6vectorISsSaISsEEEEENSt15iterator_traitsIT_E15difference_typeES9_S9_
FNDA:0,_ZSt8distanceIPcENSt15iterator_traitsIT_E15difference_typeES2_S2_
FNF:4
FNH:2
DA:90,3
DA:96,3
DA:114,3
DA:118,3
LF:4
LH:4
end_of_record
SF:/usr/include/c++/4.8/bits/stl_iterator_base_types.h
FN:201,_ZSt19__iterator_categoryIPcENSt15iterator_traitsIT_E17iterator_categoryERKS2_
FN:201,_ZSt19__iterator_categoryIN9__gnu_cxx17__normal_iteratorIPKSsSt6vectorISsSaISsEEEEENSt15iterator_traitsIT_E17iterator_categoryERKS9_
FN:212,_ZNSt10_Iter_baseIPPN7testing8internal29ParameterizedTestCaseInfoBaseELb0EE7_S_baseES4_
FN:220,_ZNSt10_Iter_baseISt13move_iteratorIPPN7testing8internal29ParameterizedTestCaseInfoBaseEELb1EE7_S_baseES6_
FNDA:3,_ZSt19__iterator_categoryIN9__gnu_cxx17__normal_iteratorIPKSsSt6vectorISsSaISsEEEEENSt15iterator_traitsIT_E17iterator_categoryERKS9_
FNDA:0,_ZSt19__iterator_categoryIPcENSt15iterator_traitsIT_E17iterator_categoryERKS2_
FNDA:3,_ZNSt10_Iter_baseIPPN7testing8internal29ParameterizedTestCaseInfoBaseELb0EE7_S_baseES4_
FNDA:2,_ZNSt10_Iter_baseISt13move_iteratorIPPN7testing8internal29ParameterizedTestCaseInfoBaseEELb1EE7_S_baseES6_
FNF:4
FNH:3
DA:201,3
DA:202,3
DA:212,3
DA:213,3
DA:220,2
DA:221,2
LF:6
LH:6
end_of_record
SF:/usr/include/c++/4.8/bits/stl_pair.h
FN:133,_ZNSt4pairIPSt18_Rb_tree_node_baseS1_EC2IRS1_vEEOT_RKS1_
FN:144,_ZNSt4pairISt17_Rb_tree_iteratorISsEbEC2IS1_bvEEOT_OT0_
FN:144,_ZNSt4pairIPSt18_Rb_tree_node_baseS1_EC2IRPSt13_Rb_tree_nodeISsES7_vEEOT_OT0_
FN:144,_ZNSt4pairISt23_Rb_tree_const_iteratorISsEbEC2IRSt17_Rb_tree_iteratorISsERbvEEOT_OT0_
FNDA:0,_ZNSt4pairIPSt18_Rb_tree_node_baseS1_EC2IRS1_vEEOT_RKS1_
FNDA:3,_ZNSt4pairIPSt18_Rb_tree_node_baseS1_EC2IRPSt13_Rb_tree_nodeISsES7_vEEOT_OT0_
FNDA:3,_ZNSt4pairISt17_Rb_tree_iteratorISsEbEC2IS1_bvEEOT_OT0_
FNDA:3,_ZNSt4pairISt23_Rb_tree_const_iteratorISsEbEC2IRSt17_Rb_tree_iteratorISsERbvEEOT_OT0_
FNF:4
FNH:3
DA:133,0
DA:134,0
DA:144,9
DA:145,9
LF:4
LH:2
end_of_record
SF:/usr/include/c++/4.8/bits/stl_set.h
FN:90,_ZNSt3setISsSt4lessISsESaISsEED2Ev
FN:139,_ZNSt3setISsSt4lessISsESaISsEEC2Ev
FN:460,_ZNSt3setISsSt4lessISsESaISsEE6insertERKSs
FN:644,_ZNKSt3setISsSt4lessISsESaISsEE5countERKSs
FNDA:3,_ZNSt3setISsSt4lessISsESaISsEED2Ev
FNDA:3,_ZNSt3setISsSt4lessISsESaISsEEC2Ev
FNDA:3,_ZNSt3setISsSt4lessISsESaISsEE6insertERKSs
FNDA:3,_ZNKSt3setISsSt4lessISsESaISsEE5countERKSs
FNF:4
FNH:4
DA:90,3
DA:139,3
DA:140,3
DA:460,3
DA:463,3
DA:464,3
DA:644,3
DA:645,3
LF:8
LH:8
end_of_record
SF:/usr/include/c++/4.8/bits/stl_tree.h
FN:131,_ZNSt13_Rb_tree_nodeISsED2Ev
FN:138,_ZNSt13_Rb_tree_nodeISsEC2IIRKSsEEEDpOT_
FN:174,_ZNSt17_Rb_tree_iteratorISsEC2EPSt13_Rb_tree_nodeISsE
FN:202,_ZNSt17_Rb_tree_iteratorISsEmmEv
FN:217,_ZNKSt17_Rb_tree_iteratorISsEeqERKS0_
FN:247,_ZNSt23_Rb_tree_const_iteratorISsEC2EPKSt13_Rb_tree_nodeISsE
FN:250,_ZNSt23_Rb_tree_const_iteratorISsEC2ERKSt17_Rb_tree_iteratorISsE
FN:298,_ZNKSt23_Rb_tree_const_iteratorISsEeqERKS0_
FN:356,_ZNSt8_Rb_treeISsSsSt9_IdentityISsESt4lessISsESaISsEE21_M_get_Node_allocatorEv
FN:369,_ZNSt8_Rb_treeISsSsSt9_IdentityISsESt4lessISsESaISsEE11_M_get_nodeEv
FN:373,_ZNSt8_Rb_treeISsSsSt9_IdentityISsESt4lessISsESaISsEE11_M_put_nodeEPSt13_Rb_tree_nodeISsE
FN:401,_ZNSt8_Rb_treeISsSsSt9_IdentityISsESt4lessISsESaISsEE14_M_create_nodeIIRKSsEEEPSt13_Rb_tree_nodeISsEDpOT_
FN:419,_ZNSt8_Rb_treeISsSsSt9_IdentityISsESt4lessISsESaISsEE15_M_destroy_nodeEPSt13_Rb_tree_nodeISsE
FN:439,_ZNSt8_Rb_treeISsSsSt9_IdentityISsESt4lessISsESaISsEE13_Rb_tree_implIS3_Lb1EED2Ev
FN:445,_ZNSt8_Rb_treeISsSsSt9_IdentityISsESt4lessISsESaISsEE13_Rb_tree_implIS3_Lb1EEC2Ev
FN:464,_ZNSt8_Rb_treeISsSsSt9_IdentityISsESt4lessISsESaISsEE13_Rb_tree_implIS3_Lb1EE13_M_initializeEv
FN:501,_ZNSt8_Rb_treeISsSsSt9_IdentityISsESt4lessISsESaISsEE8_M_beginEv
FN:505,_ZNKSt8_Rb_treeISsSsSt9_IdentityISsESt4lessISsESaISsEE8_M_beginEv
FN:512,_ZNSt8_Rb_treeISsSsSt9_IdentityISsESt4lessISsESaISsEE6_M_endEv
FN:516,_ZNKSt8_Rb_treeISsSsSt9_IdentityISsESt4lessISsESaISsEE6_M_endEv
FN:520,_ZNSt8_Rb_treeISsSsSt9_IdentityISsESt4lessISsESaISsEE8_S_valueEPKSt13_Rb_tree_nodeISsE
FN:524,_ZNSt8_Rb_treeISsSsSt9_IdentityISsESt4lessISsESaISsEE6_S_keyEPKSt13_Rb_tree_nodeISsE
FN:528,_ZNSt8_Rb_treeISsSsSt9_IdentityISsESt4lessISsESaISsEE7_S_leftEPSt18_Rb_tree_node_base
FN:532,_ZNSt8_Rb_treeISsSsSt9_IdentityISsESt4lessISsESaISsEE7_S_leftEPKSt18_Rb_tree_node_base
FN:536,_ZNSt8_Rb_treeISsSsSt9_IdentityISsESt4lessISsESaISsEE8_S_rightEPSt18_Rb_tree_node_base
FN:540,_ZNSt8_Rb_treeISsSsSt9_IdentityISsESt4lessISsESaISsEE8_S_rightEPKSt18_Rb_tree_node_base
FN:544,_ZNSt8_Rb_treeISsSsSt9_IdentityISsESt4lessISsESaISsEE8_S_valueEPKSt18_Rb_tree_node_base
FN:548,_ZNSt8_Rb_treeISsSsSt9_IdentityISsESt4lessISsESaISsEE6_S_keyEPKSt18_Rb_tree_node_base
FN:648,_ZNSt8_Rb_treeISsSsSt9_IdentityISsESt4lessISsESaISsEEC2Ev
FN:670,_ZNSt8_Rb_treeISsSsSt9_IdentityISsESt4lessISsESaISsEED2Ev
FN:682,_ZNSt8_Rb_treeISsSsSt9_IdentityISsESt4lessISsESaISsEE5beginEv
FN:700,_ZNKSt8_Rb_treeISsSsSt9_IdentityISsESt4lessISsESaISsEE3endEv
FN:1012,_ZNSt8_Rb_treeISsSsSt9_IdentityISsESt4lessISsESaISsEE10_M_insert_IRKSsEESt17_Rb_tree_iteratorISsEPSt18_Rb_tree_node_baseSC_OT_
FN:1119,_ZNSt8_Rb_treeISsSsSt9_IdentityISsESt4lessISsESaISsEE8_M_eraseEPSt13_Rb_tree_nodeISsE
FN:1152,_ZNKSt8_Rb_treeISsSsSt9_IdentityISsESt4lessISsESaISsEE14_M_lower_boundEPKSt13_Rb_tree_nodeISsES9_RKSs
FN:1314,_ZNSt8_Rb_treeISsSsSt9_IdentityISsESt4lessISsESaISsEE24_M_get_insert_unique_posERKSs
FN:1368,_ZNSt8_Rb_treeISsSsSt9_IdentityISsESt4lessISsESaISsEE16_M_insert_uniqueIRKSsEESt4pairISt17_Rb_tree_iteratorISsEbEOT_
FN:1802,_ZNKSt8_Rb_treeISsSsSt9_IdentityISsESt4lessISsESaISsEE4findERKSs
FNDA:3,_ZNSt13_Rb_tree_nodeISsED2Ev
FNDA:3,_ZNSt13_Rb_tree_nodeISsEC2IIRKSsEEEDpOT_
FNDA:9,_ZNSt17_Rb_tree_iteratorISsEC2EPSt13_Rb_tree_nodeISsE
FNDA:0,_ZNSt17_Rb_tree_iteratorISsEmmEv
FNDA:3,_ZNKSt17_Rb_tree_iteratorISsEeqERKS0_
FNDA:12,_ZNSt23_Rb_tree_const_iteratorISsEC2EPKSt13_Rb_tree_nodeISsE
FNDA:3,_ZNSt23_Rb_tree_const_iteratorISsEC2ERKSt17_Rb_tree_iteratorISsE
FNDA:6,_ZNKSt23_Rb_tree_const_iteratorISsEeqERKS0_
FNDA:6,_ZNSt8_Rb_treeISsSsSt9_IdentityISsESt4lessISsESaISsEE21_M_get_Node_allocatorEv
FNDA:3,_ZNSt8_Rb_treeISsSsSt9_IdentityISsESt4lessISsESaISsEE11_M_get_nodeEv
FNDA:3,_ZNSt8_Rb_treeISsSsSt9_IdentityISsESt4lessISsESaISsEE11_M_put_nodeEPSt13_Rb_tree_nodeISsE
FNDA:3,_ZNSt8_Rb_treeISsSsSt9_IdentityISsESt4lessISsESaISsEE14_M_create_nodeIIRKSsEEEPSt13_Rb_tree_nodeISsEDpOT_
FNDA:3,_ZNSt8_Rb_treeISsSsSt9_IdentityISsESt4lessISsESaISsEE15_M_destroy_nodeEPSt13_Rb_tree_nodeISsE
FNDA:3,_ZNSt8_Rb_treeISsSsSt9_IdentityISsESt4lessISsESaISsEE13_Rb_tree_implIS3_Lb1EED2Ev
FNDA:3,_ZNSt8_Rb_treeISsSsSt9_IdentityISsESt4lessISsESaISsEE13_Rb_tree_implIS3_Lb1EEC2Ev
FNDA:3,_ZNSt8_Rb_treeISsSsSt9_IdentityISsESt4lessISsESaISsEE13_Rb_tree_implIS3_Lb1EE13_M_initializeEv
FNDA:6,_ZNSt8_Rb_treeISsSsSt9_IdentityISsESt4lessISsESaISsEE8_M_beginEv
FNDA:3,_ZNKSt8_Rb_treeISsSsSt9_IdentityISsESt4lessISsESaISsEE8_M_beginEv
FNDA:6,_ZNSt8_Rb_treeISsSsSt9_IdentityISsESt4lessISsESaISsEE6_M_endEv
FNDA:3,_ZNKSt8_Rb_treeISsSsSt9_IdentityISsESt4lessISsESaISsEE6_M_endEv
FNDA:0,_ZNSt8_Rb_treeISsSsSt9_IdentityISsESt4lessISsESaISsEE8_S_valueEPKSt13_Rb_tree_nodeISsE
FNDA:0,_ZNSt8_Rb_treeISsSsSt9_IdentityISsESt4lessISsESaISsEE6_S_keyEPKSt13_Rb_tree_nodeISsE
FNDA:3,_ZNSt8_Rb_treeISsSsSt9_IdentityISsESt4lessISsESaISsEE7_S_leftEPSt18_Rb_tree_node_base
FNDA:0,_ZNSt8_Rb_treeISsSsSt9_IdentityISsESt4lessISsESaISsEE7_S_leftEPKSt18_Rb_tree_node_base
FNDA:3,_ZNSt8_Rb_treeISsSsSt9_IdentityISsESt4lessISsESaISsEE8_S_rightEPSt18_Rb_tree_node_base
FNDA:0,_ZNSt8_Rb_treeISsSsSt9_IdentityISsESt4lessISsESaISsEE8_S_rightEPKSt18_Rb_tree_node_base
FNDA:0,_ZNSt8_Rb_treeISsSsSt9_IdentityISsESt4lessISsESaISsEE8_S_valueEPKSt18_Rb_tree_node_base
FNDA:0,_ZNSt8_Rb_treeISsSsSt9_IdentityISsESt4lessISsESaISsEE6_S_keyEPKSt18_Rb_tree_node_base
FNDA:3,_ZNSt8_Rb_treeISsSsSt9_IdentityISsESt4lessISsESaISsEEC2Ev
FNDA:3,_ZNSt8_Rb_treeISsSsSt9_IdentityISsESt4lessISsESaISsEED2Ev
FNDA:3,_ZNSt8_Rb_treeISsSsSt9_IdentityISsESt4lessISsESaISsEE5beginEv
FNDA:9,_ZNKSt8_Rb_treeISsSsSt9_IdentityISsESt4lessISsESaISsEE3endEv
FNDA:3,_ZNSt8_Rb_treeISsSsSt9_IdentityISsESt4lessISsESaISsEE10_M_insert_IRKSsEESt17_Rb_tree_iteratorISsEPSt18_Rb_tree_node_baseSC_OT_
FNDA:6,_ZNSt8_Rb_treeISsSsSt9_IdentityISsESt4lessISsESaISsEE8_M_eraseEPSt13_Rb_tree_nodeISsE
FNDA:3,_ZNKSt8_Rb_treeISsSsSt9_IdentityISsESt4lessISsESaISsEE14_M_lower_boundEPKSt13_Rb_tree_nodeISsES9_RKSs
FNDA:3,_ZNSt8_Rb_treeISsSsSt9_IdentityISsESt4lessISsESaISsEE24_M_get_insert_unique_posERKSs
FNDA:3,_ZNSt8_Rb_treeISsSsSt9_IdentityISsESt4lessISsESaISsEE16_M_insert_uniqueIRKSsEESt4pairISt17_Rb_tree_iteratorISsEbEOT_
FNDA:3,_ZNKSt8_Rb_treeISsSsSt9_IdentityISsESt4lessISsESaISsEE4findERKSs
FNF:38
FNH:31
DA:131,3
DA:138,3
DA:140,3
DA:174,9
DA:175,9
DA:202,0
DA:204,0
DA:205,0
DA:217,3
DA:218,3
DA:247,12
DA:248,12
DA:250,3
DA:251,3
DA:298,6
DA:299,6
DA:356,6
DA:357,6
DA:369,3
DA:370,3
DA:373,3
DA:374,3
DA:401,3
DA:403,3
DA:406,3
DA:407,3
DA:408,3
DA:410,=====
DA:412,=====
DA:413,=====
DA:415,3
DA:419,3
DA:421,3
DA:422,3
DA:423,3
DA:439,3
DA:445,3
DA:447,3
DA:448,3
DA:464,3
DA:466,3
DA:467,3
DA:468,3
DA:469,3
DA:470,3
DA:501,6
DA:502,6
DA:505,3
DA:508,3
DA:512,6
DA:513,6
DA:516,3
DA:517,3
DA:520,0
DA:521,0
DA:524,0
DA:525,0
DA:528,3
DA:529,3
DA:532,0
DA:533,0
DA:536,3
DA:537,3
DA:540,0
DA:541,0
DA:544,0
DA:545,0
DA:548,0
DA:549,0
DA:648,3
DA:670,3
DA:671,3
DA:682,3
DA:685,3
DA:700,9
DA:703,9
DA:1012,3
DA:1019,3
DA:1020,3
DA:1021,9
DA:1023,3
DA:1025,3
DA:1026,3
DA:1027,3
DA:1028,3
DA:1119,6
DA:1123,15
DA:1125,3
DA:1126,3
DA:1127,3
DA:1128,3
DA:1130,6
DA:1152,3
DA:1156,6
DA:1157,0
DA:1158,0
DA:1160,0
DA:1161,3
DA:1314,3
DA:1318,3
DA:1319,3
DA:1320,3
DA:1321,6
DA:1323,0
DA:1324,0
DA:1325,0
DA:1327,3
DA:1328,3
DA:1330,3
DA:1331,3
DA:1333,0
DA:1335,0
DA:1336,0
DA:1337,0
DA:1368,3
DA:1377,3
DA:1379,3
DA:1381,3
DA:1382,6
DA:1384,0
DA:1802,3
DA:1805,3
DA:1806,12
DA:1807,0
DA:1808,12
LF:125
LH:95
end_of_record
SF:/usr/include/c++/4.8/bits/stl_uninitialized.h
FN:68,_ZNSt20__uninitialized_copyILb0EE13__uninit_copyIPN7testing8internal10linked_ptrINS3_25ParameterizedTestCaseInfoI8reconf_cE8TestInfoEEESA_EET0_T_SC_SB_
FN:68,_ZNSt20__uninitialized_copyILb0EE13__uninit_copyIN9__gnu_cxx17__normal_iteratorIPKSsSt6vectorISsSaISsEEEEPSsEET0_T_SC_SB_
FN:68,_ZNSt20__uninitialized_copyILb0EE13__uninit_copyISt13move_iteratorIPN7testing8internal25ParameterizedTestCaseInfoI8reconf_cE17InstantiationInfoEES9_EET0_T_SC_SB_
FN:91,_ZNSt20__uninitialized_copyILb1EE13__uninit_copyISt13move_iteratorIPPN7testing8internal29ParameterizedTestCaseInfoBaseEES7_EET0_T_SA_S9_
FN:107,_ZSt18uninitialized_copyISt13move_iteratorIPPN7testing8internal29ParameterizedTestCaseInfoBaseEES5_ET0_T_S8_S7_
FN:107,_ZSt18uninitialized_copyISt13move_iteratorIPN7testing8internal25ParameterizedTestCaseInfoI8reconf_cE17InstantiationInfoEES7_ET0_T_SA_S9_
FN:107,_ZSt18uninitialized_copyIN9__gnu_cxx17__normal_iteratorIPKSsSt6vectorISsSaISsEEEEPSsET0_T_SA_S9_
FN:107,_ZSt18uninitialized_copyIPN7testing8internal10linked_ptrINS1_25ParameterizedTestCaseInfoI8reconf_cE8TestInfoEEES8_ET0_T_SA_S9_
FN:256,_ZSt22__uninitialized_copy_aISt13move_iteratorIPPN7testing8internal29ParameterizedTestCaseInfoBaseEES5_S4_ET0_T_S8_S7_RSaIT1_E
FN:256,_ZSt22__uninitialized_copy_aISt13move_iteratorIPN7testing8internal25ParameterizedTestCaseInfoI8reconf_cE17InstantiationInfoEES7_S6_ET0_T_SA_S9_RSaIT1_E
FN:256,_ZSt22__uninitialized_copy_aIPN7testing8internal10linked_ptrINS1_25ParameterizedTestCaseInfoI8reconf_cE8TestInfoEEES8_S7_ET0_T_SA_S9_RSaIT1_E
FN:256,_ZSt22__uninitialized_copy_aIN9__gnu_cxx17__normal_iteratorIPKSsSt6vectorISsSaISsEEEEPSsSsET0_T_SA_S9_RSaIT1_E
FN:274,_ZSt34__uninitialized_move_if_noexcept_aIPN7testing8internal25ParameterizedTestCaseInfoI8reconf_cE17InstantiationInfoES6_SaIS5_EET0_T_S9_S8_RT1_
FN:274,_ZSt34__uninitialized_move_if_noexcept_aIPN7testing8internal10linked_ptrINS1_25ParameterizedTestCaseInfoI8reconf_cE8TestInfoEEES8_SaIS7_EET0_T_SB_SA_RT1_
FN:274,_ZSt34__uninitialized_move_if_noexcept_aIPPN7testing8internal29ParameterizedTestCaseInfoBaseES4_SaIS3_EET0_T_S7_S6_RT1_
FNDA:20041,_ZNSt20__uninitialized_copyILb0EE13__uninit_copyIN9__gnu_cxx17__normal_iteratorIPKSsSt6vectorISsSaISsEEEEPSsEET0_T_SC_SB_
FNDA:1,_ZNSt20__uninitialized_copyILb0EE13__uninit_copyISt13move_iteratorIPN7testing8internal25ParameterizedTestCaseInfoI8reconf_cE17InstantiationInfoEES9_EET0_T_SC_SB_
FNDA:3,_ZNSt20__uninitialized_copyILb0EE13__uninit_copyIPN7testing8internal10linked_ptrINS3_25ParameterizedTestCaseInfoI8reconf_cE8TestInfoEEESA_EET0_T_SC_SB_
FNDA:1,_ZNSt20__uninitialized_copyILb1EE13__uninit_copyISt13move_iteratorIPPN7testing8internal29ParameterizedTestCaseInfoBaseEES7_EET0_T_SA_S9_
FNDA:20041,_ZSt18uninitialized_copyIN9__gnu_cxx17__normal_iteratorIPKSsSt6vectorISsSaISsEEEEPSsET0_T_SA_S9_
FNDA:1,_ZSt18uninitialized_copyISt13move_iteratorIPN7testing8internal25ParameterizedTestCaseInfoI8reconf_cE17InstantiationInfoEES7_ET0_T_SA_S9_
FNDA:3,_ZSt18uninitialized_copyIPN7testing8internal10linked_ptrINS1_25ParameterizedTestCaseInfoI8reconf_cE8TestInfoEEES8_ET0_T_SA_S9_
FNDA:1,_ZSt18uninitialized_copyISt13move_iteratorIPPN7testing8internal29ParameterizedTestCaseInfoBaseEES5_ET0_T_S8_S7_
FNDA:20041,_ZSt22__uninitialized_copy_aIN9__gnu_cxx17__normal_iteratorIPKSsSt6vectorISsSaISsEEEEPSsSsET0_T_SA_S9_RSaIT1_E
FNDA:1,_ZSt22__uninitialized_copy_aISt13move_iteratorIPN7testing8internal25ParameterizedTestCaseInfoI8reconf_cE17InstantiationInfoEES7_S6_ET0_T_SA_S9_RSaIT1_E
FNDA:3,_ZSt22__uninitialized_copy_aIPN7testing8internal10linked_ptrINS1_25ParameterizedTestCaseInfoI8reconf_cE8TestInfoEEES8_S7_ET0_T_SA_S9_RSaIT1_E
FNDA:1,_ZSt22__uninitialized_copy_aISt13move_iteratorIPPN7testing8internal29ParameterizedTestCaseInfoBaseEES5_S4_ET0_T_S8_S7_RSaIT1_E
FNDA:1,_ZSt34__uninitialized_move_if_noexcept_aIPN7testing8internal25ParameterizedTestCaseInfoI8reconf_cE17InstantiationInfoES6_SaIS5_EET0_T_S9_S8_RT1_
FNDA:3,_ZSt34__uninitialized_move_if_noexcept_aIPN7testing8internal10linked_ptrINS1_25ParameterizedTestCaseInfoI8reconf_cE8TestInfoEEES8_SaIS7_EET0_T_SB_SA_RT1_
FNDA:1,_ZSt34__uninitialized_move_if_noexcept_aIPPN7testing8internal29ParameterizedTestCaseInfoBaseES4_SaIS3_EET0_T_S7_S6_RT1_
FNF:15
FNH:15
DA:68,20045
DA:71,20045
DA:74,60129
DA:75,40084
DA:76,20045
DA:78,=====
DA:80,=====
DA:81,=====
DA:91,1
DA:93,1
DA:107,20046
DA:117,20046
DA:256,20046
DA:258,20046
DA:274,5
DA:281,5
LF:16
LH:13
end_of_record
SF:/usr/include/c++/4.8/bits/stl_vector.h
FN:79,_ZNSt12_Vector_baseIN7testing8internal10linked_ptrINS1_25ParameterizedTestCaseInfoI8reconf_cE8TestInfoEEESaIS7_EE12_Vector_implD2Ev
FN:79,_ZNSt12_Vector_baseISsSaISsEE12_Vector_implD2Ev
FN:79,_ZNSt12_Vector_baseIN7testing8internal25ParameterizedTestCaseInfoI8reconf_cE17InstantiationInfoESaIS5_EE12_Vector_implD2Ev
FN:79,_ZNSt12_Vector_baseIN4opae7testing11test_deviceESaIS2_EE12_Vector_implD2Ev
FN:86,_ZNSt12_Vector_baseIN7testing8internal10linked_ptrINS1_25ParameterizedTestCaseInfoI8reconf_cE8TestInfoEEESaIS7_EE12_Vector_implC2Ev
FN:86,_ZNSt12_Vector_baseIN4opae7testing11test_deviceESaIS2_EE12_Vector_implC2Ev
FN:86,_ZNSt12_Vector_baseIN7testing8internal25ParameterizedTestCaseInfoI8reconf_cE17InstantiationInfoESaIS5_EE12_Vector_implC2Ev
FN:90,_ZNSt12_Vector_baseISsSaISsEE12_Vector_implC2ERKS0_
FN:90,_ZNSt12_Vector_baseIN4opae7testing11test_deviceESaIS2_EE12_Vector_implC2ERKS3_
FN:101,_ZNSt12_Vector_baseIN4opae7testing11test_deviceESaIS2_EE12_Vector_impl12_M_swap_dataERS5_
FN:113,_ZNSt12_Vector_baseIN4opae7testing11test_deviceESaIS2_EE19_M_get_Tp_allocatorEv
FN:113,_ZNSt12_Vector_baseISsSaISsEE19_M_get_Tp_allocatorEv
FN:113,_ZNSt12_Vector_baseIPN7testing8internal29ParameterizedTestCaseInfoBaseESaIS3_EE19_M_get_Tp_allocatorEv
FN:113,_ZNSt12_Vector_baseIN7testing8internal10linked_ptrINS1_25ParameterizedTestCaseInfoI8reconf_cE8TestInfoEEESaIS7_EE19_M_get_Tp_allocatorEv
FN:113,_ZNSt12_Vector_baseIN7testing8internal25ParameterizedTestCaseInfoI8reconf_cE17InstantiationInfoESaIS5_EE19_M_get_Tp_allocatorEv
FN:117,_ZNKSt12_Vector_baseIPN7testing8internal29ParameterizedTestCaseInfoBaseESaIS3_EE19_M_get_Tp_allocatorEv
FN:117,_ZNKSt12_Vector_baseIN7testing8internal25ParameterizedTestCaseInfoI8reconf_cE17InstantiationInfoESaIS5_EE19_M_get_Tp_allocatorEv
FN:117,_ZNKSt12_Vector_baseIN7testing8internal10linked_ptrINS1_25ParameterizedTestCaseInfoI8reconf_cE8TestInfoEEESaIS7_EE19_M_get_Tp_allocatorEv
FN:117,_ZNKSt12_Vector_baseIN4opae7testing11test_deviceESaIS2_EE19_M_get_Tp_allocatorEv
FN:121,_ZNKSt12_Vector_baseIN4opae7testing11test_deviceESaIS2_EE13get_allocatorEv
FN:124,_ZNSt12_Vector_baseIN7testing8internal10linked_ptrINS1_25ParameterizedTestCaseInfoI8reconf_cE8TestInfoEEESaIS7_EEC2Ev
FN:124,_ZNSt12_Vector_baseIN7testing8internal25ParameterizedTestCaseInfoI8reconf_cE17InstantiationInfoESaIS5_EEC2Ev
FN:124,_ZNSt12_Vector_baseIN4opae7testing11test_deviceESaIS2_EEC2Ev
FN:127,_ZNSt12_Vector_baseISsSaISsEEC2ERKS0_
FN:127,_ZNSt12_Vector_baseIN4opae7testing11test_deviceESaIS2_EEC2ERKS3_
FN:159,_ZNSt12_Vector_baseIN7testing8internal25ParameterizedTestCaseInfoI8reconf_cE17InstantiationInfoESaIS5_EED2Ev
FN:159,_ZNSt12_Vector_baseISsSaISsEED2Ev
FN:159,_ZNSt12_Vector_baseIN7testing8internal10linked_ptrINS1_25ParameterizedTestCaseInfoI8reconf_cE8TestInfoEEESaIS7_EED2Ev
FN:159,_ZNSt12_Vector_baseIN4opae7testing11test_deviceESaIS2_EED2Ev
FN:167,_ZNSt12_Vector_baseIN7testing8internal10linked_ptrINS1_25ParameterizedTestCaseInfoI8reconf_cE8TestInfoEEESaIS7_EE11_M_allocateEm
FN:167,_ZNSt12_Vector_baseIN7testing8internal25ParameterizedTestCaseInfoI8reconf_cE17InstantiationInfoESaIS5_EE11_M_allocateEm
FN:167,_ZNSt12_Vector_baseISsSaISsEE11_M_allocateEm
FN:167,_ZNSt12_Vector_baseIPN7testing8internal29ParameterizedTestCaseInfoBaseESaIS3_EE11_M_allocateEm
FN:171,_ZNSt12_Vector_baseIN7testing8internal10linked_ptrINS1_25ParameterizedTestCaseInfoI8reconf_cE8TestInfoEEESaIS7_EE13_M_deallocateEPS7_m
FN:171,_ZNSt12_Vector_baseIN4opae7testing11test_deviceESaIS2_EE13_M_deallocateEPS2_m
FN:171,_ZNSt12_Vector_baseIN7testing8internal25ParameterizedTestCaseInfoI8reconf_cE17InstantiationInfoESaIS5_EE13_M_deallocateEPS5_m
FN:171,_ZNSt12_Vector_baseIPN7testing8internal29ParameterizedTestCaseInfoBaseESaIS3_EE13_M_deallocateEPS3_m
FN:171,_ZNSt12_Vector_baseISsSaISsEE13_M_deallocateEPSsm
FN:248,_ZNSt6vectorIN7testing8internal25ParameterizedTestCaseInfoI8reconf_cE17InstantiationInfoESaIS5_EEC2Ev
FN:248,_ZNSt6vectorIN7testing8internal10linked_ptrINS1_25ParameterizedTestCaseInfoI8reconf_cE8TestInfoEEESaIS7_EEC2Ev
FN:248,_ZNSt6vectorIN4opae7testing11test_deviceESaIS2_EEC2Ev
FN:256,_ZNSt6vectorIN4opae7testing11test_deviceESaIS2_EEC2ERKS3_
FN:392,_ZNSt6vectorISsSaISsEEC2IN9__gnu_cxx17__normal_iteratorIPKSsS1_EEvEET_S8_RKS0_
FN:414,_ZNSt6vectorIN4opae7testing11test_deviceESaIS2_EED2Ev
FN:414,_ZNSt6vectorISsSaISsEED2Ev
FN:414,_ZNSt6vectorIN7testing8internal10linked_ptrINS1_25ParameterizedTestCaseInfoI8reconf_cE8TestInfoEEESaIS7_EED2Ev
FN:414,_ZNSt6vectorIN7testing8internal25ParameterizedTestCaseInfoI8reconf_cE17InstantiationInfoESaIS5_EED2Ev
FN:439,_ZNSt6vectorIN4opae7testing11test_deviceESaIS2_EEaSEOS4_
FN:538,_ZNSt6vectorIN7testing8internal25ParameterizedTestCaseInfoI8reconf_cE17InstantiationInfoESaIS5_EE5beginEv
FN:538,_ZNSt6vectorIN7testing8internal10linked_ptrINS1_25ParameterizedTestCaseInfoI8reconf_cE8TestInfoEEESaIS7_EE5beginEv
FN:538,_ZNSt6vectorIPN7testing8internal29ParameterizedTestCaseInfoBaseESaIS3_EE5beginEv
FN:547,_ZNKSt6vectorISsSaISsEE5beginEv
FN:556,_ZNSt6vectorIN7testing8internal10linked_ptrINS1_25ParameterizedTestCaseInfoI8reconf_cE8TestInfoEEESaIS7_EE3endEv
FN:556,_ZNSt6vectorIPN7testing8internal29ParameterizedTestCaseInfoBaseESaIS3_EE3endEv
FN:556,_ZNSt6vectorIN7testing8internal25ParameterizedTestCaseInfoI8reconf_cE17InstantiationInfoESaIS5_EE3endEv
FN:565,_ZNKSt6vectorISsSaISsEE3endEv
FN:645,_ZNKSt6vectorIN7testing8internal10linked_ptrINS1_25ParameterizedTestCaseInfoI8reconf_cE8TestInfoEEESaIS7_EE4sizeEv
FN:645,_ZNKSt6vectorIN7testing8internal25ParameterizedTestCaseInfoI8reconf_cE17InstantiationInfoESaIS5_EE4sizeEv
FN:645,_ZNKSt6vectorIPN7testing8internal29ParameterizedTestCaseInfoBaseESaIS3_EE4sizeEv
FN:650,_ZNKSt6vectorIN7testing8internal25ParameterizedTestCaseInfoI8reconf_cE17InstantiationInfoESaIS5_EE8max_sizeEv
FN:650,_ZNKSt6vectorIN7testing8internal10linked_ptrINS1_25ParameterizedTestCaseInfoI8reconf_cE8TestInfoEEESaIS7_EE8max_sizeEv
FN:650,_ZNKSt6vectorIPN7testing8internal29ParameterizedTestCaseInfoBaseESaIS3_EE8max_sizeEv
FN:919,_ZNSt6vectorIN7testing8internal10linked_ptrINS1_25ParameterizedTestCaseInfoI8reconf_cE8TestInfoEEESaIS7_EE9push_backEOS7_
FN:919,_ZNSt6vectorIN7testing8internal25ParameterizedTestCaseInfoI8reconf_cE17InstantiationInfoESaIS5_EE9push_backEOS5_
FN:919,_ZNSt6vectorIPN7testing8internal29ParameterizedTestCaseInfoBaseESaIS3_EE9push_backEOS3_
FN:1172,_ZNSt6vectorISsSaISsEE22_M_initialize_dispatchIN9__gnu_cxx17__normal_iteratorIPKSsS1_EEEEvT_S8_St12__false_type
FN:1197,_ZNSt6vectorISsSaISsEE19_M_range_initializeIN9__gnu_cxx17__normal_iteratorIPKSsS1_EEEEvT_S8_St20forward_iterator_tag
FN:1336,_ZNKSt6vectorIN7testing8internal25ParameterizedTestCaseInfoI8reconf_cE17InstantiationInfoESaIS5_EE12_M_check_lenEmPKc
FN:1336,_ZNKSt6vectorIN7testing8internal10linked_ptrINS1_25ParameterizedTestCaseInfoI8reconf_cE8TestInfoEEESaIS7_EE12_M_check_lenEmPKc
FN:1336,_ZNKSt6vectorIPN7testing8internal29ParameterizedTestCaseInfoBaseESaIS3_EE12_M_check_lenEmPKc
FN:1362,_ZNSt6vectorIN4opae7testing11test_deviceESaIS2_EE14_M_move_assignEOS4_St17integral_constantIbLb1EE
FNDA:1,_ZNSt12_Vector_baseIN7testing8internal25ParameterizedTestCaseInfoI8reconf_cE17InstantiationInfoESaIS5_EE12_Vector_implD2Ev
FNDA:1,_ZNSt12_Vector_baseIN7testing8internal10linked_ptrINS1_25ParameterizedTestCaseInfoI8reconf_cE8TestInfoEEESaIS7_EE12_Vector_implD2Ev
FNDA:40084,_ZNSt12_Vector_baseISsSaISsEE12_Vector_implD2Ev
FNDA:14,_ZNSt12_Vector_baseIN4opae7testing11test_deviceESaIS2_EE12_Vector_implD2Ev
FNDA:1,_ZNSt12_Vector_baseIN7testing8internal25ParameterizedTestCaseInfoI8reconf_cE17InstantiationInfoESaIS5_EE12_Vector_implC2Ev
FNDA:1,_ZNSt12_Vector_baseIN7testing8internal10linked_ptrINS1_25ParameterizedTestCaseInfoI8reconf_cE8TestInfoEEESaIS7_EE12_Vector_implC2Ev
FNDA:3,_ZNSt12_Vector_baseIN4opae7testing11test_deviceESaIS2_EE12_Vector_implC2Ev
FNDA:20044,_ZNSt12_Vector_baseISsSaISsEE12_Vector_implC2ERKS0_
FNDA:11,_ZNSt12_Vector_baseIN4opae7testing11test_deviceESaIS2_EE12_Vector_implC2ERKS3_
FNDA:7,_ZNSt12_Vector_baseIN4opae7testing11test_deviceESaIS2_EE12_Vector_impl12_M_swap_dataERS5_
FNDA:3,_ZNSt12_Vector_baseIN7testing8internal25ParameterizedTestCaseInfoI8reconf_cE17InstantiationInfoESaIS5_EE19_M_get_Tp_allocatorEv
FNDA:7,_ZNSt12_Vector_baseIN7testing8internal10linked_ptrINS1_25ParameterizedTestCaseInfoI8reconf_cE8TestInfoEEESaIS7_EE19_M_get_Tp_allocatorEv
FNDA:140288,_ZNSt12_Vector_baseISsSaISsEE19_M_get_Tp_allocatorEv
FNDA:29,_ZNSt12_Vector_baseIN4opae7testing11test_deviceESaIS2_EE19_M_get_Tp_allocatorEv
FNDA:3,_ZNSt12_Vector_baseIPN7testing8internal29ParameterizedTestCaseInfoBaseESaIS3_EE19_M_get_Tp_allocatorEv
FNDA:2,_ZNKSt12_Vector_baseIN7testing8internal25ParameterizedTestCaseInfoI8reconf_cE17InstantiationInfoESaIS5_EE19_M_get_Tp_allocatorEv
FNDA:6,_ZNKSt12_Vector_baseIN7testing8internal10linked_ptrINS1_25ParameterizedTestCaseInfoI8reconf_cE8TestInfoEEESaIS7_EE19_M_get_Tp_allocatorEv
FNDA:2,_ZNKSt12_Vector_baseIPN7testing8internal29ParameterizedTestCaseInfoBaseESaIS3_EE19_M_get_Tp_allocatorEv
FNDA:10,_ZNKSt12_Vector_baseIN4opae7testing11test_deviceESaIS2_EE19_M_get_Tp_allocatorEv
FNDA:3,_ZNKSt12_Vector_baseIN4opae7testing11test_deviceESaIS2_EE13get_allocatorEv
FNDA:1,_ZNSt12_Vector_baseIN7testing8internal25ParameterizedTestCaseInfoI8reconf_cE17InstantiationInfoESaIS5_EEC2Ev
FNDA:1,_ZNSt12_Vector_baseIN7testing8internal10linked_ptrINS1_25ParameterizedTestCaseInfoI8reconf_cE8TestInfoEEESaIS7_EEC2Ev
FNDA:3,_ZNSt12_Vector_baseIN4opae7testing11test_deviceESaIS2_EEC2Ev
FNDA:3,_ZNSt12_Vector_baseISsSaISsEEC2ERKS0_
FNDA:4,_ZNSt12_Vector_baseIN4opae7testing11test_deviceESaIS2_EEC2ERKS3_
FNDA:1,_ZNSt12_Vector_baseIN7testing8internal25ParameterizedTestCaseInfoI8reconf_cE17InstantiationInfoESaIS5_EED2Ev
FNDA:1,_ZNSt12_Vector_baseIN7testing8internal10linked_ptrINS1_25ParameterizedTestCaseInfoI8reconf_cE8TestInfoEEESaIS7_EED2Ev
FNDA:40084,_ZNSt12_Vector_baseISsSaISsEED2Ev
FNDA:14,_ZNSt12_Vector_baseIN4opae7testing11test_deviceESaIS2_EED2Ev
FNDA:60123,_ZNSt12_Vector_baseISsSaISsEE11_M_allocateEm
FNDA:1,_ZNSt12_Vector_baseIN7testing8internal25ParameterizedTestCaseInfoI8reconf_cE17InstantiationInfoESaIS5_EE11_M_allocateEm
FNDA:3,_ZNSt12_Vector_baseIN7testing8internal10linked_ptrINS1_25ParameterizedTestCaseInfoI8reconf_cE8TestInfoEEESaIS7_EE11_M_allocateEm
FNDA:1,_ZNSt12_Vector_baseIPN7testing8internal29ParameterizedTestCaseInfoBaseESaIS3_EE11_M_allocateEm
FNDA:2,_ZNSt12_Vector_baseIN7testing8internal25ParameterizedTestCaseInfoI8reconf_cE17InstantiationInfoESaIS5_EE13_M_deallocateEPS5_m
FNDA:4,_ZNSt12_Vector_baseIN7testing8internal10linked_ptrINS1_25ParameterizedTestCaseInfoI8reconf_cE8TestInfoEEESaIS7_EE13_M_deallocateEPS7_m
FNDA:80163,_ZNSt12_Vector_baseISsSaISsEE13_M_deallocateEPSsm
FNDA:14,_ZNSt12_Vector_baseIN4opae7testing11test_deviceESaIS2_EE13_M_deallocateEPS2_m
FNDA:2,_ZNSt12_Vector_baseIPN7testing8internal29ParameterizedTestCaseInfoBaseESaIS3_EE13_M_deallocateEPS3_m
FNDA:1,_ZNSt6vectorIN7testing8internal25ParameterizedTestCaseInfoI8reconf_cE17InstantiationInfoESaIS5_EEC2Ev
FNDA:1,_ZNSt6vectorIN7testing8internal10linked_ptrINS1_25ParameterizedTestCaseInfoI8reconf_cE8TestInfoEEESaIS7_EEC2Ev
FNDA:3,_ZNSt6vectorIN4opae7testing11test_deviceESaIS2_EEC2Ev
FNDA:3,_ZNSt6vectorIN4opae7testing11test_deviceESaIS2_EEC2ERKS3_
FNDA:3,_ZNSt6vectorISsSaISsEEC2IN9__gnu_cxx17__normal_iteratorIPKSsS1_EEvEET_S8_RKS0_
FNDA:1,_ZNSt6vectorIN7testing8internal25ParameterizedTestCaseInfoI8reconf_cE17InstantiationInfoESaIS5_EED2Ev
FNDA:1,_ZNSt6vectorIN7testing8internal10linked_ptrINS1_25ParameterizedTestCaseInfoI8reconf_cE8TestInfoEEESaIS7_EED2Ev
FNDA:40084,_ZNSt6vectorISsSaISsEED2Ev
FNDA:14,_ZNSt6vectorIN4opae7testing11test_deviceESaIS2_EED2Ev
FNDA:3,_ZNSt6vectorIN4opae7testing11test_deviceESaIS2_EEaSEOS4_
FNDA:3,_ZNSt6vectorIN7testing8internal25ParameterizedTestCaseInfoI8reconf_cE17InstantiationInfoESaIS5_EE5beginEv
FNDA:1,_ZNSt6vectorIN7testing8internal10linked_ptrINS1_25ParameterizedTestCaseInfoI8reconf_cE8TestInfoEEESaIS7_EE5beginEv
FNDA:6,_ZNSt6vectorIPN7testing8internal29ParameterizedTestCaseInfoBaseESaIS3_EE5beginEv
FNDA:20044,_ZNKSt6vectorISsSaISsEE5beginEv
FNDA:6,_ZNSt6vectorIN7testing8internal25ParameterizedTestCaseInfoI8reconf_cE17InstantiationInfoESaIS5_EE3endEv
FNDA:4,_ZNSt6vectorIN7testing8internal10linked_ptrINS1_25ParameterizedTestCaseInfoI8reconf_cE8TestInfoEEESaIS7_EE3endEv
FNDA:8,_ZNSt6vectorIPN7testing8internal29ParameterizedTestCaseInfoBaseESaIS3_EE3endEv
FNDA:20047,_ZNKSt6vectorISsSaISsEE3endEv
FNDA:5,_ZNKSt6vectorIN7testing8internal25ParameterizedTestCaseInfoI8reconf_cE17InstantiationInfoESaIS5_EE4sizeEv
FNDA:15,_ZNKSt6vectorIN7testing8internal10linked_ptrINS1_25ParameterizedTestCaseInfoI8reconf_cE8TestInfoEEESaIS7_EE4sizeEv
FNDA:5,_ZNKSt6vectorIPN7testing8internal29ParameterizedTestCaseInfoBaseESaIS3_EE4sizeEv
FNDA:2,_ZNKSt6vectorIN7testing8internal25ParameterizedTestCaseInfoI8reconf_cE17InstantiationInfoESaIS5_EE8max_sizeEv
FNDA:6,_ZNKSt6vectorIN7testing8internal10linked_ptrINS1_25ParameterizedTestCaseInfoI8reconf_cE8TestInfoEEESaIS7_EE8max_sizeEv
FNDA:2,_ZNKSt6vectorIPN7testing8internal29ParameterizedTestCaseInfoBaseESaIS3_EE8max_sizeEv
FNDA:1,_ZNSt6vectorIN7testing8internal25ParameterizedTestCaseInfoI8reconf_cE17InstantiationInfoESaIS5_EE9push_backEOS5_
FNDA:3,_ZNSt6vectorIN7testing8internal10linked_ptrINS1_25ParameterizedTestCaseInfoI8reconf_cE8TestInfoEEESaIS7_EE9push_backEOS7_
FNDA:1,_ZNSt6vectorIPN7testing8internal29ParameterizedTestCaseInfoBaseESaIS3_EE9push_backEOS3_
FNDA:3,_ZNSt6vectorISsSaISsEE22_M_initialize_dispatchIN9__gnu_cxx17__normal_iteratorIPKSsS1_EEEEvT_S8_St12__false_type
FNDA:3,_ZNSt6vectorISsSaISsEE19_M_range_initializeIN9__gnu_cxx17__normal_iteratorIPKSsS1_EEEEvT_S8_St20forward_iterator_tag
FNDA:1,_ZNKSt6vectorIN7testing8internal25ParameterizedTestCaseInfoI8reconf_cE17InstantiationInfoESaIS5_EE12_M_check_lenEmPKc
FNDA:3,_ZNKSt6vectorIN7testing8internal10linked_ptrINS1_25ParameterizedTestCaseInfoI8reconf_cE8TestInfoEEESaIS7_EE12_M_check_lenEmPKc
FNDA:1,_ZNKSt6vectorIPN7testing8internal29ParameterizedTestCaseInfoBaseESaIS3_EE12_M_check_lenEmPKc
FNDA:3,_ZNSt6vectorIN4opae7testing11test_deviceESaIS2_EE14_M_move_assignEOS4_St17integral_constantIbLb1EE
FNF:71
FNH:71
DA:79,40100
DA:86,5
DA:87,5
DA:88,5
DA:90,20055
DA:91,20055
DA:92,20055
DA:101,7
DA:103,7
DA:104,7
DA:105,7
DA:106,7
DA:113,140330
DA:114,140330
DA:117,20
DA:118,20
DA:121,3
DA:122,3
DA:124,5
DA:125,5
DA:127,7
DA:128,7
DA:159,40100
DA:160,40100
DA:161,80200
DA:167,60128
DA:168,60128
DA:171,80185
DA:173,80185
DA:174,60134
DA:175,80185
DA:248,5
DA:249,5
DA:256,3
DA:257,3
DA:392,3
DA:394,3
DA:395,3
DA:414,40100
DA:415,40100
DA:416,80200
DA:439,3
DA:443,3
DA:444,3
DA:445,3
DA:446,3
DA:538,10
DA:539,10
DA:547,20044
DA:548,20044
DA:556,18
DA:557,18
DA:565,20047
DA:566,20047
DA:645,25
DA:646,25
DA:650,10
DA:651,10
DA:919,5
DA:920,5
DA:1172,3
DA:1177,3
DA:1178,3
DA:1197,3
DA:1200,3
DA:1201,3
DA:1202,3
DA:1203,3
DA:1206,3
DA:1207,3
DA:1336,5
DA:1338,5
DA:1339,0
DA:1341,5
DA:1342,5
DA:1362,3
DA:1364,3
DA:1365,3
DA:1366,3
DA:1367,3
DA:1368,3
DA:1369,6
DA:1370,3
LF:83
LH:82
end_of_record
SF:/usr/include/c++/4.8/bits/vector.tcc
FN:91,_ZNSt6vectorIN7testing8internal25ParameterizedTestCaseInfoI8reconf_cE17InstantiationInfoESaIS5_EE12emplace_backIIS5_EEEvDpOT_
FN:91,_ZNSt6vectorIN7testing8internal10linked_ptrINS1_25ParameterizedTestCaseInfoI8reconf_cE8TestInfoEEESaIS7_EE12emplace_backIIS7_EEEvDpOT_
FN:91,_ZNSt6vectorIPN7testing8internal29ParameterizedTestCaseInfoBaseESaIS3_EE12emplace_backIIS3_EEEvDpOT_
FN:399,_ZNSt6vectorIN7testing8internal10linked_ptrINS1_25ParameterizedTestCaseInfoI8reconf_cE8TestInfoEEESaIS7_EE19_M_emplace_back_auxIIS7_EEEvDpOT_
FN:399,_ZNSt6vectorIN7testing8internal25ParameterizedTestCaseInfoI8reconf_cE17InstantiationInfoESaIS5_EE19_M_emplace_back_auxIIS5_EEEvDpOT_
FN:399,_ZNSt6vectorIPN7testing8internal29ParameterizedTestCaseInfoBaseESaIS3_EE19_M_emplace_back_auxIIS3_EEEvDpOT_
FNDA:1,_ZNSt6vectorIN7testing8internal25ParameterizedTestCaseInfoI8reconf_cE17InstantiationInfoESaIS5_EE12emplace_backIIS5_EEEvDpOT_
FNDA:3,_ZNSt6vectorIN7testing8internal10linked_ptrINS1_25ParameterizedTestCaseInfoI8reconf_cE8TestInfoEEESaIS7_EE12emplace_backIIS7_EEEvDpOT_
FNDA:1,_ZNSt6vectorIPN7testing8internal29ParameterizedTestCaseInfoBaseESaIS3_EE12emplace_backIIS3_EEEvDpOT_
FNDA:1,_ZNSt6vectorIN7testing8internal25ParameterizedTestCaseInfoI8reconf_cE17InstantiationInfoESaIS5_EE19_M_emplace_back_auxIIS5_EEEvDpOT_
FNDA:3,_ZNSt6vectorIN7testing8internal10linked_ptrINS1_25ParameterizedTestCaseInfoI8reconf_cE8TestInfoEEESaIS7_EE19_M_emplace_back_auxIIS7_EEEvDpOT_
FNDA:1,_ZNSt6vectorIPN7testing8internal29ParameterizedTestCaseInfoBaseESaIS3_EE19_M_emplace_back_auxIIS3_EEEvDpOT_
FNF:6
FNH:6
DA:91,5
DA:94,5
DA:96,0
DA:97,0
DA:98,0
DA:101,5
DA:102,5
DA:399,5
DA:403,5
DA:404,5
DA:405,5
DA:408,10
DA:409,10
DA:410,5
DA:412,5
DA:415,5
DA:417,5
DA:419,=====
DA:421,=====
DA:422,=====
DA:424,=====
DA:425,=====
DA:426,=====
DA:428,5
DA:429,5
DA:430,5
DA:432,5
DA:433,5
DA:434,5
DA:435,5
DA:436,5
LF:31
LH:22
end_of_record
SF:/usr/include/c++/4.8/ext/alloc_traits.h
FN:175,_ZN9__gnu_cxx14__alloc_traitsISaIN4opae7testing11test_deviceEEE27_S_propagate_on_move_assignEv
FNDA:3,_ZN9__gnu_cxx14__alloc_traitsISaIN4opae7testing11test_deviceEEE27_S_propagate_on_move_assignEv
FNF:1
FNH:1
DA:175,3
DA:176,3
LF:2
LH:2
end_of_record
SF:/usr/include/c++/4.8/ext/atomicity.h
FN:48,_ZN9__gnu_cxxL18__exchange_and_addEPVii
FN:65,_ZN9__gnu_cxxL25__exchange_and_add_singleEPii
FN:78,_ZN9__gnu_cxxL27__exchange_and_add_dispatchEPii
FNDA:0,_ZN9__gnu_cxxL18__exchange_and_addEPVii
FNDA:0,_ZN9__gnu_cxxL25__exchange_and_add_singleEPii
FNDA:0,_ZN9__gnu_cxxL27__exchange_and_add_dispatchEPii
FNF:3
FNH:0
DA:48,0
DA:49,0
DA:65,0
DA:67,0
DA:68,0
DA:69,0
DA:78,0
DA:81,0
DA:82,0
DA:84,0
LF:10
LH:0
end_of_record
SF:/usr/include/c++/4.8/ext/new_allocator.h
FN:79,_ZN9__gnu_cxx13new_allocatorIN4opae7testing11test_deviceEEC2Ev
FN:79,_ZN9__gnu_cxx13new_allocatorISt13_Rb_tree_nodeISsEEC2Ev
FN:79,_ZN9__gnu_cxx13new_allocatorIcEC2Ev
FN:79,_ZN9__gnu_cxx13new_allocatorIN7testing8internal10linked_ptrINS2_25ParameterizedTestCaseInfoI8reconf_cE8TestInfoEEEEC2Ev
FN:79,_ZN9__gnu_cxx13new_allocatorISsEC2Ev
FN:79,_ZN9__gnu_cxx13new_allocatorIN7testing8internal25ParameterizedTestCaseInfoI8reconf_cE17InstantiationInfoEEC2Ev
FN:81,_ZN9__gnu_cxx13new_allocatorIN4opae7testing11test_deviceEEC2ERKS4_
FN:81,_ZN9__gnu_cxx13new_allocatorIcEC2ERKS1_
FN:81,_ZN9__gnu_cxx13new_allocatorISsEC2ERKS1_
FN:86,_ZN9__gnu_cxx13new_allocatorIN4opae7testing11test_deviceEED2Ev
FN:86,_ZN9__gnu_cxx13new_allocatorIcED2Ev
FN:86,_ZN9__gnu_cxx13new_allocatorIN7testing8internal25ParameterizedTestCaseInfoI8reconf_cE17InstantiationInfoEED2Ev
FN:86,_ZN9__gnu_cxx13new_allocatorIN7testing8internal10linked_ptrINS2_25ParameterizedTestCaseInfoI8reconf_cE8TestInfoEEEED2Ev
FN:86,_ZN9__gnu_cxx13new_allocatorISt13_Rb_tree_nodeISsEED2Ev
FN:86,_ZN9__gnu_cxx13new_allocatorISsED2Ev
FN:99,_ZN9__gnu_cxx13new_allocatorIPN7testing8internal29ParameterizedTestCaseInfoBaseEE8allocateEmPKv
FN:99,_ZN9__gnu_cxx13new_allocatorIN7testing8internal10linked_ptrINS2_25ParameterizedTestCaseInfoI8reconf_cE8TestInfoEEEE8allocateEmPKv
FN:99,_ZN9__gnu_cxx13new_allocatorIN7testing8internal25ParameterizedTestCaseInfoI8reconf_cE17InstantiationInfoEE8allocateEmPKv
FN:99,_ZN9__gnu_cxx13new_allocatorISsE8allocateEmPKv
FN:99,_ZN9__gnu_cxx13new_allocatorISt13_Rb_tree_nodeISsEE8allocateEmPKv
FN:109,_ZN9__gnu_cxx13new_allocatorIN4opae7testing11test_deviceEE10deallocateEPS3_m
FN:109,_ZN9__gnu_cxx13new_allocatorISsE10deallocateEPSsm
FN:109,_ZN9__gnu_cxx13new_allocatorIPN7testing8internal29ParameterizedTestCaseInfoBaseEE10deallocateEPS4_m
FN:109,_ZN9__gnu_cxx13new_allocatorISt13_Rb_tree_nodeISsEE10deallocateEPS2_m
FN:109,_ZN9__gnu_cxx13new_allocatorIN7testing8internal25ParameterizedTestCaseInfoI8reconf_cE17InstantiationInfoEE10deallocateEPS6_m
FN:109,_ZN9__gnu_cxx13new_allocatorIN7testing8internal10linked_ptrINS2_25ParameterizedTestCaseInfoI8reconf_cE8TestInfoEEEE10deallocateEPS8_m
FN:113,_ZNK9__gnu_cxx13new_allocatorISsE8max_sizeEv
FN:113,_ZNK9__gnu_cxx13new_allocatorIN7testing8internal10linked_ptrINS2_25ParameterizedTestCaseInfoI8reconf_cE8TestInfoEEEE8max_sizeEv
FN:113,_ZNK9__gnu_cxx13new_allocatorIN7testing8internal25ParameterizedTestCaseInfoI8reconf_cE17InstantiationInfoEE8max_sizeEv
FN:113,_ZNK9__gnu_cxx13new_allocatorISt13_Rb_tree_nodeISsEE8max_sizeEv
FN:113,_ZNK9__gnu_cxx13new_allocatorIPN7testing8internal29ParameterizedTestCaseInfoBaseEE8max_sizeEv
FN:119,_ZN9__gnu_cxx13new_allocatorIN7testing8internal10linked_ptrINS2_25ParameterizedTestCaseInfoI8reconf_cE8TestInfoEEEE9constructIS8_IS8_EEEvPT_DpOT0_
FN:119,_ZN9__gnu_cxx13new_allocatorIPN7testing8internal29ParameterizedTestCaseInfoBaseEE9constructIS4_IS4_EEEvPT_DpOT0_
FN:119,_ZN9__gnu_cxx13new_allocatorISt13_Rb_tree_nodeISsEE9constructIS2_IRKSsEEEvPT_DpOT0_
FN:119,_ZN9__gnu_cxx13new_allocatorIN7testing8internal25ParameterizedTestCaseInfoI8reconf_cE17InstantiationInfoEE9constructIS6_IS6_EEEvPT_DpOT0_
FN:124,_ZN9__gnu_cxx13new_allocatorISt13_Rb_tree_nodeISsEE7destroyIS2_EEvPT_
FN:124,_ZN9__gnu_cxx13new_allocatorIN7testing8internal10linked_ptrINS2_25ParameterizedTestCaseInfoI8reconf_cE8TestInfoEEEE7destroyIS8_EEvPT_
FN:124,_ZN9__gnu_cxx13new_allocatorIN7testing8internal25ParameterizedTestCaseInfoI8reconf_cE17InstantiationInfoEE7destroyIS6_EEvPT_
FN:124,_ZN9__gnu_cxx13new_allocatorIPN7testing8internal29ParameterizedTestCaseInfoBaseEE7destroyIS4_EEvPT_
FNDA:3,_ZN9__gnu_cxx13new_allocatorISt13_Rb_tree_nodeISsEEC2Ev
FNDA:1,_ZN9__gnu_cxx13new_allocatorIN7testing8internal25ParameterizedTestCaseInfoI8reconf_cE17InstantiationInfoEEC2Ev
FNDA:1,_ZN9__gnu_cxx13new_allocatorIN7testing8internal10linked_ptrINS2_25ParameterizedTestCaseInfoI8reconf_cE8TestInfoEEEEC2Ev
FNDA:20047,_ZN9__gnu_cxx13new_allocatorISsEC2Ev
FNDA:4,_ZN9__gnu_cxx13new_allocatorIN4opae7testing11test_deviceEEC2Ev
FNDA:0,_ZN9__gnu_cxx13new_allocatorIcEC2Ev
FNDA:40082,_ZN9__gnu_cxx13new_allocatorISsEC2ERKS1_
FNDA:22,_ZN9__gnu_cxx13new_allocatorIN4opae7testing11test_deviceEEC2ERKS4_
FNDA:0,_ZN9__gnu_cxx13new_allocatorIcEC2ERKS1_
FNDA:3,_ZN9__gnu_cxx13new_allocatorISt13_Rb_tree_nodeISsEED2Ev
FNDA:1,_ZN9__gnu_cxx13new_allocatorIN7testing8internal25ParameterizedTestCaseInfoI8reconf_cE17InstantiationInfoEED2Ev
FNDA:1,_ZN9__gnu_cxx13new_allocatorIN7testing8internal10linked_ptrINS2_25ParameterizedTestCaseInfoI8reconf_cE8TestInfoEEEED2Ev
FNDA:60128,_ZN9__gnu_cxx13new_allocatorISsED2Ev
FNDA:25,_ZN9__gnu_cxx13new_allocatorIN4opae7testing11test_deviceEED2Ev
FNDA:0,_ZN9__gnu_cxx13new_allocatorIcED2Ev
FNDA:3,_ZN9__gnu_cxx13new_allocatorISt13_Rb_tree_nodeISsEE8allocateEmPKv
FNDA:60123,_ZN9__gnu_cxx13new_allocatorISsE8allocateEmPKv
FNDA:1,_ZN9__gnu_cxx13new_allocatorIN7testing8internal25ParameterizedTestCaseInfoI8reconf_cE17InstantiationInfoEE8allocateEmPKv
FNDA:3,_ZN9__gnu_cxx13new_allocatorIN7testing8internal10linked_ptrINS2_25ParameterizedTestCaseInfoI8reconf_cE8TestInfoEEEE8allocateEmPKv
FNDA:1,_ZN9__gnu_cxx13new_allocatorIPN7testing8internal29ParameterizedTestCaseInfoBaseEE8allocateEmPKv
FNDA:3,_ZN9__gnu_cxx13new_allocatorISt13_Rb_tree_nodeISsEE10deallocateEPS2_m
FNDA:1,_ZN9__gnu_cxx13new_allocatorIN7testing8internal25ParameterizedTestCaseInfoI8reconf_cE17InstantiationInfoEE10deallocateEPS6_m
FNDA:3,_ZN9__gnu_cxx13new_allocatorIN7testing8internal10linked_ptrINS2_25ParameterizedTestCaseInfoI8reconf_cE8TestInfoEEEE10deallocateEPS8_m
FNDA:60122,_ZN9__gnu_cxx13new_allocatorISsE10deallocateEPSsm
FNDA:7,_ZN9__gnu_cxx13new_allocatorIN4opae7testing11test_deviceEE10deallocateEPS3_m
FNDA:1,_ZN9__gnu_cxx13new_allocatorIPN7testing8internal29ParameterizedTestCaseInfoBaseEE10deallocateEPS4_m
FNDA:3,_ZNK9__gnu_cxx13new_allocatorISt13_Rb_tree_nodeISsEE8max_sizeEv
FNDA:140281,_ZNK9__gnu_cxx13new_allocatorISsE8max_sizeEv
FNDA:3,_ZNK9__gnu_cxx13new_allocatorIN7testing8internal25ParameterizedTestCaseInfoI8reconf_cE17InstantiationInfoEE8max_sizeEv
FNDA:9,_ZNK9__gnu_cxx13new_allocatorIN7testing8internal10linked_ptrINS2_25ParameterizedTestCaseInfoI8reconf_cE8TestInfoEEEE8max_sizeEv
FNDA:3,_ZNK9__gnu_cxx13new_allocatorIPN7testing8internal29ParameterizedTestCaseInfoBaseEE8max_sizeEv
FNDA:3,_ZN9__gnu_cxx13new_allocatorISt13_Rb_tree_nodeISsEE9constructIS2_IRKSsEEEvPT_DpOT0_
FNDA:1,_ZN9__gnu_cxx13new_allocatorIN7testing8internal25ParameterizedTestCaseInfoI8reconf_cE17InstantiationInfoEE9constructIS6_IS6_EEEvPT_DpOT0_
FNDA:3,_ZN9__gnu_cxx13new_allocatorIN7testing8internal10linked_ptrINS2_25ParameterizedTestCaseInfoI8reconf_cE8TestInfoEEEE9constructIS8_IS8_EEEvPT_DpOT0_
FNDA:1,_ZN9__gnu_cxx13new_allocatorIPN7testing8internal29ParameterizedTestCaseInfoBaseEE9constructIS4_IS4_EEEvPT_DpOT0_
FNDA:3,_ZN9__gnu_cxx13new_allocatorISt13_Rb_tree_nodeISsEE7destroyIS2_EEvPT_
FNDA:0,_ZN9__gnu_cxx13new_allocatorIN7testing8internal25ParameterizedTestCaseInfoI8reconf_cE17InstantiationInfoEE7destroyIS6_EEvPT_
FNDA:0,_ZN9__gnu_cxx13new_allocatorIN7testing8internal10linked_ptrINS2_25ParameterizedTestCaseInfoI8reconf_cE8TestInfoEEEE7destroyIS8_EEvPT_
FNDA:0,_ZN9__gnu_cxx13new_allocatorIPN7testing8internal29ParameterizedTestCaseInfoBaseEE7destroyIS4_EEvPT_
FNF:39
FNH:33
DA:79,20056
DA:81,40104
DA:86,60158
DA:99,60131
DA:101,60131
DA:102,0
DA:104,60131
DA:109,60137
DA:110,60137
DA:113,140299
DA:114,140299
DA:119,8
DA:120,8
DA:124,3
LF:14
LH:13
end_of_record
SF:/usr/include/c++/4.8/ext/type_traits.h
FN:150,_ZN9__gnu_cxx17__is_null_pointerIcEEbPT_
FNDA:0,_ZN9__gnu_cxx17__is_null_pointerIcEEbPT_
FNF:1
FNH:0
DA:150,0
DA:151,0
LF:2
LH:0
end_of_record
SF:/usr/include/c++/4.8/iostream
DA:74,1
LF:1
LH:1
end_of_record
SF:/usr/include/c++/4.8/new
FN:109,_ZnwmPv
FN:115,_ZdlPvS_
FNDA:100248,_ZnwmPv
FNDA:0,_ZdlPvS_
FNF:2
FNH:1
DA:109,100248
DA:110,100248
DA:115,0
LF:3
LH:2
end_of_record
SF:/usr/include/c++/4.8/sstream
FN:64,_ZNSt15basic_stringbufIcSt11char_traitsIcESaIcEED0Ev
FN:64,_ZNSt15basic_stringbufIcSt11char_traitsIcESaIcEED2Ev
FNDA:0,_ZNSt15basic_stringbufIcSt11char_traitsIcESaIcEED0Ev
FNDA:0,_ZNSt15basic_stringbufIcSt11char_traitsIcESaIcEED2Ev
FNF:2
FNH:0
DA:64,0
LF:1
LH:0
end_of_record
SF:/usr/include/c++/4.8/typeinfo
FN:120,_ZNKSt9type_infoeqERKS_
FNDA:9,_ZNKSt9type_infoeqERKS_
FNF:1
FNH:1
DA:120,9
DA:122,9
DA:123,9
DA:124,9
LF:4
LH:4
end_of_record
SF:/usr/include/x86_64-linux-gnu/c++/4.8/bits/gthr-default.h
FN:247,_ZL18__gthread_active_pv
FNDA:0,_ZL18__gthread_active_pv
FNF:1
FNH:0
DA:247,0
DA:251,0
LF:2
LH:0
end_of_record
SF:/usr/local/include/gtest/gtest-message.h
FN:85,_ZN7testing7MessageD2Ev
FN:115,_ZN7testing7MessagelsIA12_cEERS0_RKT_
FN:115,_ZN7testing7MessagelsImEERS0_RKT_
FN:115,_ZN7testing7MessagelsIA5_cEERS0_RKT_
FN:115,_ZN7testing7MessagelsISsEERS0_RKT_
FN:115,_ZN7testing7MessagelsIA2_cEERS0_RKT_
FN:115,_ZN7testing7MessagelsIA3_cEERS0_RKT_
FN:149,_ZN7testing7MessagelsIKcEERS0_RKPT_
FNDA:51,_ZN7testing7MessageD2Ev
FNDA:3,_ZN7testing7MessagelsIA2_cEERS0_RKT_
FNDA:0,_ZN7testing7MessagelsIA5_cEERS0_RKT_
FNDA:6,_ZN7testing7MessagelsISsEERS0_RKT_
FNDA:0,_ZN7testing7MessagelsIA3_cEERS0_RKT_
FNDA:0,_ZN7testing7MessagelsIA12_cEERS0_RKT_
FNDA:3,_ZN7testing7MessagelsImEERS0_RKT_
FNDA:16,_ZN7testing7MessagelsIKcEERS0_RKPT_
FNF:8
FNH:5
DA:85,51
DA:115,12
DA:131,12
DA:132,12
DA:149,16
DA:150,16
DA:151,0
DA:153,16
DA:155,16
LF:9
LH:8
end_of_record
SF:/usr/local/include/gtest/gtest-param-test.h
FN:310,_ZN7testing8ValuesInIN9__gnu_cxx17__normal_iteratorIPKSsSt6vectorISsSaISsEEEEEENS_8internal14ParamGeneratorINS9_14IteratorTraitsIT_E10value_typeEEESC_SC_
FN:323,_ZN7testing8ValuesInISt6vectorISsSaISsEEEENS_8internal14ParamGeneratorINT_10value_typeEEERKS6_
FNDA:3,_ZN7testing8ValuesInIN9__gnu_cxx17__normal_iteratorIPKSsSt6vectorISsSaISsEEEEEENS_8internal14ParamGeneratorINS9_14IteratorTraitsIT_E10value_typeEEESC_SC_
FNDA:3,_ZN7testing8ValuesInISt6vectorISsSaISsEEEENS_8internal14ParamGeneratorINT_10value_typeEEERKS6_
FNF:2
FNH:2
DA:310,3
DA:314,3
DA:323,3
DA:325,3
LF:4
LH:4
end_of_record
SF:/usr/local/include/gtest/gtest-printers.h
FN:172,_ZN7testing9internal220TypeWithoutFormatterI11fpga_resultLNS0_8TypeKindE1EE10PrintValueERKS2_PSo
FN:203,_ZN7testing9internal2lsIcSt11char_traitsIcE11fpga_resultEERSt13basic_ostreamIT_T0_ES9_RKT1_
FN:222,_ZN16testing_internal26DefaultPrintNonContainerToI11fpga_resultEEvRKT_PSo
FN:275,_ZN7testing8internal19FormatForComparisonI11fpga_resultS2_E6FormatERKS2_
FN:349,_ZN7testing8internal33FormatForComparisonFailureMessageI11fpga_resultS2_EESsRKT_RKT0_
FN:442,_ZN7testing8internal14DefaultPrintToI11fpga_resultEEvNS0_15WrapPrinterTypeILNS0_18DefaultPrinterTypeE3EEERKT_PSo
FN:459,_ZN7testing8internal7PrintToI11fpga_resultEEvRKT_PSo
FN:578,_ZN7testing8internal7PrintToERKSsPSo
FN:711,_ZN7testing8internal16UniversalPrinterI11fpga_resultE5PrintERKS2_PSo
FN:711,_ZN7testing8internal16UniversalPrinterISsE5PrintERKSsPSo
FN:796,_ZN7testing8internal21UniversalTersePrinterISsE5PrintERKSsPSo
FN:796,_ZN7testing8internal21UniversalTersePrinterI11fpga_resultE5PrintERKS2_PSo
FN:865,_ZN7testing8internal14UniversalPrintI11fpga_resultEEvRKT_PSo
FN:865,_ZN7testing8internal14UniversalPrintISsEEvRKT_PSo
FN:993,_ZN7testing13PrintToStringI11fpga_resultEESsRKT_
FN:993,_ZN7testing13PrintToStringISsEESsRKT_
FNDA:0,_ZN7testing9internal220TypeWithoutFormatterI11fpga_resultLNS0_8TypeKindE1EE10PrintValueERKS2_PSo
FNDA:0,_ZN7testing9internal2lsIcSt11char_traitsIcE11fpga_resultEERSt13basic_ostreamIT_T0_ES9_RKT1_
FNDA:0,_ZN16testing_internal26DefaultPrintNonContainerToI11fpga_resultEEvRKT_PSo
FNDA:0,_ZN7testing8internal19FormatForComparisonI11fpga_resultS2_E6FormatERKS2_
FNDA:0,_ZN7testing8internal33FormatForComparisonFailureMessageI11fpga_resultS2_EESsRKT_RKT0_
FNDA:0,_ZN7testing8internal14DefaultPrintToI11fpga_resultEEvNS0_15WrapPrinterTypeILNS0_18DefaultPrinterTypeE3EEERKT_PSo
FNDA:0,_ZN7testing8internal7PrintToI11fpga_resultEEvRKT_PSo
FNDA:3,_ZN7testing8internal7PrintToERKSsPSo
FNDA:0,_ZN7testing8internal16UniversalPrinterI11fpga_resultE5PrintERKS2_PSo
FNDA:3,_ZN7testing8internal16UniversalPrinterISsE5PrintERKSsPSo
FNDA:3,_ZN7testing8internal21UniversalTersePrinterISsE5PrintERKSsPSo
FNDA:0,_ZN7testing8internal21UniversalTersePrinterI11fpga_resultE5PrintERKS2_PSo
FNDA:0,_ZN7testing8internal14UniversalPrintI11fpga_resultEEvRKT_PSo
FNDA:3,_ZN7testing8internal14UniversalPrintISsEEvRKT_PSo
FNDA:3,_ZN7testing13PrintToStringISsEESsRKT_
FNDA:0,_ZN7testing13PrintToStringI11fpga_resultEESsRKT_
FNF:16
FNH:5
DA:172,0
DA:173,0
DA:174,0
DA:175,0
DA:203,0
DA:205,0
DA:209,0
DA:222,0
DA:249,0
DA:250,0
DA:275,0
DA:276,0
DA:349,0
DA:351,0
DA:442,0
DA:444,0
DA:445,0
DA:459,0
DA:479,0
DA:490,0
DA:491,0
DA:578,3
DA:579,3
DA:580,3
DA:711,3
DA:720,3
DA:721,3
DA:796,3
DA:797,3
DA:798,3
DA:865,3
DA:869,3
DA:870,3
DA:993,3
DA:994,3
DA:995,3
DA:996,3
LF:37
LH:16
end_of_record
SF:/usr/local/include/gtest/gtest.h
FN:256,_ZN7testing15AssertionResultD2Ev
FN:272,_ZN7testing15AssertionResultC2IbEERKT_PNS_8internal8EnableIfIXntsrNS5_21ImplicitlyConvertibleIS2_S0_EE5valueEE4typeE
FN:288,_ZNK7testing15AssertionResultcvbEv
FN:297,_ZNK7testing15AssertionResult7messageEv
FN:302,_ZNK7testing15AssertionResult15failure_messageEv
FN:305,_ZN7testing15AssertionResultlsIA3_cEERS0_RKT_
FN:305,_ZN7testing15AssertionResultlsIPKcEERS0_RKT_
FN:305,_ZN7testing15AssertionResultlsIA12_cEERS0_RKT_
FN:305,_ZN7testing15AssertionResultlsIA5_cEERS0_RKT_
FN:305,_ZN7testing15AssertionResultlsISsEERS0_RKT_
FN:320,_ZN7testing15AssertionResult13AppendMessageERKNS_7MessageE
FN:389,_ZN7testing4Test13SetUpTestCaseEv
FN:397,_ZN7testing4Test16TearDownTestCaseEv
FN:474,_ZN7testing4Test5SetupEv
FN:1375,_ZN7testing8internal18CmpHelperEQFailureI11fpga_resultS2_EENS_15AssertionResultEPKcS5_RKT_RKT0_
FN:1387,_ZN7testing8internal11CmpHelperEQI11fpga_resultS2_EENS_15AssertionResultEPKcS5_RKT_RKT0_
FN:1417,_ZN7testing8internal8EqHelperILb0EE7CompareI11fpga_resultS4_EENS_15AssertionResultEPKcS7_RKT_RKT0_
FN:1486,_ZN7testing8internal18CmpHelperOpFailureI11fpga_resultS2_EENS_15AssertionResultEPKcS5_RKT_RKT0_S5_
FN:1522,_ZN7testing8internal11CmpHelperNEI11fpga_resultS2_EENS_15AssertionResultEPKcS5_RKT_RKT0_
FN:1745,_ZN7testing18WithParamInterfaceISsEC2Ev
FN:1748,_ZN7testing18WithParamInterfaceISsED2Ev
FN:1748,_ZN7testing18WithParamInterfaceISsED0Ev
FN:1755,_ZNK7testing18WithParamInterfaceISsE8GetParamEv
FN:1765,_ZN7testing18WithParamInterfaceISsE8SetParamEPKSs
FN:1783,_ZN7testing13TestWithParamISsED2Ev
FN:1783,_ZN7testing13TestWithParamISsED0Ev
FN:1783,_ZN7testing13TestWithParamISsEC2Ev
FNDA:28,_ZN7testing15AssertionResultD2Ev
FNDA:28,_ZN7testing15AssertionResultC2IbEERKT_PNS_8internal8EnableIfIXntsrNS5_21ImplicitlyConvertibleIS2_S0_EE5valueEE4typeE
FNDA:28,_ZNK7testing15AssertionResultcvbEv
FNDA:0,_ZNK7testing15AssertionResult7messageEv
FNDA:0,_ZNK7testing15AssertionResult15failure_messageEv
FNDA:0,_ZN7testing15AssertionResultlsIA5_cEERS0_RKT_
FNDA:0,_ZN7testing15AssertionResultlsISsEERS0_RKT_
FNDA:0,_ZN7testing15AssertionResultlsIA3_cEERS0_RKT_
FNDA:0,_ZN7testing15AssertionResultlsIPKcEERS0_RKT_
FNDA:0,_ZN7testing15AssertionResultlsIA12_cEERS0_RKT_
FNDA:0,_ZN7testing15AssertionResult13AppendMessageERKNS_7MessageE
FNDA:1,_ZN7testing4Test13SetUpTestCaseEv
FNDA:1,_ZN7testing4Test16TearDownTestCaseEv
FNDA:0,_ZN7testing4Test5SetupEv
FNDA:0,_ZN7testing8internal18CmpHelperEQFailureI11fpga_resultS2_EENS_15AssertionResultEPKcS5_RKT_RKT0_
FNDA:20,_ZN7testing8internal11CmpHelperEQI11fpga_resultS2_EENS_15AssertionResultEPKcS5_RKT_RKT0_
FNDA:20,_ZN7testing8internal8EqHelperILb0EE7CompareI11fpga_resultS4_EENS_15AssertionResultEPKcS7_RKT_RKT0_
FNDA:0,_ZN7testing8internal18CmpHelperOpFailureI11fpga_resultS2_EENS_15AssertionResultEPKcS5_RKT_RKT0_S5_
FNDA:5,_ZN7testing8internal11CmpHelperNEI11fpga_resultS2_EENS_15AssertionResultEPKcS5_RKT_RKT0_
FNDA:3,_ZN7testing18WithParamInterfaceISsEC2Ev
FNDA:0,_ZN7testing18WithParamInterfaceISsED0Ev
FNDA:3,_ZN7testing18WithParamInterfaceISsED2Ev
FNDA:6,_ZNK7testing18WithParamInterfaceISsE8GetParamEv
FNDA:3,_ZN7testing18WithParamInterfaceISsE8SetParamEPKSs
FNDA:0,_ZN7testing13TestWithParamISsED0Ev
FNDA:3,_ZN7testing13TestWithParamISsED2Ev
FNDA:3,_ZN7testing13TestWithParamISsEC2Ev
FNF:27
FNH:14
DA:256,28
DA:272,28
DA:277,28
DA:288,28
DA:297,0
DA:298,0
DA:302,0
DA:305,0
DA:306,0
DA:307,0
DA:320,0
DA:321,0
DA:322,0
DA:323,0
DA:324,0
DA:389,1
DA:397,1
DA:474,0
DA:1375,0
DA:1382,0
DA:1387,20
DA:1392,20
DA:1393,20
DA:1397,0
DA:1417,20
DA:1421,20
DA:1486,0
DA:1490,0
DA:1491,0
DA:1492,0
DA:1522,5
DA:1745,3
DA:1748,3
DA:1755,6
DA:1756,6
DA:1757,0
DA:1759,6
DA:1765,3
DA:1766,3
DA:1767,3
DA:1783,6
LF:41
LH:21
end_of_record
SF:/usr/local/include/gtest/internal/gtest-internal.h
FN:447,_ZN7testing8internal9GetTypeIdI8reconf_cEEPKvv
FN:466,_ZN7testing8internal15TestFactoryBaseD2Ev
FN:466,_ZN7testing8internal15TestFactoryBaseD0Ev
FN:473,_ZN7testing8internal15TestFactoryBaseC2Ev
FN:504,_ZN7testing8internal12CodeLocationD2Ev
FN:504,_ZN7testing8internal12CodeLocationC2ERKS1_
FN:505,_ZN7testing8internal12CodeLocationC2ERKSsi
FNDA:9,_ZN7testing8internal9GetTypeIdI8reconf_cEEPKvv
FNDA:0,_ZN7testing8internal15TestFactoryBaseD0Ev
FNDA:3,_ZN7testing8internal15TestFactoryBaseD2Ev
FNDA:3,_ZN7testing8internal15TestFactoryBaseC2Ev
FNDA:11,_ZN7testing8internal12CodeLocationC2ERKS1_
FNDA:15,_ZN7testing8internal12CodeLocationD2Ev
FNDA:4,_ZN7testing8internal12CodeLocationC2ERKSsi
FNF:7
FNH:6
DA:447,9
DA:452,9
DA:466,3
DA:473,3
DA:504,26
DA:505,4
DA:506,4
LF:7
LH:7
end_of_record
SF:/usr/local/include/gtest/internal/gtest-linked_ptr.h
FN:92,_ZN7testing8internal19linked_ptr_internal8join_newEv
FN:108,_ZN7testing8internal19linked_ptr_internal4joinEPKS1_
FN:125,_ZN7testing8internal19linked_ptr_internal6departEv
FN:152,_ZN7testing8internal10linked_ptrIKNS0_23ParamGeneratorInterfaceISsEEEC2EPS4_
FN:152,_ZN7testing8internal10linked_ptrINS0_25ParameterizedTestCaseInfoI8reconf_cE8TestInfoEEC2EPS5_
FN:153,_ZN7testing8internal10linked_ptrIKNS0_23ParamGeneratorInterfaceISsEEED2Ev
FN:153,_ZN7testing8internal10linked_ptrINS0_25ParameterizedTestCaseInfoI8reconf_cE8TestInfoEED2Ev
FN:157,_ZN7testing8internal10linked_ptrINS0_25ParameterizedTestCaseInfoI8reconf_cE8TestInfoEEC2ERKS6_
FN:182,_ZNK7testing8internal10linked_ptrINS0_25ParameterizedTestCaseInfoI8reconf_cE8TestInfoEE3getEv
FN:183,_ZNK7testing8internal10linked_ptrIKNS0_23ParamGeneratorInterfaceISsEEEptEv
FN:183,_ZNK7testing8internal10linked_ptrINS0_25ParameterizedTestCaseInfoI8reconf_cE8TestInfoEEptEv
FN:204,_ZN7testing8internal10linked_ptrIKNS0_23ParamGeneratorInterfaceISsEEE6departEv
FN:204,_ZN7testing8internal10linked_ptrINS0_25ParameterizedTestCaseInfoI8reconf_cE8TestInfoEE6departEv
FN:208,_ZN7testing8internal10linked_ptrIKNS0_23ParamGeneratorInterfaceISsEEE7captureEPS4_
FN:208,_ZN7testing8internal10linked_ptrINS0_25ParameterizedTestCaseInfoI8reconf_cE8TestInfoEE7captureEPS5_
FN:213,_ZN7testing8internal10linked_ptrINS0_25ParameterizedTestCaseInfoI8reconf_cE8TestInfoEE4copyIS5_EEvPKNS1_IT_EE
FNDA:6,_ZN7testing8internal19linked_ptr_internal8join_newEv
FNDA:9,_ZN7testing8internal19linked_ptr_internal4joinEPKS1_
FNDA:15,_ZN7testing8internal19linked_ptr_internal6departEv
FNDA:3,_ZN7testing8internal10linked_ptrIKNS0_23ParamGeneratorInterfaceISsEEEC2EPS4_
FNDA:3,_ZN7testing8internal10linked_ptrINS0_25ParameterizedTestCaseInfoI8reconf_cE8TestInfoEEC2EPS5_
FNDA:12,_ZN7testing8internal10linked_ptrINS0_25ParameterizedTestCaseInfoI8reconf_cE8TestInfoEED2Ev
FNDA:3,_ZN7testing8internal10linked_ptrIKNS0_23ParamGeneratorInterfaceISsEEED2Ev
FNDA:9,_ZN7testing8internal10linked_ptrINS0_25ParameterizedTestCaseInfoI8reconf_cE8TestInfoEEC2ERKS6_
FNDA:9,_ZNK7testing8internal10linked_ptrINS0_25ParameterizedTestCaseInfoI8reconf_cE8TestInfoEE3getEv
FNDA:9,_ZNK7testing8internal10linked_ptrIKNS0_23ParamGeneratorInterfaceISsEEEptEv
FNDA:9,_ZNK7testing8internal10linked_ptrINS0_25ParameterizedTestCaseInfoI8reconf_cE8TestInfoEEptEv
FNDA:12,_ZN7testing8internal10linked_ptrINS0_25ParameterizedTestCaseInfoI8reconf_cE8TestInfoEE6departEv
FNDA:3,_ZN7testing8internal10linked_ptrIKNS0_23ParamGeneratorInterfaceISsEEE6departEv
FNDA:3,_ZN7testing8internal10linked_ptrIKNS0_23ParamGeneratorInterfaceISsEEE7captureEPS4_
FNDA:3,_ZN7testing8internal10linked_ptrINS0_25ParameterizedTestCaseInfoI8reconf_cE8TestInfoEE7captureEPS5_
FNDA:9,_ZN7testing8internal10linked_ptrINS0_25ParameterizedTestCaseInfoI8reconf_cE8TestInfoEE4copyIS5_EEvPKNS1_IT_EE
FNF:16
FNH:16
DA:92,6
DA:93,6
DA:94,6
DA:108,9
DA:110,9
DA:112,9
DA:113,18
DA:114,0
DA:116,0
DA:117,0
DA:119,9
DA:120,9
DA:121,9
DA:125,15
DA:127,15
DA:129,15
DA:130,9
DA:131,18
DA:132,0
DA:134,0
DA:135,0
DA:137,9
DA:138,9
DA:152,6
DA:153,15
DA:157,9
DA:158,9
DA:159,9
DA:160,9
DA:182,9
DA:183,18
DA:204,15
DA:205,15
DA:206,15
DA:208,6
DA:209,6
DA:210,6
DA:211,6
DA:213,9
DA:214,9
DA:215,9
DA:216,9
DA:218,0
DA:219,9
LF:44
LH:37
end_of_record
SF:/usr/local/include/gtest/internal/gtest-param-util.h
FN:59,_ZN7testing13TestParamInfoISsED2Ev
FN:60,_ZN7testing13TestParamInfoISsEC2ERKSsm
FN:93,_ZN7testing8internal22ParamIteratorInterfaceISsEC2Ev
FN:95,_ZN7testing8internal22ParamIteratorInterfaceISsED0Ev
FN:95,_ZN7testing8internal22ParamIteratorInterfaceISsED2Ev
FN:123,_ZN7testing8internal13ParamIteratorISsED2Ev
FN:137,_ZNK7testing8internal13ParamIteratorISsEdeEv
FN:140,_ZN7testing8internal13ParamIteratorISsEppEv
FN:150,_ZNK7testing8internal13ParamIteratorISsEeqERKS2_
FN:153,_ZNK7testing8internal13ParamIteratorISsEneERKS2_
FN:159,_ZN7testing8internal13ParamIteratorISsEC2EPNS0_22ParamIteratorInterfaceISsEE
FN:166,_ZN7testing8internal23ParamGeneratorInterfaceISsEC2Ev
FN:170,_ZN7testing8internal23ParamGeneratorInterfaceISsED2Ev
FN:170,_ZN7testing8internal23ParamGeneratorInterfaceISsED0Ev
FN:183,_ZN7testing8internal14ParamGeneratorISsED2Ev
FN:187,_ZN7testing8internal14ParamGeneratorISsEC2EPNS0_23ParamGeneratorInterfaceISsEE
FN:195,_ZNK7testing8internal14ParamGeneratorISsE5beginEv
FN:196,_ZNK7testing8internal14ParamGeneratorISsE3endEv
FN:295,_ZN7testing8internal30ValuesInIteratorRangeGeneratorISsEC2IN9__gnu_cxx17__normal_iteratorIPKSsSt6vectorISsSaISsEEEEEET_SC_
FN:297,_ZN7testing8internal30ValuesInIteratorRangeGeneratorISsED2Ev
FN:297,_ZN7testing8internal30ValuesInIteratorRangeGeneratorISsED0Ev
FN:299,_ZNK7testing8internal30ValuesInIteratorRangeGeneratorISsE5BeginEv
FN:302,_ZNK7testing8internal30ValuesInIteratorRangeGeneratorISsE3EndEv
FN:311,_ZN7testing8internal30ValuesInIteratorRangeGeneratorISsE8IteratorC2EPKNS0_23ParamGeneratorInterfaceISsEEN9__gnu_cxx17__normal_iteratorIPKSsSt6vectorISsSaISsEEEE
FN:314,_ZN7testing8internal30ValuesInIteratorRangeGeneratorISsE8IteratorD2Ev
FN:314,_ZN7testing8internal30ValuesInIteratorRangeGeneratorISsE8IteratorD0Ev
FN:316,_ZNK7testing8internal30ValuesInIteratorRangeGeneratorISsE8Iterator13BaseGeneratorEv
FN:319,_ZN7testing8internal30ValuesInIteratorRangeGeneratorISsE8Iterator7AdvanceEv
FN:323,_ZNK7testing8internal30ValuesInIteratorRangeGeneratorISsE8Iterator5CloneEv
FN:333,_ZNK7testing8internal30ValuesInIteratorRangeGeneratorISsE8Iterator7CurrentEv
FN:338,_ZNK7testing8internal30ValuesInIteratorRangeGeneratorISsE8Iterator6EqualsERKNS0_22ParamIteratorInterfaceISsEE
FN:349,_ZN7testing8internal30ValuesInIteratorRangeGeneratorISsE8IteratorC2ERKS3_
FN:377,_ZN7testing8internal16DefaultParamNameISsEESsRKNS_13TestParamInfoIT_EE
FN:399,_ZN7testing8internal15GetParamNameGenISsEEPNS0_16ParamNameGenFuncIT_E4TypeEv
FN:408,_ZN7testing8internal24ParameterizedTestFactoryI27reconf_c_gbs_reconf_02_TestED2Ev
FN:408,_ZN7testing8internal24ParameterizedTestFactoryI30reconf_c_gbs_reconf_slots_TestED2Ev
FN:408,_ZN7testing8internal24ParameterizedTestFactoryI27reconf_c_gbs_reconf_02_TestED0Ev
FN:408,_ZN7testing8internal24ParameterizedTestFactoryI27reconf_c_gbs_reconf_01_TestED0Ev
FN:408,_ZN7testing8internal24ParameterizedTestFactoryI30reconf_c_gbs_reconf_slots_TestED0Ev
FN:408,_ZN7testing8internal24ParameterizedTestFactoryI27reconf_c_gbs_reconf_01_TestED2Ev
FN:411,_ZN7testing8internal24ParameterizedTestFactoryI27reconf_c_gbs_reconf_02_TestEC2ESs
FN:411,_ZN7testing8internal24ParameterizedTestFactoryI30reconf_c_gbs_reconf_slots_TestEC2ESs
FN:411,_ZN7testing8internal24ParameterizedTestFactoryI27reconf_c_gbs_reconf_01_TestEC2ESs
FN:413,_ZN7testing8internal24ParameterizedTestFactoryI30reconf_c_gbs_reconf_slots_TestE10CreateTestEv
FN:413,_ZN7testing8internal24ParameterizedTestFactoryI27reconf_c_gbs_reconf_01_TestE10CreateTestEv
FN:413,_ZN7testing8internal24ParameterizedTestFactoryI27reconf_c_gbs_reconf_02_TestE10CreateTestEv
FN:429,_ZN7testing8internal19TestMetaFactoryBaseISsEC2Ev
FN:431,_ZN7testing8internal19TestMetaFactoryBaseISsED0Ev
FN:431,_ZN7testing8internal19TestMetaFactoryBaseISsED2Ev
FN:445,_ZN7testing8internal15TestMetaFactoryI30reconf_c_gbs_reconf_slots_TestED0Ev
FN:445,_ZN7testing8internal15TestMetaFactoryI27reconf_c_gbs_reconf_02_TestED0Ev
FN:445,_ZN7testing8internal15TestMetaFactoryI30reconf_c_gbs_reconf_slots_TestED2Ev
FN:445,_ZN7testing8internal15TestMetaFactoryI27reconf_c_gbs_reconf_01_TestED0Ev
FN:445,_ZN7testing8internal15TestMetaFactoryI27reconf_c_gbs_reconf_02_TestED2Ev
FN:445,_ZN7testing8internal15TestMetaFactoryI27reconf_c_gbs_reconf_01_TestED2Ev
FN:450,_ZN7testing8internal15TestMetaFactoryI30reconf_c_gbs_reconf_slots_TestEC2Ev
FN:450,_ZN7testing8internal15TestMetaFactoryI27reconf_c_gbs_reconf_01_TestEC2Ev
FN:450,_ZN7testing8internal15TestMetaFactoryI27reconf_c_gbs_reconf_02_TestEC2Ev
FN:452,_ZN7testing8internal15TestMetaFactoryI30reconf_c_gbs_reconf_slots_TestE17CreateTestFactoryESs
FN:452,_ZN7testing8internal15TestMetaFactoryI27reconf_c_gbs_reconf_02_TestE17CreateTestFactoryESs
FN:452,_ZN7testing8internal15TestMetaFactoryI27reconf_c_gbs_reconf_01_TestE17CreateTestFactoryESs
FN:472,_ZN7testing8internal29ParameterizedTestCaseInfoBaseD0Ev
FN:472,_ZN7testing8internal29ParameterizedTestCaseInfoBaseD2Ev
FN:485,_ZN7testing8internal29ParameterizedTestCaseInfoBaseC2Ev
FN:499,_ZN7testing8internal25ParameterizedTestCaseInfoI8reconf_cED2Ev
FN:499,_ZN7testing8internal25ParameterizedTestCaseInfoI8reconf_cED0Ev
FN:509,_ZN7testing8internal25ParameterizedTestCaseInfoI8reconf_cEC2EPKcNS0_12CodeLocationE
FN:514,_ZNK7testing8internal25ParameterizedTestCaseInfoI8reconf_cE15GetTestCaseNameEv
FN:516,_ZNK7testing8internal25ParameterizedTestCaseInfoI8reconf_cE17GetTestCaseTypeIdEv
FN:523,_ZN7testing8internal25ParameterizedTestCaseInfoI8reconf_cE14AddTestPatternEPKcS5_PNS0_19TestMetaFactoryBaseISsEE
FN:532,_ZN7testing8internal25ParameterizedTestCaseInfoI8reconf_cE24AddTestCaseInstantiationERKSsPFNS0_14ParamGeneratorISsEEvEPFSsRKNS_13TestParamInfoISsEEEPKci
FN:545,_ZN7testing8internal25ParameterizedTestCaseInfoI8reconf_cE13RegisterTestsEv
FN:603,_ZN7testing8internal25ParameterizedTestCaseInfoI8reconf_cE8TestInfoD2Ev
FN:604,_ZN7testing8internal25ParameterizedTestCaseInfoI8reconf_cE8TestInfoC2EPKcS6_PNS0_19TestMetaFactoryBaseISsEE
FN:619,_ZN7testing8internal25ParameterizedTestCaseInfoI8reconf_cE17InstantiationInfoD2Ev
FN:619,_ZN7testing8internal25ParameterizedTestCaseInfoI8reconf_cE17InstantiationInfoC2EOS4_
FN:620,_ZN7testing8internal25ParameterizedTestCaseInfoI8reconf_cE17InstantiationInfoC2ERKSsPFNS0_14ParamGeneratorISsEEvEPFSsRKNS_13TestParamInfoISsEEEPKci
FN:639,_ZN7testing8internal25ParameterizedTestCaseInfoI8reconf_cE16IsValidParamNameERKSs
FN:680,_ZN7testing8internal29ParameterizedTestCaseRegistry24GetTestCasePatternHolderI8reconf_cEEPNS0_25ParameterizedTestCaseInfoIT_EEPKcNS0_12CodeLocationE
FNDA:3,_ZN7testing13TestParamInfoISsED2Ev
FNDA:3,_ZN7testing13TestParamInfoISsEC2ERKSsm
FNDA:9,_ZN7testing8internal22ParamIteratorInterfaceISsEC2Ev
FNDA:0,_ZN7testing8internal22ParamIteratorInterfaceISsED0Ev
FNDA:9,_ZN7testing8internal22ParamIteratorInterfaceISsED2Ev
FNDA:9,_ZN7testing8internal13ParamIteratorISsED2Ev
FNDA:9,_ZNK7testing8internal13ParamIteratorISsEdeEv
FNDA:3,_ZN7testing8internal13ParamIteratorISsEppEv
FNDA:6,_ZNK7testing8internal13ParamIteratorISsEeqERKS2_
FNDA:6,_ZNK7testing8internal13ParamIteratorISsEneERKS2_
FNDA:9,_ZN7testing8internal13ParamIteratorISsEC2EPNS0_22ParamIteratorInterfaceISsEE
FNDA:3,_ZN7testing8internal23ParamGeneratorInterfaceISsEC2Ev
FNDA:0,_ZN7testing8internal23ParamGeneratorInterfaceISsED0Ev
FNDA:3,_ZN7testing8internal23ParamGeneratorInterfaceISsED2Ev
FNDA:3,_ZN7testing8internal14ParamGeneratorISsED2Ev
FNDA:3,_ZN7testing8internal14ParamGeneratorISsEC2EPNS0_23ParamGeneratorInterfaceISsEE
FNDA:3,_ZNK7testing8internal14ParamGeneratorISsE5beginEv
FNDA:6,_ZNK7testing8internal14ParamGeneratorISsE3endEv
FNDA:3,_ZN7testing8internal30ValuesInIteratorRangeGeneratorISsEC2IN9__gnu_cxx17__normal_iteratorIPKSsSt6vectorISsSaISsEEEEEET_SC_
FNDA:3,_ZN7testing8internal30ValuesInIteratorRangeGeneratorISsED0Ev
FNDA:3,_ZN7testing8internal30ValuesInIteratorRangeGeneratorISsED2Ev
FNDA:3,_ZNK7testing8internal30ValuesInIteratorRangeGeneratorISsE5BeginEv
FNDA:6,_ZNK7testing8internal30ValuesInIteratorRangeGeneratorISsE3EndEv
FNDA:9,_ZN7testing8internal30ValuesInIteratorRangeGeneratorISsE8IteratorC2EPKNS0_23ParamGeneratorInterfaceISsEEN9__gnu_cxx17__normal_iteratorIPKSsSt6vectorISsSaISsEEEE
FNDA:9,_ZN7testing8internal30ValuesInIteratorRangeGeneratorISsE8IteratorD0Ev
FNDA:9,_ZN7testing8internal30ValuesInIteratorRangeGeneratorISsE8IteratorD2Ev
FNDA:12,_ZNK7testing8internal30ValuesInIteratorRangeGeneratorISsE8Iterator13BaseGeneratorEv
FNDA:3,_ZN7testing8internal30ValuesInIteratorRangeGeneratorISsE8Iterator7AdvanceEv
FNDA:0,_ZNK7testing8internal30ValuesInIteratorRangeGeneratorISsE8Iterator5CloneEv
FNDA:9,_ZNK7testing8internal30ValuesInIteratorRangeGeneratorISsE8Iterator7CurrentEv
FNDA:6,_ZNK7testing8internal30ValuesInIteratorRangeGeneratorISsE8Iterator6EqualsERKNS0_22ParamIteratorInterfaceISsEE
FNDA:0,_ZN7testing8internal30ValuesInIteratorRangeGeneratorISsE8IteratorC2ERKS3_
FNDA:3,_ZN7testing8internal16DefaultParamNameISsEESsRKNS_13TestParamInfoIT_EE
FNDA:3,_ZN7testing8internal15GetParamNameGenISsEEPNS0_16ParamNameGenFuncIT_E4TypeEv
FNDA:1,_ZN7testing8internal24ParameterizedTestFactoryI30reconf_c_gbs_reconf_slots_TestED0Ev
FNDA:1,_ZN7testing8internal24ParameterizedTestFactoryI30reconf_c_gbs_reconf_slots_TestED2Ev
FNDA:1,_ZN7testing8internal24ParameterizedTestFactoryI27reconf_c_gbs_reconf_02_TestED0Ev
FNDA:1,_ZN7testing8internal24ParameterizedTestFactoryI27reconf_c_gbs_reconf_02_TestED2Ev
FNDA:1,_ZN7testing8internal24ParameterizedTestFactoryI27reconf_c_gbs_reconf_01_TestED0Ev
FNDA:1,_ZN7testing8internal24ParameterizedTestFactoryI27reconf_c_gbs_reconf_01_TestED2Ev
FNDA:1,_ZN7testing8internal24ParameterizedTestFactoryI27reconf_c_gbs_reconf_01_TestEC2ESs
FNDA:1,_ZN7testing8internal24ParameterizedTestFactoryI27reconf_c_gbs_reconf_02_TestEC2ESs
FNDA:1,_ZN7testing8internal24ParameterizedTestFactoryI30reconf_c_gbs_reconf_slots_TestEC2ESs
FNDA:1,_ZN7testing8internal24ParameterizedTestFactoryI30reconf_c_gbs_reconf_slots_TestE10CreateTestEv
FNDA:1,_ZN7testing8internal24ParameterizedTestFactoryI27reconf_c_gbs_reconf_02_TestE10CreateTestEv
FNDA:1,_ZN7testing8internal24ParameterizedTestFactoryI27reconf_c_gbs_reconf_01_TestE10CreateTestEv
FNDA:3,_ZN7testing8internal19TestMetaFactoryBaseISsEC2Ev
FNDA:0,_ZN7testing8internal19TestMetaFactoryBaseISsED0Ev
FNDA:3,_ZN7testing8internal19TestMetaFactoryBaseISsED2Ev
FNDA:1,_ZN7testing8internal15TestMetaFactoryI27reconf_c_gbs_reconf_01_TestED0Ev
FNDA:1,_ZN7testing8internal15TestMetaFactoryI27reconf_c_gbs_reconf_01_TestED2Ev
FNDA:1,_ZN7testing8internal15TestMetaFactoryI27reconf_c_gbs_reconf_02_TestED0Ev
FNDA:1,_ZN7testing8internal15TestMetaFactoryI27reconf_c_gbs_reconf_02_TestED2Ev
FNDA:1,_ZN7testing8internal15TestMetaFactoryI30reconf_c_gbs_reconf_slots_TestED0Ev
FNDA:1,_ZN7testing8internal15TestMetaFactoryI30reconf_c_gbs_reconf_slots_TestED2Ev
FNDA:1,_ZN7testing8internal15TestMetaFactoryI30reconf_c_gbs_reconf_slots_TestEC2Ev
FNDA:1,_ZN7testing8internal15TestMetaFactoryI27reconf_c_gbs_reconf_02_TestEC2Ev
FNDA:1,_ZN7testing8internal15TestMetaFactoryI27reconf_c_gbs_reconf_01_TestEC2Ev
FNDA:1,_ZN7testing8internal15TestMetaFactoryI27reconf_c_gbs_reconf_01_TestE17CreateTestFactoryESs
FNDA:1,_ZN7testing8internal15TestMetaFactoryI27reconf_c_gbs_reconf_02_TestE17CreateTestFactoryESs
FNDA:1,_ZN7testing8internal15TestMetaFactoryI30reconf_c_gbs_reconf_slots_TestE17CreateTestFactoryESs
FNDA:0,_ZN7testing8internal29ParameterizedTestCaseInfoBaseD0Ev
FNDA:1,_ZN7testing8internal29ParameterizedTestCaseInfoBaseD2Ev
FNDA:1,_ZN7testing8internal29ParameterizedTestCaseInfoBaseC2Ev
FNDA:1,_ZN7testing8internal25ParameterizedTestCaseInfoI8reconf_cED0Ev
FNDA:1,_ZN7testing8internal25ParameterizedTestCaseInfoI8reconf_cED2Ev
FNDA:1,_ZN7testing8internal25ParameterizedTestCaseInfoI8reconf_cEC2EPKcNS0_12CodeLocationE
FNDA:3,_ZNK7testing8internal25ParameterizedTestCaseInfoI8reconf_cE15GetTestCaseNameEv
FNDA:6,_ZNK7testing8internal25ParameterizedTestCaseInfoI8reconf_cE17GetTestCaseTypeIdEv
FNDA:3,_ZN7testing8internal25ParameterizedTestCaseInfoI8reconf_cE14AddTestPatternEPKcS5_PNS0_19TestMetaFactoryBaseISsEE
FNDA:1,_ZN7testing8internal25ParameterizedTestCaseInfoI8reconf_cE24AddTestCaseInstantiationERKSsPFNS0_14ParamGeneratorISsEEvEPFSsRKNS_13TestParamInfoISsEEEPKci
FNDA:1,_ZN7testing8internal25ParameterizedTestCaseInfoI8reconf_cE13RegisterTestsEv
FNDA:3,_ZN7testing8internal25ParameterizedTestCaseInfoI8reconf_cE8TestInfoD2Ev
FNDA:3,_ZN7testing8internal25ParameterizedTestCaseInfoI8reconf_cE8TestInfoC2EPKcS6_PNS0_19TestMetaFactoryBaseISsEE
FNDA:1,_ZN7testing8internal25ParameterizedTestCaseInfoI8reconf_cE17InstantiationInfoC2EOS4_
FNDA:2,_ZN7testing8internal25ParameterizedTestCaseInfoI8reconf_cE17InstantiationInfoD2Ev
FNDA:1,_ZN7testing8internal25ParameterizedTestCaseInfoI8reconf_cE17InstantiationInfoC2ERKSsPFNS0_14ParamGeneratorISsEEvEPFSsRKNS_13TestParamInfoISsEEEPKci
FNDA:3,_ZN7testing8internal25ParameterizedTestCaseInfoI8reconf_cE16IsValidParamNameERKSs
FNDA:4,_ZN7testing8internal29ParameterizedTestCaseRegistry24GetTestCasePatternHolderI8reconf_cEEPNS0_25ParameterizedTestCaseInfoIT_EEPKcNS0_12CodeLocationE
FNF:79
FNH:73
DA:59,3
DA:60,3
DA:62,3
DA:93,9
DA:95,9
DA:123,9
DA:137,9
DA:140,3
DA:141,3
DA:142,3
DA:150,6
DA:151,6
DA:153,6
DA:154,6
DA:159,9
DA:166,3
DA:170,3
DA:183,3
DA:187,3
DA:195,3
DA:196,6
DA:295,3
DA:296,3
DA:297,6
DA:299,3
DA:300,3
DA:302,6
DA:303,6
DA:311,9
DA:313,9
DA:314,18
DA:316,12
DA:317,12
DA:319,3
DA:320,3
DA:321,3
DA:322,3
DA:323,0
DA:324,0
DA:333,9
DA:334,9
DA:335,3
DA:336,9
DA:338,6
DA:341,6
DA:342,0
DA:343,0
DA:344,6
DA:345,12
DA:349,0
DA:354,0
DA:377,3
DA:378,3
DA:379,3
DA:380,3
DA:399,3
DA:400,3
DA:408,6
DA:411,3
DA:412,3
DA:413,3
DA:414,3
DA:415,3
DA:429,3
DA:431,3
DA:445,6
DA:450,3
DA:452,3
DA:453,3
DA:472,1
DA:485,1
DA:499,2
DA:509,1
DA:511,1
DA:514,3
DA:516,6
DA:523,3
DA:526,3
DA:529,3
DA:532,1
DA:536,1
DA:538,1
DA:545,1
DA:546,12
DA:547,8
DA:548,3
DA:549,18
DA:550,15
DA:552,3
DA:553,3
DA:554,3
DA:555,3
DA:556,3
DA:558,6
DA:559,3
DA:560,3
DA:561,3
DA:563,3
DA:564,6
DA:565,18
DA:566,3
DA:567,12
DA:568,3
DA:571,6
DA:573,3
DA:574,0
DA:575,0
DA:576,0
DA:578,3
DA:579,0
DA:580,0
DA:582,3
DA:584,3
DA:585,3
DA:589,3
DA:591,3
DA:594,12
DA:598,1
DA:603,3
DA:604,3
DA:609,3
DA:619,3
DA:620,1
DA:629,1
DA:639,3
DA:641,3
DA:642,0
DA:645,6
DA:646,3
DA:647,0
DA:650,3
DA:680,4
DA:683,4
DA:684,12
DA:685,8
DA:686,3
DA:687,3
DA:691,0
DA:692,0
DA:697,3
DA:698,3
DA:700,3
DA:703,4
DA:704,1
DA:706,1
DA:708,4
LF:146
LH:131
end_of_record
SF:/usr/local/include/gtest/internal/gtest-port.h
FN:1154,_ZN7testing8internal10scoped_ptrINS0_19TestMetaFactoryBaseISsEEEC2EPS3_
FN:1154,_ZN7testing8internal10scoped_ptrISsEC2EPSs
FN:1154,_ZN7testing8internal10scoped_ptrIKSsEC2EPS2_
FN:1154,_ZN7testing8internal10scoped_ptrINS0_22ParamIteratorInterfaceISsEEEC2EPS3_
FN:1155,_ZN7testing8internal10scoped_ptrISt18basic_stringstreamIcSt11char_traitsIcESaIcEEED2Ev
FN:1155,_ZN7testing8internal10scoped_ptrINS0_22ParamIteratorInterfaceISsEEED2Ev
FN:1155,_ZN7testing8internal10scoped_ptrINS0_19TestMetaFactoryBaseISsEEED2Ev
FN:1155,_ZN7testing8internal10scoped_ptrIKSsED2Ev
FN:1155,_ZN7testing8internal10scoped_ptrISsED2Ev
FN:1157,_ZNK7testing8internal10scoped_ptrINS0_22ParamIteratorInterfaceISsEEEdeEv
FN:1157,_ZNK7testing8internal10scoped_ptrISt18basic_stringstreamIcSt11char_traitsIcESaIcEEEdeEv
FN:1158,_ZNK7testing8internal10scoped_ptrINS0_22ParamIteratorInterfaceISsEEEptEv
FN:1158,_ZNK7testing8internal10scoped_ptrINS0_19TestMetaFactoryBaseISsEEEptEv
FN:1158,_ZNK7testing8internal10scoped_ptrISsEptEv
FN:1159,_ZNK7testing8internal10scoped_ptrISsE3getEv
FN:1159,_ZNK7testing8internal10scoped_ptrINS0_22ParamIteratorInterfaceISsEEE3getEv
FN:1159,_ZNK7testing8internal10scoped_ptrIKSsE3getEv
FN:1167,_ZN7testing8internal10scoped_ptrINS0_19TestMetaFactoryBaseISsEEE5resetEPS3_
FN:1167,_ZN7testing8internal10scoped_ptrIKSsE5resetEPS2_
FN:1167,_ZN7testing8internal10scoped_ptrISsE5resetEPSs
FN:1167,_ZN7testing8internal10scoped_ptrISt18basic_stringstreamIcSt11char_traitsIcESaIcEEE5resetEPS6_
FN:1167,_ZN7testing8internal10scoped_ptrINS0_22ParamIteratorInterfaceISsEEE5resetEPS3_
FN:1296,_ZN7testing8internal8GTestLog9GetStreamEv
FN:1427,_ZN7testing8internal27CheckedDowncastToActualTypeIKNS0_30ValuesInIteratorRangeGeneratorISsE8IteratorEKNS0_22ParamIteratorInterfaceISsEEEEPT_PT0_
FN:1427,_ZN7testing8internal27CheckedDowncastToActualTypeINS0_25ParameterizedTestCaseInfoI8reconf_cEENS0_29ParameterizedTestCaseInfoBaseEEEPT_PT0_
FN:1959,_ZN7testing8internal9MutexBase4LockEv
FN:1966,_ZN7testing8internal9MutexBase6UnlockEv
FN:2030,_ZN7testing8internal14GTestMutexLockC2EPNS0_9MutexBaseE
FN:2033,_ZN7testing8internal14GTestMutexLockD2Ev
FN:2442,_ZN7testing8internal5posix5AbortEv
FNDA:9,_ZN7testing8internal10scoped_ptrINS0_22ParamIteratorInterfaceISsEEEC2EPS3_
FNDA:16,_ZN7testing8internal10scoped_ptrIKSsEC2EPS2_
FNDA:3,_ZN7testing8internal10scoped_ptrINS0_19TestMetaFactoryBaseISsEEEC2EPS3_
FNDA:28,_ZN7testing8internal10scoped_ptrISsEC2EPSs
FNDA:16,_ZN7testing8internal10scoped_ptrIKSsED2Ev
FNDA:9,_ZN7testing8internal10scoped_ptrINS0_22ParamIteratorInterfaceISsEEED2Ev
FNDA:3,_ZN7testing8internal10scoped_ptrINS0_19TestMetaFactoryBaseISsEEED2Ev
FNDA:28,_ZN7testing8internal10scoped_ptrISsED2Ev
FNDA:51,_ZN7testing8internal10scoped_ptrISt18basic_stringstreamIcSt11char_traitsIcESaIcEEED2Ev
FNDA:6,_ZNK7testing8internal10scoped_ptrINS0_22ParamIteratorInterfaceISsEEEdeEv
FNDA:402,_ZNK7testing8internal10scoped_ptrISt18basic_stringstreamIcSt11char_traitsIcESaIcEEEdeEv
FNDA:18,_ZNK7testing8internal10scoped_ptrINS0_22ParamIteratorInterfaceISsEEEptEv
FNDA:3,_ZNK7testing8internal10scoped_ptrINS0_19TestMetaFactoryBaseISsEEEptEv
FNDA:0,_ZNK7testing8internal10scoped_ptrISsEptEv
FNDA:12,_ZNK7testing8internal10scoped_ptrINS0_22ParamIteratorInterfaceISsEEE3getEv
FNDA:22,_ZNK7testing8internal10scoped_ptrIKSsE3getEv
FNDA:0,_ZNK7testing8internal10scoped_ptrISsE3getEv
FNDA:22,_ZN7testing8internal10scoped_ptrIKSsE5resetEPS2_
FNDA:9,_ZN7testing8internal10scoped_ptrINS0_22ParamIteratorInterfaceISsEEE5resetEPS3_
FNDA:3,_ZN7testing8internal10scoped_ptrINS0_19TestMetaFactoryBaseISsEEE5resetEPS3_
FNDA:51,_ZN7testing8internal10scoped_ptrISt18basic_stringstreamIcSt11char_traitsIcESaIcEEE5resetEPS6_
FNDA:28,_ZN7testing8internal10scoped_ptrISsE5resetEPSs
FNDA:0,_ZN7testing8internal8GTestLog9GetStreamEv
FNDA:6,_ZN7testing8internal27CheckedDowncastToActualTypeIKNS0_30ValuesInIteratorRangeGeneratorISsE8IteratorEKNS0_22ParamIteratorInterfaceISsEEEEPT_PT0_
FNDA:3,_ZN7testing8internal27CheckedDowncastToActualTypeINS0_25ParameterizedTestCaseInfoI8reconf_cEENS0_29ParameterizedTestCaseInfoBaseEEEPT_PT0_
FNDA:24,_ZN7testing8internal9MutexBase4LockEv
FNDA:24,_ZN7testing8internal9MutexBase6UnlockEv
FNDA:24,_ZN7testing8internal14GTestMutexLockC2EPNS0_9MutexBaseE
FNDA:24,_ZN7testing8internal14GTestMutexLockD2Ev
FNDA:0,_ZN7testing8internal5posix5AbortEv
FNF:30
FNH:26
DA:1154,56
DA:1155,107
DA:1157,408
DA:1158,21
DA:1159,34
DA:1167,113
DA:1168,113
DA:1169,72
DA:1170,72
DA:1172,72
DA:1174,113
DA:1296,0
DA:1427,9
DA:1429,9
DA:1435,9
DA:1959,24
DA:1960,24
DA:1961,24
DA:1962,24
DA:1963,24
DA:1966,24
DA:1971,24
DA:1972,24
DA:1973,24
DA:2030,24
DA:2031,24
DA:2033,24
DA:2442,0
LF:28
LH:26
end_of_record
TN:
SF:/home/workspace/jelonanx/opae-sdk/libopae/plugins/xfpga/properties.c
FN:42,xfpga_fpgaGetPropertiesFromHandle
FN:62,xfpga_fpgaGetProperties
FN:88,xfpga_fpgaUpdateProperties
FNDA:13,xfpga_fpgaGetPropertiesFromHandle
FNDA:121,xfpga_fpgaGetProperties
FNDA:14,xfpga_fpgaUpdateProperties
FNF:3
FNH:3
DA:42,13
DA:44,13
DA:45,13
DA:46,13
DA:48,13
DA:49,13
DA:50,0
DA:52,13
DA:54,13
DA:55,13
DA:56,0
DA:59,13
DA:62,121
DA:65,121
DA:66,121
DA:68,121
DA:70,121
DA:72,121
DA:74,121
DA:75,14
DA:76,14
DA:77,3
DA:80,118
DA:81,118
DA:84,3
DA:85,3
DA:88,14
DA:91,14
DA:92,14
DA:102,14
DA:106,14
DA:108,14
DA:109,14
DA:110,1
DA:111,1
DA:114,13
DA:115,13
DA:116,0
DA:117,0
DA:121,13
DA:122,13
DA:127,13
DA:129,13
DA:130,0
DA:131,0
DA:134,13
DA:135,13
DA:137,11
DA:140,11
DA:141,11
DA:143,11
DA:145,11
DA:146,11
DA:148,4
DA:149,4
DA:150,0
DA:151,4
DA:153,4
DA:154,4
DA:155,4
DA:157,4
DA:158,4
DA:160,4
DA:161,4
DA:162,0
DA:164,4
DA:165,4
DA:168,4
DA:170,4
DA:171,4
DA:173,4
DA:174,4
DA:177,11
DA:178,11
DA:180,7
DA:181,7
DA:183,7
DA:184,7
DA:185,0
DA:186,7
DA:188,7
DA:190,7
DA:191,0
DA:192,7
DA:194,7
DA:196,7
DA:197,0
DA:198,7
DA:200,7
DA:201,7
DA:202,7
DA:203,7
DA:204,7
DA:205,7
DA:206,7
DA:209,11
DA:210,11
DA:211,0
DA:213,11
DA:214,11
DA:216,11
DA:217,11
DA:219,11
DA:220,11
DA:222,11
DA:223,11
DA:226,11
DA:227,11
DA:228,11
DA:230,11
DA:231,11
DA:232,11
DA:235,11
DA:237,11
DA:238,11
DA:239,11
DA:240,11
DA:241,0
DA:242,11
DA:243,11
DA:246,11
DA:247,11
DA:248,11
DA:249,11
DA:250,0
DA:251,11
DA:252,11
DA:255,11
DA:256,11
DA:257,11
DA:259,11
DA:260,0
DA:261,0
DA:264,11
DA:265,11
DA:266,11
DA:268,11
DA:269,11
DA:270,0
DA:272,11
LF:140
LH:123
end_of_record
TN:
SF:/home/workspace/jelonanx/opae-sdk/testing/mock/test_system.h
FN:46,_ZN4opae7testing3KiBEm
FN:47,_ZN4opae7testing3MiBEm
FN:116,_ZN4opae7testing13test_platformD2Ev
FN:116,_ZN4opae7testing13test_platformC2Ev
FN:116,_ZN4opae7testing13test_platformaSEOS1_
FNDA:4,_ZN4opae7testing3KiBEm
FNDA:2,_ZN4opae7testing3MiBEm
FNDA:12,_ZN4opae7testing13test_platformaSEOS1_
FNDA:28,_ZN4opae7testing13test_platformD2Ev
FNDA:12,_ZN4opae7testing13test_platformC2Ev
FNF:5
FNH:5
DA:46,4
DA:47,2
DA:116,52
LF:3
LH:3
end_of_record
SF:/home/workspace/jelonanx/opae-sdk/testing/xfpga/test_buffer_c.cpp
FN:44,_ZN14buffer_prepareD0Ev
FN:44,_ZN14buffer_prepareD2Ev
FN:47,_ZN14buffer_prepareC2Ev
FN:49,_ZN14buffer_prepare5SetUpEv
FN:66,_ZN14buffer_prepare8TearDownEv
FN:100,_ZN35buffer_prepare_prepare_buf_err_TestD2Ev
FN:100,_Z41__static_initialization_and_destruction_0ii
FN:100,_ZN35buffer_prepare_prepare_buf_err_Test8TestBodyEv
FN:100,_ZN35buffer_prepare_prepare_buf_err_TestD0Ev
FN:100,_ZN35buffer_prepare_prepare_buf_err_TestC2Ev
FN:100,_ZN35buffer_prepare_prepare_buf_err_Test13AddToRegistryEv
FN:188,_ZN43buffer_prepare_xfpga_fpgaPrepareBuffer_TestD0Ev
FN:188,_ZN43buffer_prepare_xfpga_fpgaPrepareBuffer_TestD2Ev
FN:188,_ZN43buffer_prepare_xfpga_fpgaPrepareBuffer_Test13AddToRegistryEv
FN:188,_ZN43buffer_prepare_xfpga_fpgaPrepareBuffer_Test8TestBodyEv
FN:188,_ZN43buffer_prepare_xfpga_fpgaPrepareBuffer_TestC2Ev
FN:215,_Z43gtest_buffer_cbuffer_prepare_EvalGenerator_v
FN:215,_Z46gtest_buffer_cbuffer_prepare_EvalGenerateName_RKN7testing13TestParamInfoISt5tupleIISs13buffer_paramsEEEE
FN:218,_GLOBAL__sub_I__ZN35buffer_prepare_prepare_buf_err_Test24gtest_registering_dummy_E
FNDA:0,_ZN14buffer_prepareD0Ev
FNDA:12,_ZN14buffer_prepareD2Ev
FNDA:12,_ZN14buffer_prepareC2Ev
FNDA:12,_ZN14buffer_prepare5SetUpEv
FNDA:12,_ZN14buffer_prepare8TearDownEv
FNDA:6,_ZN35buffer_prepare_prepare_buf_err_TestD0Ev
FNDA:6,_ZN35buffer_prepare_prepare_buf_err_TestD2Ev
FNDA:6,_ZN35buffer_prepare_prepare_buf_err_Test8TestBodyEv
FNDA:1,_ZN35buffer_prepare_prepare_buf_err_Test13AddToRegistryEv
FNDA:6,_ZN35buffer_prepare_prepare_buf_err_TestC2Ev
FNDA:6,_ZN43buffer_prepare_xfpga_fpgaPrepareBuffer_TestD0Ev
FNDA:6,_ZN43buffer_prepare_xfpga_fpgaPrepareBuffer_TestD2Ev
FNDA:6,_ZN43buffer_prepare_xfpga_fpgaPrepareBuffer_Test8TestBodyEv
FNDA:1,_ZN43buffer_prepare_xfpga_fpgaPrepareBuffer_Test13AddToRegistryEv
FNDA:6,_ZN43buffer_prepare_xfpga_fpgaPrepareBuffer_TestC2Ev
FNDA:12,_Z46gtest_buffer_cbuffer_prepare_EvalGenerateName_RKN7testing13TestParamInfoISt5tupleIISs13buffer_paramsEEEE
FNDA:2,_Z43gtest_buffer_cbuffer_prepare_EvalGenerator_v
FNDA:1,_GLOBAL__sub_I__ZN35buffer_prepare_prepare_buf_err_Test24gtest_registering_dummy_E
FNDA:1,_Z41__static_initialization_and_destruction_0ii
FNF:19
FNH:18
DA:44,12
DA:47,12
DA:49,12
DA:50,12
DA:51,24
DA:52,12
DA:53,12
DA:54,12
DA:55,12
DA:56,12
DA:58,12
DA:59,12
DA:60,12
DA:62,12
DA:63,24
DA:66,12
DA:67,12
DA:68,12
DA:69,12
DA:70,12
DA:71,12
DA:73,12
DA:74,12
DA:100,26
DA:101,6
DA:103,6
DA:104,6
DA:105,6
DA:106,6
DA:109,6
DA:112,6
DA:116,6
DA:117,6
DA:120,6
DA:121,6
DA:124,6
DA:125,6
DA:126,6
DA:129,6
DA:132,6
DA:135,6
DA:136,6
DA:139,6
DA:142,6
DA:145,6
DA:148,6
DA:150,6
DA:188,26
DA:189,6
DA:190,6
DA:191,6
DA:192,6
DA:194,6
DA:196,6
DA:197,6
DA:198,4
DA:199,0
DA:200,4
DA:201,0
DA:203,6
DA:206,6
DA:208,1
DA:209,1
DA:210,1
DA:211,1
DA:212,2
DA:215,15
DA:218,3
LF:68
LH:66
end_of_record
SF:/usr/include/c++/4.8/array
FN:52,_ZNSt14__array_traitsIPvLm2EE6_S_refERA2_KS0_m
FN:162,_ZNKSt5arrayIPvLm2EE4sizeEv
FN:172,_ZNSt5arrayIPvLm2EEixEm
FN:217,_ZNSt5arrayIPvLm2EE4dataEv
FNDA:24,_ZNSt14__array_traitsIPvLm2EE6_S_refERA2_KS0_m
FNDA:12,_ZNKSt5arrayIPvLm2EE4sizeEv
FNDA:12,_ZNSt5arrayIPvLm2EEixEm
FNDA:12,_ZNSt5arrayIPvLm2EE4dataEv
FNF:4
FNH:4
DA:52,24
DA:53,24
DA:162,12
DA:172,12
DA:173,12
DA:217,12
DA:218,12
LF:7
LH:7
end_of_record
SF:/usr/include/c++/4.8/bits/alloc_traits.h
FN:253,_ZNSt16allocator_traitsISaIN7testing8internal10linked_ptrINS1_25ParameterizedTestCaseInfoI14buffer_prepareE8TestInfoEEEEE12_S_constructIS7_IS7_EEENSt9enable_ifIXsrNS9_18__construct_helperIT_IDpT0_EEE5valueEvE4typeERS8_PSD_DpOSE_
FN:253,_ZNSt16allocator_traitsISaISt13_Rb_tree_nodeISsEEE12_S_constructIS1_IRKSsEEENSt9enable_ifIXsrNS3_18__construct_helperIT_IDpT0_EEE5valueEvE4typeERS2_PS9_DpOSA_
FN:253,_ZNSt16allocator_traitsISaIPN7testing8internal29ParameterizedTestCaseInfoBaseEEE12_S_constructIS3_IS3_EEENSt9enable_ifIXsrNS5_18__construct_helperIT_IDpT0_EEE5valueEvE4typeERS4_PS9_DpOSA_
FN:253,_ZNSt16allocator_traitsISaIN7testing8internal25ParameterizedTestCaseInfoI14buffer_prepareE17InstantiationInfoEEE12_S_constructIS5_IS5_EEENSt9enable_ifIXsrNS7_18__construct_helperIT_IDpT0_EEE5valueEvE4typeERS6_PSB_DpOSC_
FN:280,_ZNSt16allocator_traitsISaIN7testing8internal10linked_ptrINS1_25ParameterizedTestCaseInfoI14buffer_prepareE8TestInfoEEEEE10_S_destroyIS7_EENSt9enable_ifIXsrNS9_16__destroy_helperIT_EE5valueEvE4typeERS8_PSD_
FN:280,_ZNSt16allocator_traitsISaIPN7testing8internal29ParameterizedTestCaseInfoBaseEEE10_S_destroyIS3_EENSt9enable_ifIXsrNS5_16__destroy_helperIT_EE5valueEvE4typeERS4_PS9_
FN:280,_ZNSt16allocator_traitsISaIN7testing8internal25ParameterizedTestCaseInfoI14buffer_prepareE17InstantiationInfoEEE10_S_destroyIS5_EENSt9enable_ifIXsrNS7_16__destroy_helperIT_EE5valueEvE4typeERS6_PSB_
FN:305,_ZNSt16allocator_traitsISaIPN7testing8internal29ParameterizedTestCaseInfoBaseEEE11_S_max_sizeIKS4_EENSt9enable_ifIXsrNS5_16__maxsize_helperIT_EE5valueEmE4typeERSA_
FN:305,_ZNSt16allocator_traitsISaIN7testing8internal25ParameterizedTestCaseInfoI14buffer_prepareE17InstantiationInfoEEE11_S_max_sizeIKS6_EENSt9enable_ifIXsrNS7_16__maxsize_helperIT_EE5valueEmE4typeERSC_
FN:305,_ZNSt16allocator_traitsISaIN7testing8internal10linked_ptrINS1_25ParameterizedTestCaseInfoI14buffer_prepareE8TestInfoEEEEE11_S_max_sizeIKS8_EENSt9enable_ifIXsrNS9_16__maxsize_helperIT_EE5valueEmE4typeERSE_
FN:391,_ZNSt16allocator_traitsISaIN7testing8internal10linked_ptrINS1_25ParameterizedTestCaseInfoI14buffer_prepareE8TestInfoEEEEE9constructIS7_IS7_EEEDTcl12_S_constructfp_fp0_spcl7forwardIT0_Efp1_EEERS8_PT_DpOSB_
FN:391,_ZNSt16allocator_traitsISaIPN7testing8internal29ParameterizedTestCaseInfoBaseEEE9constructIS3_IS3_EEEDTcl12_S_constructfp_fp0_spcl7forwardIT0_Efp1_EEERS4_PT_DpOS7_
FN:391,_ZNSt16allocator_traitsISaIN7testing8internal25ParameterizedTestCaseInfoI14buffer_prepareE17InstantiationInfoEEE9constructIS5_IS5_EEEDTcl12_S_constructfp_fp0_spcl7forwardIT0_Efp1_EEERS6_PT_DpOS9_
FN:391,_ZNSt16allocator_traitsISaISt13_Rb_tree_nodeISsEEE9constructIS1_IRKSsEEEDTcl12_S_constructfp_fp0_spcl7forwardIT0_Efp1_EEERS2_PT_DpOS7_
FN:404,_ZNSt16allocator_traitsISaIN7testing8internal25ParameterizedTestCaseInfoI14buffer_prepareE17InstantiationInfoEEE7destroyIS5_EEvRS6_PT_
FN:404,_ZNSt16allocator_traitsISaIN7testing8internal10linked_ptrINS1_25ParameterizedTestCaseInfoI14buffer_prepareE8TestInfoEEEEE7destroyIS7_EEvRS8_PT_
FN:404,_ZNSt16allocator_traitsISaIPN7testing8internal29ParameterizedTestCaseInfoBaseEEE7destroyIS3_EEvRS4_PT_
FN:415,_ZNSt16allocator_traitsISaIPN7testing8internal29ParameterizedTestCaseInfoBaseEEE8max_sizeERKS4_
FN:415,_ZNSt16allocator_traitsISaIN7testing8internal25ParameterizedTestCaseInfoI14buffer_prepareE17InstantiationInfoEEE8max_sizeERKS6_
FN:415,_ZNSt16allocator_traitsISaIN7testing8internal10linked_ptrINS1_25ParameterizedTestCaseInfoI14buffer_prepareE8TestInfoEEEEE8max_sizeERKS8_
FN:478,_ZSt18__do_alloc_on_moveISaIN4opae7testing11test_deviceEEEvRT_S5_St17integral_constantIbLb1EE
FN:486,_ZSt15__alloc_on_moveISaIN4opae7testing11test_deviceEEEvRT_S5_
FNDA:12,_ZNSt16allocator_traitsISaISt13_Rb_tree_nodeISsEEE12_S_constructIS1_IRKSsEEENSt9enable_ifIXsrNS3_18__construct_helperIT_IDpT0_EEE5valueEvE4typeERS2_PS9_DpOSA_
FNDA:1,_ZNSt16allocator_traitsISaIN7testing8internal25ParameterizedTestCaseInfoI14buffer_prepareE17InstantiationInfoEEE12_S_constructIS5_IS5_EEENSt9enable_ifIXsrNS7_18__construct_helperIT_IDpT0_EEE5valueEvE4typeERS6_PSB_DpOSC_
FNDA:2,_ZNSt16allocator_traitsISaIN7testing8internal10linked_ptrINS1_25ParameterizedTestCaseInfoI14buffer_prepareE8TestInfoEEEEE12_S_constructIS7_IS7_EEENSt9enable_ifIXsrNS9_18__construct_helperIT_IDpT0_EEE5valueEvE4typeERS8_PSD_DpOSE_
FNDA:1,_ZNSt16allocator_traitsISaIPN7testing8internal29ParameterizedTestCaseInfoBaseEEE12_S_constructIS3_IS3_EEENSt9enable_ifIXsrNS5_18__construct_helperIT_IDpT0_EEE5valueEvE4typeERS4_PS9_DpOSA_
FNDA:0,_ZNSt16allocator_traitsISaIN7testing8internal25ParameterizedTestCaseInfoI14buffer_prepareE17InstantiationInfoEEE10_S_destroyIS5_EENSt9enable_ifIXsrNS7_16__destroy_helperIT_EE5valueEvE4typeERS6_PSB_
FNDA:0,_ZNSt16allocator_traitsISaIN7testing8internal10linked_ptrINS1_25ParameterizedTestCaseInfoI14buffer_prepareE8TestInfoEEEEE10_S_destroyIS7_EENSt9enable_ifIXsrNS9_16__destroy_helperIT_EE5valueEvE4typeERS8_PSD_
FNDA:0,_ZNSt16allocator_traitsISaIPN7testing8internal29ParameterizedTestCaseInfoBaseEEE10_S_destroyIS3_EENSt9enable_ifIXsrNS5_16__destroy_helperIT_EE5valueEvE4typeERS4_PS9_
FNDA:2,_ZNSt16allocator_traitsISaIN7testing8internal25ParameterizedTestCaseInfoI14buffer_prepareE17InstantiationInfoEEE11_S_max_sizeIKS6_EENSt9enable_ifIXsrNS7_16__maxsize_helperIT_EE5valueEmE4typeERSC_
FNDA:4,_ZNSt16allocator_traitsISaIN7testing8internal10linked_ptrINS1_25ParameterizedTestCaseInfoI14buffer_prepareE8TestInfoEEEEE11_S_max_sizeIKS8_EENSt9enable_ifIXsrNS9_16__maxsize_helperIT_EE5valueEmE4typeERSE_
FNDA:2,_ZNSt16allocator_traitsISaIPN7testing8internal29ParameterizedTestCaseInfoBaseEEE11_S_max_sizeIKS4_EENSt9enable_ifIXsrNS5_16__maxsize_helperIT_EE5valueEmE4typeERSA_
FNDA:12,_ZNSt16allocator_traitsISaISt13_Rb_tree_nodeISsEEE9constructIS1_IRKSsEEEDTcl12_S_constructfp_fp0_spcl7forwardIT0_Efp1_EEERS2_PT_DpOS7_
FNDA:1,_ZNSt16allocator_traitsISaIN7testing8internal25ParameterizedTestCaseInfoI14buffer_prepareE17InstantiationInfoEEE9constructIS5_IS5_EEEDTcl12_S_constructfp_fp0_spcl7forwardIT0_Efp1_EEERS6_PT_DpOS9_
FNDA:2,_ZNSt16allocator_traitsISaIN7testing8internal10linked_ptrINS1_25ParameterizedTestCaseInfoI14buffer_prepareE8TestInfoEEEEE9constructIS7_IS7_EEEDTcl12_S_constructfp_fp0_spcl7forwardIT0_Efp1_EEERS8_PT_DpOSB_
FNDA:1,_ZNSt16allocator_traitsISaIPN7testing8internal29ParameterizedTestCaseInfoBaseEEE9constructIS3_IS3_EEEDTcl12_S_constructfp_fp0_spcl7forwardIT0_Efp1_EEERS4_PT_DpOS7_
FNDA:0,_ZNSt16allocator_traitsISaIN7testing8internal25ParameterizedTestCaseInfoI14buffer_prepareE17InstantiationInfoEEE7destroyIS5_EEvRS6_PT_
FNDA:0,_ZNSt16allocator_traitsISaIN7testing8internal10linked_ptrINS1_25ParameterizedTestCaseInfoI14buffer_prepareE8TestInfoEEEEE7destroyIS7_EEvRS8_PT_
FNDA:0,_ZNSt16allocator_traitsISaIPN7testing8internal29ParameterizedTestCaseInfoBaseEEE7destroyIS3_EEvRS4_PT_
FNDA:2,_ZNSt16allocator_traitsISaIN7testing8internal25ParameterizedTestCaseInfoI14buffer_prepareE17InstantiationInfoEEE8max_sizeERKS6_
FNDA:4,_ZNSt16allocator_traitsISaIN7testing8internal10linked_ptrINS1_25ParameterizedTestCaseInfoI14buffer_prepareE8TestInfoEEEEE8max_sizeERKS8_
FNDA:2,_ZNSt16allocator_traitsISaIPN7testing8internal29ParameterizedTestCaseInfoBaseEEE8max_sizeERKS4_
FNDA:12,_ZSt18__do_alloc_on_moveISaIN4opae7testing11test_deviceEEEvRT_S5_St17integral_constantIbLb1EE
FNDA:12,_ZSt15__alloc_on_moveISaIN4opae7testing11test_deviceEEEvRT_S5_
FNF:22
FNH:16
DA:253,16
DA:254,16
DA:280,0
DA:281,0
DA:305,8
DA:306,8
DA:391,16
DA:393,16
DA:404,0
DA:405,0
DA:415,8
DA:416,8
DA:478,12
DA:479,12
DA:486,12
DA:490,12
DA:491,12
LF:17
LH:13
end_of_record
SF:/usr/include/c++/4.8/bits/allocator.h
FN:113,_ZNSaISsEC2Ev
FN:113,_ZNSaIN7testing8internal10linked_ptrINS0_25ParameterizedTestCaseInfoI14buffer_prepareE8TestInfoEEEEC2Ev
FN:113,_ZNSaI13buffer_paramsEC2Ev
FN:113,_ZNSaIN7testing8internal25ParameterizedTestCaseInfoI14buffer_prepareE17InstantiationInfoEEC2Ev
FN:113,_ZNSaISt13_Rb_tree_nodeISsEEC2Ev
FN:113,_ZNSaIN4opae7testing11test_deviceEEC2Ev
FN:115,_ZNSaIN4opae7testing11test_deviceEEC2ERKS2_
FN:115,_ZNSaI13buffer_paramsEC2ERKS0_
FN:115,_ZNSaISsEC2ERKS_
FN:121,_ZNSaISt13_Rb_tree_nodeISsEED2Ev
FN:121,_ZNSaIN7testing8internal10linked_ptrINS0_25ParameterizedTestCaseInfoI14buffer_prepareE8TestInfoEEEED2Ev
FN:121,_ZNSaI13buffer_paramsED2Ev
FN:121,_ZNSaIN7testing8internal25ParameterizedTestCaseInfoI14buffer_prepareE17InstantiationInfoEED2Ev
FN:121,_ZNSaISsED2Ev
FN:121,_ZNSaIN4opae7testing11test_deviceEED2Ev
FN:133,_ZSteqIcEbRKSaIT_ES3_
FNDA:2,_ZNSaISt13_Rb_tree_nodeISsEEC2Ev
FNDA:1,_ZNSaIN7testing8internal25ParameterizedTestCaseInfoI14buffer_prepareE17InstantiationInfoEEC2Ev
FNDA:1,_ZNSaIN7testing8internal10linked_ptrINS0_25ParameterizedTestCaseInfoI14buffer_prepareE8TestInfoEEEEC2Ev
FNDA:137,_ZNSaISsEC2Ev
FNDA:13,_ZNSaIN4opae7testing11test_deviceEEC2Ev
FNDA:3,_ZNSaI13buffer_paramsEC2Ev
FNDA:220,_ZNSaISsEC2ERKS_
FNDA:3,_ZNSaI13buffer_paramsEC2ERKS0_
FNDA:56,_ZNSaIN4opae7testing11test_deviceEEC2ERKS2_
FNDA:2,_ZNSaISt13_Rb_tree_nodeISsEED2Ev
FNDA:1,_ZNSaIN7testing8internal25ParameterizedTestCaseInfoI14buffer_prepareE17InstantiationInfoEED2Ev
FNDA:1,_ZNSaIN7testing8internal10linked_ptrINS0_25ParameterizedTestCaseInfoI14buffer_prepareE8TestInfoEEEED2Ev
FNDA:356,_ZNSaISsED2Ev
FNDA:68,_ZNSaIN4opae7testing11test_deviceEED2Ev
FNDA:6,_ZNSaI13buffer_paramsED2Ev
FNDA:0,_ZSteqIcEbRKSaIT_ES3_
FNF:16
FNH:15
DA:113,157
DA:115,279
DA:116,279
DA:121,434
DA:133,0
DA:134,0
LF:6
LH:4
end_of_record
SF:/usr/include/c++/4.8/bits/basic_ios.h
FN:46,_ZSt13__check_facetISt5ctypeIcEERKT_PS3_
FNDA:0,_ZSt13__check_facetISt5ctypeIcEERKT_PS3_
FNF:1
FNH:0
DA:46,0
DA:48,0
DA:49,0
DA:50,0
LF:4
LH:0
end_of_record
SF:/usr/include/c++/4.8/bits/basic_string.h
FN:272,_ZNSs12_Alloc_hiderD2Ev
FN:272,_ZNSs12_Alloc_hiderC2ERKS_
FN:1721,_ZNSs16_S_construct_auxIPcEES0_T_S1_RKSaIcESt12__false_type
FN:1743,_ZNSs12_S_constructIPcEES0_T_S1_RKSaIcE
FN:2402,_ZStplIcSt11char_traitsIcESaIcEESbIT_T0_T1_ERKS6_PKS3_
FN:2519,_ZSteqIcSt11char_traitsIcESaIcEEbRKSbIT_T0_T1_EPKS3_
FN:2569,_ZStltIcSt11char_traitsIcESaIcEEbRKSbIT_T0_T1_ES8_
FNDA:0,_ZNSs12_Alloc_hiderC2ERKS_
FNDA:0,_ZNSs12_Alloc_hiderD2Ev
FNDA:0,_ZNSs16_S_construct_auxIPcEES0_T_S1_RKSaIcESt12__false_type
FNDA:0,_ZNSs12_S_constructIPcEES0_T_S1_RKSaIcE
FNDA:148,_ZStplIcSt11char_traitsIcESaIcEESbIT_T0_T1_ERKS6_PKS3_
FNDA:53,_ZSteqIcSt11char_traitsIcESaIcEEbRKSbIT_T0_T1_EPKS3_
FNDA:112,_ZStltIcSt11char_traitsIcESaIcEEbRKSbIT_T0_T1_ES8_
FNF:7
FNH:3
DA:272,0
DA:1721,0
DA:1725,0
DA:1743,0
DA:1746,0
DA:2402,148
DA:2405,148
DA:2406,148
DA:2407,148
DA:2519,53
DA:2521,53
DA:2569,112
DA:2571,112
LF:13
LH:8
end_of_record
SF:/usr/include/c++/4.8/bits/basic_string.tcc
FN:123,_ZNSs12_S_constructIPcEES0_T_S1_RKSaIcESt20forward_iterator_tag
FN:227,_ZNSsC2IPcEET_S1_RKSaIcE
FN:692,_ZStplIcSt11char_traitsIcESaIcEESbIT_T0_T1_EPKS3_RKS6_
FNDA:0,_ZNSs12_S_constructIPcEES0_T_S1_RKSaIcESt20forward_iterator_tag
FNDA:0,_ZNSsC2IPcEET_S1_RKSaIcE
FNDA:12,_ZStplIcSt11char_traitsIcESaIcEESbIT_T0_T1_EPKS3_RKS6_
FNF:3
FNH:1
DA:123,0
DA:128,0
DA:129,0
DA:132,0
DA:133,0
DA:136,0
DA:138,0
DA:140,0
DA:141,=====
DA:143,=====
DA:144,=====
DA:146,0
DA:147,0
DA:227,0
DA:229,0
DA:230,0
DA:692,12
DA:698,12
DA:699,12
DA:700,12
DA:701,12
DA:702,12
DA:703,12
LF:23
LH:7
end_of_record
SF:/usr/include/c++/4.8/bits/char_traits.h
FN:242,_ZNSt11char_traitsIcE6assignERcRKc
FN:254,_ZNSt11char_traitsIcE7compareEPKcS2_m
FN:258,_ZNSt11char_traitsIcE6lengthEPKc
FN:270,_ZNSt11char_traitsIcE4copyEPcPKcm
FNDA:0,_ZNSt11char_traitsIcE6assignERcRKc
FNDA:0,_ZNSt11char_traitsIcE7compareEPKcS2_m
FNDA:12,_ZNSt11char_traitsIcE6lengthEPKc
FNDA:0,_ZNSt11char_traitsIcE4copyEPcPKcm
FNF:4
FNH:1
DA:242,0
DA:243,0
DA:254,0
DA:255,0
DA:258,12
DA:259,12
DA:270,0
DA:271,0
LF:8
LH:2
end_of_record
SF:/usr/include/c++/4.8/bits/ios_base.h
FN:123,_ZStorSt13_Ios_OpenmodeS_
FN:163,_ZStorSt12_Ios_IostateS_
FNDA:90,_ZStorSt13_Ios_OpenmodeS_
FNDA:0,_ZStorSt12_Ios_IostateS_
FNF:2
FNH:1
DA:123,90
DA:124,90
DA:163,0
DA:164,0
LF:4
LH:2
end_of_record
SF:/usr/include/c++/4.8/bits/locale_facets.h
FN:865,_ZNKSt5ctypeIcE5widenEc
FNDA:0,_ZNKSt5ctypeIcE5widenEc
FNF:1
FNH:0
DA:865,0
DA:867,0
DA:868,0
DA:869,0
DA:870,0
LF:5
LH:0
end_of_record
SF:/usr/include/c++/4.8/bits/move.h
FN:47,_ZSt11__addressofISsEPT_RS0_
FN:47,_ZSt11__addressofIPvEPT_RS1_
FN:47,_ZSt11__addressofIN7testing8internal25ParameterizedTestCaseInfoI14buffer_prepareE17InstantiationInfoEEPT_RS6_
FN:47,_ZSt11__addressofIN7testing8internal10linked_ptrINS1_25ParameterizedTestCaseInfoI14buffer_prepareE8TestInfoEEEEPT_RS8_
FN:76,_ZSt7forwardIbEOT_RNSt16remove_referenceIS0_E4typeE
FN:76,_ZSt7forwardIRPSt13_Rb_tree_nodeISsEEOT_RNSt16remove_referenceIS4_E4typeE
FN:76,_ZSt7forwardIRKSsEOT_RNSt16remove_referenceIS2_E4typeE
FN:76,_ZSt7forwardISt17_Rb_tree_iteratorISsEEOT_RNSt16remove_referenceIS2_E4typeE
FN:76,_ZSt7forwardISsEOT_RNSt16remove_referenceIS0_E4typeE
FN:76,_ZSt7forwardIPN7testing8internal29ParameterizedTestCaseInfoBaseEEOT_RNSt16remove_referenceIS4_E4typeE
FN:76,_ZSt7forwardI13buffer_paramsEOT_RNSt16remove_referenceIS1_E4typeE
FN:76,_ZSt7forwardIRbEOT_RNSt16remove_referenceIS1_E4typeE
FN:76,_ZSt7forwardIRSt17_Rb_tree_iteratorISsEEOT_RNSt16remove_referenceIS3_E4typeE
FN:76,_ZSt7forwardIN7testing8internal10linked_ptrINS1_25ParameterizedTestCaseInfoI14buffer_prepareE8TestInfoEEEEOT_RNSt16remove_referenceIS8_E4typeE
FN:76,_ZSt7forwardIRN7testing8internal10linked_ptrINS1_25ParameterizedTestCaseInfoI14buffer_prepareE8TestInfoEEEEOT_RNSt16remove_referenceIS9_E4typeE
FN:76,_ZSt7forwardIN7testing8internal25ParameterizedTestCaseInfoI14buffer_prepareE17InstantiationInfoEEOT_RNSt16remove_referenceIS6_E4typeE
FN:76,_ZSt7forwardIRPSt18_Rb_tree_node_baseEOT_RNSt16remove_referenceIS3_E4typeE
FN:101,_ZSt4moveIRSaIN4opae7testing11test_deviceEEEONSt16remove_referenceIT_E4typeEOS6_
FN:101,_ZSt4moveIRSt5tupleIISs13buffer_paramsEEEONSt16remove_referenceIT_E4typeEOS5_
FN:101,_ZSt4moveIRSt6vectorIN4opae7testing11test_deviceESaIS3_EEEONSt16remove_referenceIT_E4typeEOS8_
FN:101,_ZSt4moveIRN7testing8internal10linked_ptrINS1_25ParameterizedTestCaseInfoI14buffer_prepareE8TestInfoEEEEONSt16remove_referenceIT_E4typeEOSA_
FN:101,_ZSt4moveIRPN7testing8internal29ParameterizedTestCaseInfoBaseEEONSt16remove_referenceIT_E4typeEOS6_
FN:101,_ZSt4moveIRN7testing8internal25ParameterizedTestCaseInfoI14buffer_prepareE17InstantiationInfoEEONSt16remove_referenceIT_E4typeEOS8_
FN:101,_ZSt4moveIRPN4opae7testing11test_deviceEEONSt16remove_referenceIT_E4typeEOS6_
FN:101,_ZSt4moveIRSt11_Tuple_implILm2EIEEEONSt16remove_referenceIT_E4typeEOS4_
FN:101,_ZSt4moveIRSt11_Tuple_implILm1EI13buffer_paramsEEEONSt16remove_referenceIT_E4typeEOS5_
FN:166,_ZSt4swapIPN4opae7testing11test_deviceEEvRT_S5_
FNDA:1,_ZSt11__addressofIN7testing8internal25ParameterizedTestCaseInfoI14buffer_prepareE17InstantiationInfoEEPT_RS6_
FNDA:4,_ZSt11__addressofIN7testing8internal10linked_ptrINS1_25ParameterizedTestCaseInfoI14buffer_prepareE8TestInfoEEEEPT_RS8_
FNDA:1040,_ZSt11__addressofISsEPT_RS0_
FNDA:12,_ZSt11__addressofIPvEPT_RS1_
FNDA:12,_ZSt7forwardI13buffer_paramsEOT_RNSt16remove_referenceIS1_E4typeE
FNDA:1368,_ZSt7forwardISsEOT_RNSt16remove_referenceIS0_E4typeE
FNDA:24,_ZSt7forwardIRPSt13_Rb_tree_nodeISsEEOT_RNSt16remove_referenceIS4_E4typeE
FNDA:12,_ZSt7forwardISt17_Rb_tree_iteratorISsEEOT_RNSt16remove_referenceIS2_E4typeE
FNDA:12,_ZSt7forwardIRbEOT_RNSt16remove_referenceIS1_E4typeE
FNDA:12,_ZSt7forwardIRSt17_Rb_tree_iteratorISsEEOT_RNSt16remove_referenceIS3_E4typeE
FNDA:326,_ZSt7forwardIRKSsEOT_RNSt16remove_referenceIS2_E4typeE
FNDA:1,_ZSt7forwardIRN7testing8internal10linked_ptrINS1_25ParameterizedTestCaseInfoI14buffer_prepareE8TestInfoEEEEOT_RNSt16remove_referenceIS9_E4typeE
FNDA:5,_ZSt7forwardIN7testing8internal25ParameterizedTestCaseInfoI14buffer_prepareE17InstantiationInfoEEOT_RNSt16remove_referenceIS6_E4typeE
FNDA:10,_ZSt7forwardIN7testing8internal10linked_ptrINS1_25ParameterizedTestCaseInfoI14buffer_prepareE8TestInfoEEEEOT_RNSt16remove_referenceIS8_E4typeE
FNDA:5,_ZSt7forwardIPN7testing8internal29ParameterizedTestCaseInfoBaseEEOT_RNSt16remove_referenceIS4_E4typeE
FNDA:54,_ZSt7forwardIRPSt18_Rb_tree_node_baseEOT_RNSt16remove_referenceIS3_E4typeE
FNDA:12,_ZSt7forwardIbEOT_RNSt16remove_referenceIS0_E4typeE
FNDA:12,_ZSt4moveIRSt11_Tuple_implILm2EIEEEONSt16remove_referenceIT_E4typeEOS4_
FNDA:12,_ZSt4moveIRSt11_Tuple_implILm1EI13buffer_paramsEEEONSt16remove_referenceIT_E4typeEOS5_
FNDA:12,_ZSt4moveIRSt5tupleIISs13buffer_paramsEEEONSt16remove_referenceIT_E4typeEOS5_
FNDA:14,_ZSt4moveIRSaIN4opae7testing11test_deviceEEEONSt16remove_referenceIT_E4typeEOS6_
FNDA:225,_ZSt4moveIRPN4opae7testing11test_deviceEEONSt16remove_referenceIT_E4typeEOS6_
FNDA:1,_ZSt4moveIRN7testing8internal25ParameterizedTestCaseInfoI14buffer_prepareE17InstantiationInfoEEONSt16remove_referenceIT_E4typeEOS8_
FNDA:2,_ZSt4moveIRN7testing8internal10linked_ptrINS1_25ParameterizedTestCaseInfoI14buffer_prepareE8TestInfoEEEEONSt16remove_referenceIT_E4typeEOSA_
FNDA:1,_ZSt4moveIRPN7testing8internal29ParameterizedTestCaseInfoBaseEEONSt16remove_referenceIT_E4typeEOS6_
FNDA:13,_ZSt4moveIRSt6vectorIN4opae7testing11test_deviceESaIS3_EEEONSt16remove_referenceIT_E4typeEOS8_
FNDA:75,_ZSt4swapIPN4opae7testing11test_deviceEEvRT_S5_
FNF:27
FNH:27
DA:47,1057
DA:50,1057
DA:76,1853
DA:77,1853
DA:101,292
DA:102,292
DA:166,75
DA:175,75
DA:176,75
DA:177,75
DA:178,75
LF:11
LH:11
end_of_record
SF:/usr/include/c++/4.8/bits/stl_algobase.h
FN:193,_ZSt3minImERKT_S2_S2_
FN:216,_ZSt3maxImERKT_S2_S2_
FN:277,_ZSt12__niter_baseIP13buffer_paramsENSt11_Niter_baseIT_E13iterator_typeES3_
FN:277,_ZSt12__niter_baseIPPN7testing8internal29ParameterizedTestCaseInfoBaseEENSt11_Niter_baseIT_E13iterator_typeES6_
FN:277,_ZSt12__niter_baseIPK13buffer_paramsENSt11_Niter_baseIT_E13iterator_typeES4_
FN:277,_ZSt12__niter_baseIN9__gnu_cxx17__normal_iteratorIPK13buffer_paramsSt6vectorIS2_SaIS2_EEEEENSt11_Niter_baseIT_E13iterator_typeESA_
FN:288,_ZSt12__miter_baseIPK13buffer_paramsENSt11_Miter_baseIT_E13iterator_typeES4_
FN:288,_ZSt12__miter_baseISt13move_iteratorIPPN7testing8internal29ParameterizedTestCaseInfoBaseEEENSt11_Miter_baseIT_E13iterator_typeES8_
FN:288,_ZSt12__miter_baseIN9__gnu_cxx17__normal_iteratorIPK13buffer_paramsSt6vectorIS2_SaIS2_EEEEENSt11_Miter_baseIT_E13iterator_typeESA_
FN:368,_ZNSt11__copy_moveILb1ELb1ESt26random_access_iterator_tagE8__copy_mIPN7testing8internal29ParameterizedTestCaseInfoBaseEEEPT_PKS7_SA_S8_
FN:368,_ZNSt11__copy_moveILb0ELb1ESt26random_access_iterator_tagE8__copy_mI13buffer_paramsEEPT_PKS4_S7_S5_
FN:379,_ZSt13__copy_move_aILb1EPPN7testing8internal29ParameterizedTestCaseInfoBaseES4_ET1_T0_S6_S5_
FN:379,_ZSt13__copy_move_aILb0EPK13buffer_paramsPS0_ET1_T0_S5_S4_
FN:424,_ZSt14__copy_move_a2ILb1EPPN7testing8internal29ParameterizedTestCaseInfoBaseES4_ET1_T0_S6_S5_
FN:424,_ZSt14__copy_move_a2ILb0EN9__gnu_cxx17__normal_iteratorIPK13buffer_paramsSt6vectorIS2_SaIS2_EEEEPS2_ET1_T0_SB_SA_
FN:424,_ZSt14__copy_move_a2ILb0EPK13buffer_paramsPS0_ET1_T0_S5_S4_
FN:450,_ZSt4copyISt13move_iteratorIPPN7testing8internal29ParameterizedTestCaseInfoBaseEES5_ET0_T_S8_S7_
FN:450,_ZSt4copyIN9__gnu_cxx17__normal_iteratorIPK13buffer_paramsSt6vectorIS2_SaIS2_EEEEPS2_ET0_T_SB_SA_
FN:450,_ZSt4copyIPK13buffer_paramsPS0_ET0_T_S5_S4_
FNDA:0,_ZSt3minImERKT_S2_S2_
FNDA:258,_ZSt3maxImERKT_S2_S2_
FNDA:4,_ZSt12__niter_baseIN9__gnu_cxx17__normal_iteratorIPK13buffer_paramsSt6vectorIS2_SaIS2_EEEEENSt11_Niter_baseIT_E13iterator_typeESA_
FNDA:3,_ZSt12__niter_baseIPPN7testing8internal29ParameterizedTestCaseInfoBaseEENSt11_Niter_baseIT_E13iterator_typeES6_
FNDA:3,_ZSt12__niter_baseIP13buffer_paramsENSt11_Niter_baseIT_E13iterator_typeES3_
FNDA:2,_ZSt12__niter_baseIPK13buffer_paramsENSt11_Niter_baseIT_E13iterator_typeES4_
FNDA:4,_ZSt12__miter_baseIN9__gnu_cxx17__normal_iteratorIPK13buffer_paramsSt6vectorIS2_SaIS2_EEEEENSt11_Miter_baseIT_E13iterator_typeESA_
FNDA:2,_ZSt12__miter_baseISt13move_iteratorIPPN7testing8internal29ParameterizedTestCaseInfoBaseEEENSt11_Miter_baseIT_E13iterator_typeES8_
FNDA:2,_ZSt12__miter_baseIPK13buffer_paramsENSt11_Miter_baseIT_E13iterator_typeES4_
FNDA:1,_ZNSt11__copy_moveILb1ELb1ESt26random_access_iterator_tagE8__copy_mIPN7testing8internal29ParameterizedTestCaseInfoBaseEEEPT_PKS7_SA_S8_
FNDA:3,_ZNSt11__copy_moveILb0ELb1ESt26random_access_iterator_tagE8__copy_mI13buffer_paramsEEPT_PKS4_S7_S5_
FNDA:1,_ZSt13__copy_move_aILb1EPPN7testing8internal29ParameterizedTestCaseInfoBaseES4_ET1_T0_S6_S5_
FNDA:3,_ZSt13__copy_move_aILb0EPK13buffer_paramsPS0_ET1_T0_S5_S4_
FNDA:2,_ZSt14__copy_move_a2ILb0EN9__gnu_cxx17__normal_iteratorIPK13buffer_paramsSt6vectorIS2_SaIS2_EEEEPS2_ET1_T0_SB_SA_
FNDA:1,_ZSt14__copy_move_a2ILb1EPPN7testing8internal29ParameterizedTestCaseInfoBaseES4_ET1_T0_S6_S5_
FNDA:1,_ZSt14__copy_move_a2ILb0EPK13buffer_paramsPS0_ET1_T0_S5_S4_
FNDA:2,_ZSt4copyIN9__gnu_cxx17__normal_iteratorIPK13buffer_paramsSt6vectorIS2_SaIS2_EEEEPS2_ET0_T_SB_SA_
FNDA:1,_ZSt4copyISt13move_iteratorIPPN7testing8internal29ParameterizedTestCaseInfoBaseEES5_ET0_T_S8_S7_
FNDA:1,_ZSt4copyIPK13buffer_paramsPS0_ET0_T_S5_S4_
FNF:19
FNH:18
DA:193,0
DA:198,0
DA:199,0
DA:200,0
DA:216,258
DA:221,258
DA:222,117
DA:223,141
DA:277,12
DA:278,12
DA:288,8
DA:289,8
DA:368,4
DA:370,4
DA:371,4
DA:372,3
DA:373,4
DA:379,4
DA:387,4
DA:390,4
DA:424,4
DA:428,4
DA:450,4
DA:460,4
LF:24
LH:20
end_of_record
SF:/usr/include/c++/4.8/bits/stl_construct.h
FN:74,_ZSt10_ConstructISsIRKSsEEvPT_DpOT0_
FN:74,_ZSt10_ConstructIN7testing8internal25ParameterizedTestCaseInfoI14buffer_prepareE17InstantiationInfoEIS5_EEvPT_DpOT0_
FN:74,_ZSt10_ConstructIN7testing8internal10linked_ptrINS1_25ParameterizedTestCaseInfoI14buffer_prepareE8TestInfoEEEIRS7_EEvPT_DpOT0_
FN:92,_ZSt8_DestroyIN7testing8internal10linked_ptrINS1_25ParameterizedTestCaseInfoI14buffer_prepareE8TestInfoEEEEvPT_
FN:92,_ZSt8_DestroyISsEvPT_
FN:92,_ZSt8_DestroyIN7testing8internal25ParameterizedTestCaseInfoI14buffer_prepareE17InstantiationInfoEEvPT_
FN:100,_ZNSt12_Destroy_auxILb0EE9__destroyIPN7testing8internal10linked_ptrINS3_25ParameterizedTestCaseInfoI14buffer_prepareE8TestInfoEEEEEvT_SB_
FN:100,_ZNSt12_Destroy_auxILb0EE9__destroyIPN7testing8internal25ParameterizedTestCaseInfoI14buffer_prepareE17InstantiationInfoEEEvT_S9_
FN:100,_ZNSt12_Destroy_auxILb0EE9__destroyIPSsEEvT_S3_
FN:112,_ZNSt12_Destroy_auxILb1EE9__destroyIPN4opae7testing11test_deviceEEEvT_S6_
FN:112,_ZNSt12_Destroy_auxILb1EE9__destroyIP13buffer_paramsEEvT_S4_
FN:112,_ZNSt12_Destroy_auxILb1EE9__destroyIPPN7testing8internal29ParameterizedTestCaseInfoBaseEEEvT_S7_
FN:122,_ZSt8_DestroyIPN7testing8internal25ParameterizedTestCaseInfoI14buffer_prepareE17InstantiationInfoEEvT_S7_
FN:122,_ZSt8_DestroyIPN4opae7testing11test_deviceEEvT_S4_
FN:122,_ZSt8_DestroyIPPN7testing8internal29ParameterizedTestCaseInfoBaseEEvT_S5_
FN:122,_ZSt8_DestroyIPN7testing8internal10linked_ptrINS1_25ParameterizedTestCaseInfoI14buffer_prepareE8TestInfoEEEEvT_S9_
FN:122,_ZSt8_DestroyIP13buffer_paramsEvT_S2_
FN:122,_ZSt8_DestroyIPSsEvT_S1_
FN:148,_ZSt8_DestroyIPN7testing8internal10linked_ptrINS1_25ParameterizedTestCaseInfoI14buffer_prepareE8TestInfoEEES7_EvT_S9_RSaIT0_E
FN:148,_ZSt8_DestroyIP13buffer_paramsS0_EvT_S2_RSaIT0_E
FN:148,_ZSt8_DestroyIPPN7testing8internal29ParameterizedTestCaseInfoBaseES3_EvT_S5_RSaIT0_E
FN:148,_ZSt8_DestroyIPN7testing8internal25ParameterizedTestCaseInfoI14buffer_prepareE17InstantiationInfoES5_EvT_S7_RSaIT0_E
FN:148,_ZSt8_DestroyIPN4opae7testing11test_deviceES2_EvT_S4_RSaIT0_E
FN:148,_ZSt8_DestroyIPSsSsEvT_S1_RSaIT0_E
FNDA:242,_ZSt10_ConstructISsIRKSsEEvPT_DpOT0_
FNDA:0,_ZSt10_ConstructIN7testing8internal25ParameterizedTestCaseInfoI14buffer_prepareE17InstantiationInfoEIS5_EEvPT_DpOT0_
FNDA:1,_ZSt10_ConstructIN7testing8internal10linked_ptrINS1_25ParameterizedTestCaseInfoI14buffer_prepareE8TestInfoEEEIRS7_EEvPT_DpOT0_
FNDA:1,_ZSt8_DestroyIN7testing8internal25ParameterizedTestCaseInfoI14buffer_prepareE17InstantiationInfoEEvPT_
FNDA:3,_ZSt8_DestroyIN7testing8internal10linked_ptrINS1_25ParameterizedTestCaseInfoI14buffer_prepareE8TestInfoEEEEvPT_
FNDA:640,_ZSt8_DestroyISsEvPT_
FNDA:2,_ZNSt12_Destroy_auxILb0EE9__destroyIPN7testing8internal25ParameterizedTestCaseInfoI14buffer_prepareE17InstantiationInfoEEEvT_S9_
FNDA:3,_ZNSt12_Destroy_auxILb0EE9__destroyIPN7testing8internal10linked_ptrINS3_25ParameterizedTestCaseInfoI14buffer_prepareE8TestInfoEEEEEvT_SB_
FNDA:486,_ZNSt12_Destroy_auxILb0EE9__destroyIPSsEEvT_S3_
FNDA:3,_ZNSt12_Destroy_auxILb1EE9__destroyIP13buffer_paramsEEvT_S4_
FNDA:40,_ZNSt12_Destroy_auxILb1EE9__destroyIPN4opae7testing11test_deviceEEEvT_S6_
FNDA:2,_ZNSt12_Destroy_auxILb1EE9__destroyIPPN7testing8internal29ParameterizedTestCaseInfoBaseEEEvT_S7_
FNDA:3,_ZSt8_DestroyIP13buffer_paramsEvT_S2_
FNDA:2,_ZSt8_DestroyIPN7testing8internal25ParameterizedTestCaseInfoI14buffer_prepareE17InstantiationInfoEEvT_S7_
FNDA:3,_ZSt8_DestroyIPN7testing8internal10linked_ptrINS1_25ParameterizedTestCaseInfoI14buffer_prepareE8TestInfoEEEEvT_S9_
FNDA:486,_ZSt8_DestroyIPSsEvT_S1_
FNDA:40,_ZSt8_DestroyIPN4opae7testing11test_deviceEEvT_S4_
FNDA:2,_ZSt8_DestroyIPPN7testing8internal29ParameterizedTestCaseInfoBaseEEvT_S5_
FNDA:3,_ZSt8_DestroyIP13buffer_paramsS0_EvT_S2_RSaIT0_E
FNDA:2,_ZSt8_DestroyIPN7testing8internal25ParameterizedTestCaseInfoI14buffer_prepareE17InstantiationInfoES5_EvT_S7_RSaIT0_E
FNDA:3,_ZSt8_DestroyIPN7testing8internal10linked_ptrINS1_25ParameterizedTestCaseInfoI14buffer_prepareE8TestInfoEEES7_EvT_S9_RSaIT0_E
FNDA:486,_ZSt8_DestroyIPSsSsEvT_S1_RSaIT0_E
FNDA:40,_ZSt8_DestroyIPN4opae7testing11test_deviceES2_EvT_S4_RSaIT0_E
FNDA:2,_ZSt8_DestroyIPPN7testing8internal29ParameterizedTestCaseInfoBaseES3_EvT_S5_RSaIT0_E
FNF:24
FNH:23
DA:74,243
DA:75,243
DA:92,644
DA:93,644
DA:100,491
DA:102,1135
DA:103,644
DA:104,491
DA:112,45
DA:122,536
DA:126,536
DA:128,536
DA:148,536
DA:151,536
DA:152,536
LF:15
LH:15
end_of_record
SF:/usr/include/c++/4.8/bits/stl_function.h
FN:234,_ZNKSt4lessISsEclERKSsS2_
FN:481,_ZNKSt9_IdentityISsEclERKSs
FNDA:112,_ZNKSt4lessISsEclERKSsS2_
FNDA:86,_ZNKSt9_IdentityISsEclERKSs
FNF:2
FNH:2
DA:234,112
DA:235,112
DA:481,86
DA:482,86
LF:4
LH:4
end_of_record
SF:/usr/include/c++/4.8/bits/stl_iterator.h
FN:726,_ZN9__gnu_cxx17__normal_iteratorIPPN7testing8internal29ParameterizedTestCaseInfoBaseESt6vectorIS4_SaIS4_EEEC2ERKS5_
FN:726,_ZN9__gnu_cxx17__normal_iteratorIPN7testing8internal25ParameterizedTestCaseInfoI14buffer_prepareE17InstantiationInfoESt6vectorIS6_SaIS6_EEEC2ERKS7_
FN:726,_ZN9__gnu_cxx17__normal_iteratorIPKSsSt6vectorISsSaISsEEEC2ERKS2_
FN:726,_ZN9__gnu_cxx17__normal_iteratorIPK13buffer_paramsSt6vectorIS1_SaIS1_EEEC2ERKS3_
FN:726,_ZN9__gnu_cxx17__normal_iteratorIPN7testing8internal10linked_ptrINS2_25ParameterizedTestCaseInfoI14buffer_prepareE8TestInfoEEESt6vectorIS8_SaIS8_EEEC2ERKS9_
FN:738,_ZNK9__gnu_cxx17__normal_iteratorIPPN7testing8internal29ParameterizedTestCaseInfoBaseESt6vectorIS4_SaIS4_EEEdeEv
FN:738,_ZNK9__gnu_cxx17__normal_iteratorIPN7testing8internal10linked_ptrINS2_25ParameterizedTestCaseInfoI14buffer_prepareE8TestInfoEEESt6vectorIS8_SaIS8_EEEdeEv
FN:738,_ZNK9__gnu_cxx17__normal_iteratorIPKSsSt6vectorISsSaISsEEEdeEv
FN:738,_ZNK9__gnu_cxx17__normal_iteratorIPK13buffer_paramsSt6vectorIS1_SaIS1_EEEdeEv
FN:742,_ZNK9__gnu_cxx17__normal_iteratorIPN7testing8internal25ParameterizedTestCaseInfoI14buffer_prepareE17InstantiationInfoESt6vectorIS6_SaIS6_EEEptEv
FN:746,_ZN9__gnu_cxx17__normal_iteratorIPKSsSt6vectorISsSaISsEEEppEv
FN:746,_ZN9__gnu_cxx17__normal_iteratorIPK13buffer_paramsSt6vectorIS1_SaIS1_EEEppEv
FN:746,_ZN9__gnu_cxx17__normal_iteratorIPN7testing8internal25ParameterizedTestCaseInfoI14buffer_prepareE17InstantiationInfoESt6vectorIS6_SaIS6_EEEppEv
FN:746,_ZN9__gnu_cxx17__normal_iteratorIPPN7testing8internal29ParameterizedTestCaseInfoBaseESt6vectorIS4_SaIS4_EEEppEv
FN:746,_ZN9__gnu_cxx17__normal_iteratorIPN7testing8internal10linked_ptrINS2_25ParameterizedTestCaseInfoI14buffer_prepareE8TestInfoEEESt6vectorIS8_SaIS8_EEEppEv
FN:790,_ZNK9__gnu_cxx17__normal_iteratorIPPN7testing8internal29ParameterizedTestCaseInfoBaseESt6vectorIS4_SaIS4_EEE4baseEv
FN:790,_ZNK9__gnu_cxx17__normal_iteratorIPK13buffer_paramsSt6vectorIS1_SaIS1_EEE4baseEv
FN:790,_ZNK9__gnu_cxx17__normal_iteratorIPKSsSt6vectorISsSaISsEEE4baseEv
FN:790,_ZNK9__gnu_cxx17__normal_iteratorIPN7testing8internal25ParameterizedTestCaseInfoI14buffer_prepareE17InstantiationInfoESt6vectorIS6_SaIS6_EEE4baseEv
FN:790,_ZNK9__gnu_cxx17__normal_iteratorIPN7testing8internal10linked_ptrINS2_25ParameterizedTestCaseInfoI14buffer_prepareE8TestInfoEEESt6vectorIS8_SaIS8_EEE4baseEv
FN:811,_ZN9__gnu_cxxeqIPK13buffer_paramsSt6vectorIS1_SaIS1_EEEEbRKNS_17__normal_iteratorIT_T0_EESC_
FN:811,_ZN9__gnu_cxxeqIPKSsSt6vectorISsSaISsEEEEbRKNS_17__normal_iteratorIT_T0_EESB_
FN:823,_ZN9__gnu_cxxneIPKSsSt6vectorISsSaISsEEEEbRKNS_17__normal_iteratorIT_T0_EESB_
FN:823,_ZN9__gnu_cxxneIPPN7testing8internal29ParameterizedTestCaseInfoBaseESt6vectorIS4_SaIS4_EEEEbRKNS_17__normal_iteratorIT_T0_EESE_
FN:823,_ZN9__gnu_cxxneIPN7testing8internal10linked_ptrINS2_25ParameterizedTestCaseInfoI14buffer_prepareE8TestInfoEEESt6vectorIS8_SaIS8_EEEEbRKNS_17__normal_iteratorIT_T0_EESI_
FN:823,_ZN9__gnu_cxxneIPN7testing8internal25ParameterizedTestCaseInfoI14buffer_prepareE17InstantiationInfoESt6vectorIS6_SaIS6_EEEEbRKNS_17__normal_iteratorIT_T0_EESG_
FN:896,_ZN9__gnu_cxxmiIPKSsSt6vectorISsSaISsEEEENS_17__normal_iteratorIT_T0_E15difference_typeERKS9_SC_
FN:896,_ZN9__gnu_cxxmiIPK13buffer_paramsSt6vectorIS1_SaIS1_EEEENS_17__normal_iteratorIT_T0_E15difference_typeERKSA_SD_
FN:950,_ZNSt13move_iteratorIPPN7testing8internal29ParameterizedTestCaseInfoBaseEEC2ES4_
FN:950,_ZNSt13move_iteratorIPN7testing8internal25ParameterizedTestCaseInfoI14buffer_prepareE17InstantiationInfoEEC2ES6_
FN:958,_ZNKSt13move_iteratorIPPN7testing8internal29ParameterizedTestCaseInfoBaseEE4baseEv
FN:958,_ZNKSt13move_iteratorIPN7testing8internal25ParameterizedTestCaseInfoI14buffer_prepareE17InstantiationInfoEE4baseEv
FN:962,_ZNKSt13move_iteratorIPN7testing8internal25ParameterizedTestCaseInfoI14buffer_prepareE17InstantiationInfoEEdeEv
FN:970,_ZNSt13move_iteratorIPN7testing8internal25ParameterizedTestCaseInfoI14buffer_prepareE17InstantiationInfoEEppEv
FN:1037,_ZSteqIPN7testing8internal25ParameterizedTestCaseInfoI14buffer_prepareE17InstantiationInfoEEbRKSt13move_iteratorIT_ESB_
FN:1049,_ZStneIPN7testing8internal25ParameterizedTestCaseInfoI14buffer_prepareE17InstantiationInfoEEbRKSt13move_iteratorIT_ESB_
FN:1132,_ZSt32__make_move_if_noexcept_iteratorIPPN7testing8internal29ParameterizedTestCaseInfoBaseESt13move_iteratorIS4_EET0_T_
FN:1132,_ZSt32__make_move_if_noexcept_iteratorIPN7testing8internal10linked_ptrINS1_25ParameterizedTestCaseInfoI14buffer_prepareE8TestInfoEEES8_ET0_T_
FN:1132,_ZSt32__make_move_if_noexcept_iteratorIPN7testing8internal25ParameterizedTestCaseInfoI14buffer_prepareE17InstantiationInfoESt13move_iteratorIS6_EET0_T_
FNDA:6,_ZN9__gnu_cxx17__normal_iteratorIPN7testing8internal25ParameterizedTestCaseInfoI14buffer_prepareE17InstantiationInfoESt6vectorIS6_SaIS6_EEEC2ERKS7_
FNDA:4,_ZN9__gnu_cxx17__normal_iteratorIPN7testing8internal10linked_ptrINS2_25ParameterizedTestCaseInfoI14buffer_prepareE8TestInfoEEESt6vectorIS8_SaIS8_EEEC2ERKS9_
FNDA:52,_ZN9__gnu_cxx17__normal_iteratorIPK13buffer_paramsSt6vectorIS1_SaIS1_EEEC2ERKS3_
FNDA:268,_ZN9__gnu_cxx17__normal_iteratorIPKSsSt6vectorISsSaISsEEEC2ERKS2_
FNDA:12,_ZN9__gnu_cxx17__normal_iteratorIPPN7testing8internal29ParameterizedTestCaseInfoBaseESt6vectorIS4_SaIS4_EEEC2ERKS5_
FNDA:12,_ZNK9__gnu_cxx17__normal_iteratorIPK13buffer_paramsSt6vectorIS1_SaIS1_EEEdeEv
FNDA:2,_ZNK9__gnu_cxx17__normal_iteratorIPN7testing8internal10linked_ptrINS2_25ParameterizedTestCaseInfoI14buffer_prepareE8TestInfoEEESt6vectorIS8_SaIS8_EEEdeEv
FNDA:244,_ZNK9__gnu_cxx17__normal_iteratorIPKSsSt6vectorISsSaISsEEEdeEv
FNDA:8,_ZNK9__gnu_cxx17__normal_iteratorIPPN7testing8internal29ParameterizedTestCaseInfoBaseESt6vectorIS4_SaIS4_EEEdeEv
FNDA:10,_ZNK9__gnu_cxx17__normal_iteratorIPN7testing8internal25ParameterizedTestCaseInfoI14buffer_prepareE17InstantiationInfoESt6vectorIS6_SaIS6_EEEptEv
FNDA:12,_ZN9__gnu_cxx17__normal_iteratorIPK13buffer_paramsSt6vectorIS1_SaIS1_EEEppEv
FNDA:2,_ZN9__gnu_cxx17__normal_iteratorIPN7testing8internal25ParameterizedTestCaseInfoI14buffer_prepareE17InstantiationInfoESt6vectorIS6_SaIS6_EEEppEv
FNDA:2,_ZN9__gnu_cxx17__normal_iteratorIPN7testing8internal10linked_ptrINS2_25ParameterizedTestCaseInfoI14buffer_prepareE8TestInfoEEESt6vectorIS8_SaIS8_EEEppEv
FNDA:244,_ZN9__gnu_cxx17__normal_iteratorIPKSsSt6vectorISsSaISsEEEppEv
FNDA:2,_ZN9__gnu_cxx17__normal_iteratorIPPN7testing8internal29ParameterizedTestCaseInfoBaseESt6vectorIS4_SaIS4_EEEppEv
FNDA:8,_ZNK9__gnu_cxx17__normal_iteratorIPN7testing8internal25ParameterizedTestCaseInfoI14buffer_prepareE17InstantiationInfoESt6vectorIS6_SaIS6_EEE4baseEv
FNDA:6,_ZNK9__gnu_cxx17__normal_iteratorIPN7testing8internal10linked_ptrINS2_25ParameterizedTestCaseInfoI14buffer_prepareE8TestInfoEEESt6vectorIS8_SaIS8_EEE4baseEv
FNDA:104,_ZNK9__gnu_cxx17__normal_iteratorIPK13buffer_paramsSt6vectorIS1_SaIS1_EEE4baseEv
FNDA:844,_ZNK9__gnu_cxx17__normal_iteratorIPKSsSt6vectorISsSaISsEEE4baseEv
FNDA:14,_ZNK9__gnu_cxx17__normal_iteratorIPPN7testing8internal29ParameterizedTestCaseInfoBaseESt6vectorIS4_SaIS4_EEE4baseEv
FNDA:48,_ZN9__gnu_cxxeqIPK13buffer_paramsSt6vectorIS1_SaIS1_EEEEbRKNS_17__normal_iteratorIT_T0_EESC_
FNDA:68,_ZN9__gnu_cxxeqIPKSsSt6vectorISsSaISsEEEEbRKNS_17__normal_iteratorIT_T0_EESB_
FNDA:4,_ZN9__gnu_cxxneIPN7testing8internal25ParameterizedTestCaseInfoI14buffer_prepareE17InstantiationInfoESt6vectorIS6_SaIS6_EEEEbRKNS_17__normal_iteratorIT_T0_EESG_
FNDA:3,_ZN9__gnu_cxxneIPN7testing8internal10linked_ptrINS2_25ParameterizedTestCaseInfoI14buffer_prepareE8TestInfoEEESt6vectorIS8_SaIS8_EEEEbRKNS_17__normal_iteratorIT_T0_EESI_
FNDA:352,_ZN9__gnu_cxxneIPKSsSt6vectorISsSaISsEEEEbRKNS_17__normal_iteratorIT_T0_EESB_
FNDA:7,_ZN9__gnu_cxxneIPPN7testing8internal29ParameterizedTestCaseInfoBaseESt6vectorIS4_SaIS4_EEEEbRKNS_17__normal_iteratorIT_T0_EESE_
FNDA:2,_ZN9__gnu_cxxmiIPK13buffer_paramsSt6vectorIS1_SaIS1_EEEENS_17__normal_iteratorIT_T0_E15difference_typeERKSA_SD_
FNDA:2,_ZN9__gnu_cxxmiIPKSsSt6vectorISsSaISsEEEENS_17__normal_iteratorIT_T0_E15difference_typeERKS9_SC_
FNDA:2,_ZNSt13move_iteratorIPN7testing8internal25ParameterizedTestCaseInfoI14buffer_prepareE17InstantiationInfoEEC2ES6_
FNDA:2,_ZNSt13move_iteratorIPPN7testing8internal29ParameterizedTestCaseInfoBaseEEC2ES4_
FNDA:2,_ZNKSt13move_iteratorIPPN7testing8internal29ParameterizedTestCaseInfoBaseEE4baseEv
FNDA:2,_ZNKSt13move_iteratorIPN7testing8internal25ParameterizedTestCaseInfoI14buffer_prepareE17InstantiationInfoEE4baseEv
FNDA:0,_ZNKSt13move_iteratorIPN7testing8internal25ParameterizedTestCaseInfoI14buffer_prepareE17InstantiationInfoEEdeEv
FNDA:0,_ZNSt13move_iteratorIPN7testing8internal25ParameterizedTestCaseInfoI14buffer_prepareE17InstantiationInfoEEppEv
FNDA:1,_ZSteqIPN7testing8internal25ParameterizedTestCaseInfoI14buffer_prepareE17InstantiationInfoEEbRKSt13move_iteratorIT_ESB_
FNDA:1,_ZStneIPN7testing8internal25ParameterizedTestCaseInfoI14buffer_prepareE17InstantiationInfoEEbRKSt13move_iteratorIT_ESB_
FNDA:2,_ZSt32__make_move_if_noexcept_iteratorIPN7testing8internal25ParameterizedTestCaseInfoI14buffer_prepareE17InstantiationInfoESt13move_iteratorIS6_EET0_T_
FNDA:4,_ZSt32__make_move_if_noexcept_iteratorIPN7testing8internal10linked_ptrINS1_25ParameterizedTestCaseInfoI14buffer_prepareE8TestInfoEEES8_ET0_T_
FNDA:2,_ZSt32__make_move_if_noexcept_iteratorIPPN7testing8internal29ParameterizedTestCaseInfoBaseESt13move_iteratorIS4_EET0_T_
FNF:39
FNH:37
DA:726,342
DA:738,266
DA:739,266
DA:742,10
DA:743,10
DA:746,262
DA:748,262
DA:749,262
DA:790,976
DA:791,976
DA:811,116
DA:813,116
DA:823,366
DA:825,366
DA:896,4
DA:898,4
DA:950,4
DA:951,4
DA:958,4
DA:959,4
DA:962,0
DA:963,0
DA:970,0
DA:972,0
DA:973,0
DA:1037,1
DA:1039,1
DA:1049,1
DA:1051,1
DA:1132,8
DA:1133,8
LF:31
LH:26
end_of_record
SF:/usr/include/c++/4.8/bits/stl_iterator_base_funcs.h
FN:90,_ZSt10__distanceIPcENSt15iterator_traitsIT_E15difference_typeES2_S2_St26random_access_iterator_tag
FN:90,_ZSt10__distanceIN9__gnu_cxx17__normal_iteratorIPKSsSt6vectorISsSaISsEEEEENSt15iterator_traitsIT_E15difference_typeES9_S9_St26random_access_iterator_tag
FN:90,_ZSt10__distanceIN9__gnu_cxx17__normal_iteratorIPK13buffer_paramsSt6vectorIS2_SaIS2_EEEEENSt15iterator_traitsIT_E15difference_typeESA_SA_St26random_access_iterator_tag
FN:90,_ZSt10__distanceIPK13buffer_paramsENSt15iterator_traitsIT_E15difference_typeES4_S4_St26random_access_iterator_tag
FN:114,_ZSt8distanceIN9__gnu_cxx17__normal_iteratorIPK13buffer_paramsSt6vectorIS2_SaIS2_EEEEENSt15iterator_traitsIT_E15difference_typeESA_SA_
FN:114,_ZSt8distanceIPcENSt15iterator_traitsIT_E15difference_typeES2_S2_
FN:114,_ZSt8distanceIN9__gnu_cxx17__normal_iteratorIPKSsSt6vectorISsSaISsEEEEENSt15iterator_traitsIT_E15difference_typeES9_S9_
FN:114,_ZSt8distanceIPK13buffer_paramsENSt15iterator_traitsIT_E15difference_typeES4_S4_
FNDA:2,_ZSt10__distanceIN9__gnu_cxx17__normal_iteratorIPK13buffer_paramsSt6vectorIS2_SaIS2_EEEEENSt15iterator_traitsIT_E15difference_typeESA_SA_St26random_access_iterator_tag
FNDA:2,_ZSt10__distanceIN9__gnu_cxx17__normal_iteratorIPKSsSt6vectorISsSaISsEEEEENSt15iterator_traitsIT_E15difference_typeES9_S9_St26random_access_iterator_tag
FNDA:0,_ZSt10__distanceIPcENSt15iterator_traitsIT_E15difference_typeES2_S2_St26random_access_iterator_tag
FNDA:1,_ZSt10__distanceIPK13buffer_paramsENSt15iterator_traitsIT_E15difference_typeES4_S4_St26random_access_iterator_tag
FNDA:2,_ZSt8distanceIN9__gnu_cxx17__normal_iteratorIPK13buffer_paramsSt6vectorIS2_SaIS2_EEEEENSt15iterator_traitsIT_E15difference_typeESA_SA_
FNDA:2,_ZSt8distanceIN9__gnu_cxx17__normal_iteratorIPKSsSt6vectorISsSaISsEEEEENSt15iterator_traitsIT_E15difference_typeES9_S9_
FNDA:0,_ZSt8distanceIPcENSt15iterator_traitsIT_E15difference_typeES2_S2_
FNDA:1,_ZSt8distanceIPK13buffer_paramsENSt15iterator_traitsIT_E15difference_typeES4_S4_
FNF:8
FNH:6
DA:90,5
DA:96,5
DA:114,5
DA:118,5
LF:4
LH:4
end_of_record
SF:/usr/include/c++/4.8/bits/stl_iterator_base_types.h
FN:201,_ZSt19__iterator_categoryIN9__gnu_cxx17__normal_iteratorIPKSsSt6vectorISsSaISsEEEEENSt15iterator_traitsIT_E17iterator_categoryERKS9_
FN:201,_ZSt19__iterator_categoryIPK13buffer_paramsENSt15iterator_traitsIT_E17iterator_categoryERKS4_
FN:201,_ZSt19__iterator_categoryIN9__gnu_cxx17__normal_iteratorIPK13buffer_paramsSt6vectorIS2_SaIS2_EEEEENSt15iterator_traitsIT_E17iterator_categoryERKSA_
FN:201,_ZSt19__iterator_categoryIPcENSt15iterator_traitsIT_E17iterator_categoryERKS2_
FN:212,_ZNSt10_Iter_baseIPK13buffer_paramsLb0EE7_S_baseES2_
FN:212,_ZNSt10_Iter_baseIN9__gnu_cxx17__normal_iteratorIPK13buffer_paramsSt6vectorIS2_SaIS2_EEEELb0EE7_S_baseES8_
FN:212,_ZNSt10_Iter_baseIPPN7testing8internal29ParameterizedTestCaseInfoBaseELb0EE7_S_baseES4_
FN:212,_ZNSt10_Iter_baseIP13buffer_paramsLb0EE7_S_baseES1_
FN:220,_ZNSt10_Iter_baseIN9__gnu_cxx17__normal_iteratorIPK13buffer_paramsSt6vectorIS2_SaIS2_EEEELb1EE7_S_baseES8_
FN:220,_ZNSt10_Iter_baseISt13move_iteratorIPPN7testing8internal29ParameterizedTestCaseInfoBaseEELb1EE7_S_baseES6_
FNDA:2,_ZSt19__iterator_categoryIN9__gnu_cxx17__normal_iteratorIPK13buffer_paramsSt6vectorIS2_SaIS2_EEEEENSt15iterator_traitsIT_E17iterator_categoryERKSA_
FNDA:2,_ZSt19__iterator_categoryIN9__gnu_cxx17__normal_iteratorIPKSsSt6vectorISsSaISsEEEEENSt15iterator_traitsIT_E17iterator_categoryERKS9_
FNDA:0,_ZSt19__iterator_categoryIPcENSt15iterator_traitsIT_E17iterator_categoryERKS2_
FNDA:1,_ZSt19__iterator_categoryIPK13buffer_paramsENSt15iterator_traitsIT_E17iterator_categoryERKS4_
FNDA:4,_ZNSt10_Iter_baseIN9__gnu_cxx17__normal_iteratorIPK13buffer_paramsSt6vectorIS2_SaIS2_EEEELb0EE7_S_baseES8_
FNDA:3,_ZNSt10_Iter_baseIPPN7testing8internal29ParameterizedTestCaseInfoBaseELb0EE7_S_baseES4_
FNDA:3,_ZNSt10_Iter_baseIP13buffer_paramsLb0EE7_S_baseES1_
FNDA:4,_ZNSt10_Iter_baseIPK13buffer_paramsLb0EE7_S_baseES2_
FNDA:4,_ZNSt10_Iter_baseIN9__gnu_cxx17__normal_iteratorIPK13buffer_paramsSt6vectorIS2_SaIS2_EEEELb1EE7_S_baseES8_
FNDA:2,_ZNSt10_Iter_baseISt13move_iteratorIPPN7testing8internal29ParameterizedTestCaseInfoBaseEELb1EE7_S_baseES6_
FNF:10
FNH:9
DA:201,5
DA:202,5
DA:212,14
DA:213,14
DA:220,6
DA:221,6
LF:6
LH:6
end_of_record
SF:/usr/include/c++/4.8/bits/stl_pair.h
FN:133,_ZNSt4pairIPSt18_Rb_tree_node_baseS1_EC2IRS1_vEEOT_RKS1_
FN:144,_ZNSt4pairIPSt18_Rb_tree_node_baseS1_EC2IRPSt13_Rb_tree_nodeISsES7_vEEOT_OT0_
FN:144,_ZNSt4pairISt17_Rb_tree_iteratorISsEbEC2IS1_bvEEOT_OT0_
FN:144,_ZNSt4pairISt23_Rb_tree_const_iteratorISsEbEC2IRSt17_Rb_tree_iteratorISsERbvEEOT_OT0_
FNDA:0,_ZNSt4pairIPSt18_Rb_tree_node_baseS1_EC2IRS1_vEEOT_RKS1_
FNDA:12,_ZNSt4pairIPSt18_Rb_tree_node_baseS1_EC2IRPSt13_Rb_tree_nodeISsES7_vEEOT_OT0_
FNDA:12,_ZNSt4pairISt17_Rb_tree_iteratorISsEbEC2IS1_bvEEOT_OT0_
FNDA:12,_ZNSt4pairISt23_Rb_tree_const_iteratorISsEbEC2IRSt17_Rb_tree_iteratorISsERbvEEOT_OT0_
FNF:4
FNH:3
DA:133,0
DA:134,0
DA:144,36
DA:145,36
LF:4
LH:2
end_of_record
SF:/usr/include/c++/4.8/bits/stl_set.h
FN:90,_ZNSt3setISsSt4lessISsESaISsEED2Ev
FN:139,_ZNSt3setISsSt4lessISsESaISsEEC2Ev
FN:460,_ZNSt3setISsSt4lessISsESaISsEE6insertERKSs
FN:644,_ZNKSt3setISsSt4lessISsESaISsEE5countERKSs
FNDA:2,_ZNSt3setISsSt4lessISsESaISsEED2Ev
FNDA:2,_ZNSt3setISsSt4lessISsESaISsEEC2Ev
FNDA:12,_ZNSt3setISsSt4lessISsESaISsEE6insertERKSs
FNDA:12,_ZNKSt3setISsSt4lessISsESaISsEE5countERKSs
FNF:4
FNH:4
DA:90,2
DA:139,2
DA:140,2
DA:460,12
DA:463,12
DA:464,12
DA:644,12
DA:645,12
LF:8
LH:8
end_of_record
SF:/usr/include/c++/4.8/bits/stl_tree.h
FN:131,_ZNSt13_Rb_tree_nodeISsED2Ev
FN:138,_ZNSt13_Rb_tree_nodeISsEC2IIRKSsEEEDpOT_
FN:174,_ZNSt17_Rb_tree_iteratorISsEC2EPSt13_Rb_tree_nodeISsE
FN:202,_ZNSt17_Rb_tree_iteratorISsEmmEv
FN:217,_ZNKSt17_Rb_tree_iteratorISsEeqERKS0_
FN:247,_ZNSt23_Rb_tree_const_iteratorISsEC2EPKSt13_Rb_tree_nodeISsE
FN:250,_ZNSt23_Rb_tree_const_iteratorISsEC2ERKSt17_Rb_tree_iteratorISsE
FN:298,_ZNKSt23_Rb_tree_const_iteratorISsEeqERKS0_
FN:356,_ZNSt8_Rb_treeISsSsSt9_IdentityISsESt4lessISsESaISsEE21_M_get_Node_allocatorEv
FN:369,_ZNSt8_Rb_treeISsSsSt9_IdentityISsESt4lessISsESaISsEE11_M_get_nodeEv
FN:373,_ZNSt8_Rb_treeISsSsSt9_IdentityISsESt4lessISsESaISsEE11_M_put_nodeEPSt13_Rb_tree_nodeISsE
FN:401,_ZNSt8_Rb_treeISsSsSt9_IdentityISsESt4lessISsESaISsEE14_M_create_nodeIIRKSsEEEPSt13_Rb_tree_nodeISsEDpOT_
FN:419,_ZNSt8_Rb_treeISsSsSt9_IdentityISsESt4lessISsESaISsEE15_M_destroy_nodeEPSt13_Rb_tree_nodeISsE
FN:439,_ZNSt8_Rb_treeISsSsSt9_IdentityISsESt4lessISsESaISsEE13_Rb_tree_implIS3_Lb1EED2Ev
FN:445,_ZNSt8_Rb_treeISsSsSt9_IdentityISsESt4lessISsESaISsEE13_Rb_tree_implIS3_Lb1EEC2Ev
FN:464,_ZNSt8_Rb_treeISsSsSt9_IdentityISsESt4lessISsESaISsEE13_Rb_tree_implIS3_Lb1EE13_M_initializeEv
FN:501,_ZNSt8_Rb_treeISsSsSt9_IdentityISsESt4lessISsESaISsEE8_M_beginEv
FN:505,_ZNKSt8_Rb_treeISsSsSt9_IdentityISsESt4lessISsESaISsEE8_M_beginEv
FN:512,_ZNSt8_Rb_treeISsSsSt9_IdentityISsESt4lessISsESaISsEE6_M_endEv
FN:516,_ZNKSt8_Rb_treeISsSsSt9_IdentityISsESt4lessISsESaISsEE6_M_endEv
FN:520,_ZNSt8_Rb_treeISsSsSt9_IdentityISsESt4lessISsESaISsEE8_S_valueEPKSt13_Rb_tree_nodeISsE
FN:524,_ZNSt8_Rb_treeISsSsSt9_IdentityISsESt4lessISsESaISsEE6_S_keyEPKSt13_Rb_tree_nodeISsE
FN:528,_ZNSt8_Rb_treeISsSsSt9_IdentityISsESt4lessISsESaISsEE7_S_leftEPSt18_Rb_tree_node_base
FN:532,_ZNSt8_Rb_treeISsSsSt9_IdentityISsESt4lessISsESaISsEE7_S_leftEPKSt18_Rb_tree_node_base
FN:536,_ZNSt8_Rb_treeISsSsSt9_IdentityISsESt4lessISsESaISsEE8_S_rightEPSt18_Rb_tree_node_base
FN:540,_ZNSt8_Rb_treeISsSsSt9_IdentityISsESt4lessISsESaISsEE8_S_rightEPKSt18_Rb_tree_node_base
FN:544,_ZNSt8_Rb_treeISsSsSt9_IdentityISsESt4lessISsESaISsEE8_S_valueEPKSt18_Rb_tree_node_base
FN:548,_ZNSt8_Rb_treeISsSsSt9_IdentityISsESt4lessISsESaISsEE6_S_keyEPKSt18_Rb_tree_node_base
FN:648,_ZNSt8_Rb_treeISsSsSt9_IdentityISsESt4lessISsESaISsEEC2Ev
FN:670,_ZNSt8_Rb_treeISsSsSt9_IdentityISsESt4lessISsESaISsEED2Ev
FN:682,_ZNSt8_Rb_treeISsSsSt9_IdentityISsESt4lessISsESaISsEE5beginEv
FN:700,_ZNKSt8_Rb_treeISsSsSt9_IdentityISsESt4lessISsESaISsEE3endEv
FN:1012,_ZNSt8_Rb_treeISsSsSt9_IdentityISsESt4lessISsESaISsEE10_M_insert_IRKSsEESt17_Rb_tree_iteratorISsEPSt18_Rb_tree_node_baseSC_OT_
FN:1119,_ZNSt8_Rb_treeISsSsSt9_IdentityISsESt4lessISsESaISsEE8_M_eraseEPSt13_Rb_tree_nodeISsE
FN:1152,_ZNKSt8_Rb_treeISsSsSt9_IdentityISsESt4lessISsESaISsEE14_M_lower_boundEPKSt13_Rb_tree_nodeISsES9_RKSs
FN:1314,_ZNSt8_Rb_treeISsSsSt9_IdentityISsESt4lessISsESaISsEE24_M_get_insert_unique_posERKSs
FN:1368,_ZNSt8_Rb_treeISsSsSt9_IdentityISsESt4lessISsESaISsEE16_M_insert_uniqueIRKSsEESt4pairISt17_Rb_tree_iteratorISsEbEOT_
FN:1802,_ZNKSt8_Rb_treeISsSsSt9_IdentityISsESt4lessISsESaISsEE4findERKSs
FNDA:12,_ZNSt13_Rb_tree_nodeISsED2Ev
FNDA:12,_ZNSt13_Rb_tree_nodeISsEC2IIRKSsEEEDpOT_
FNDA:26,_ZNSt17_Rb_tree_iteratorISsEC2EPSt13_Rb_tree_nodeISsE
FNDA:0,_ZNSt17_Rb_tree_iteratorISsEmmEv
FNDA:2,_ZNKSt17_Rb_tree_iteratorISsEeqERKS0_
FNDA:48,_ZNSt23_Rb_tree_const_iteratorISsEC2EPKSt13_Rb_tree_nodeISsE
FNDA:12,_ZNSt23_Rb_tree_const_iteratorISsEC2ERKSt17_Rb_tree_iteratorISsE
FNDA:24,_ZNKSt23_Rb_tree_const_iteratorISsEeqERKS0_
FNDA:24,_ZNSt8_Rb_treeISsSsSt9_IdentityISsESt4lessISsESaISsEE21_M_get_Node_allocatorEv
FNDA:12,_ZNSt8_Rb_treeISsSsSt9_IdentityISsESt4lessISsESaISsEE11_M_get_nodeEv
FNDA:12,_ZNSt8_Rb_treeISsSsSt9_IdentityISsESt4lessISsESaISsEE11_M_put_nodeEPSt13_Rb_tree_nodeISsE
FNDA:12,_ZNSt8_Rb_treeISsSsSt9_IdentityISsESt4lessISsESaISsEE14_M_create_nodeIIRKSsEEEPSt13_Rb_tree_nodeISsEDpOT_
FNDA:12,_ZNSt8_Rb_treeISsSsSt9_IdentityISsESt4lessISsESaISsEE15_M_destroy_nodeEPSt13_Rb_tree_nodeISsE
FNDA:2,_ZNSt8_Rb_treeISsSsSt9_IdentityISsESt4lessISsESaISsEE13_Rb_tree_implIS3_Lb1EED2Ev
FNDA:2,_ZNSt8_Rb_treeISsSsSt9_IdentityISsESt4lessISsESaISsEE13_Rb_tree_implIS3_Lb1EEC2Ev
FNDA:2,_ZNSt8_Rb_treeISsSsSt9_IdentityISsESt4lessISsESaISsEE13_Rb_tree_implIS3_Lb1EE13_M_initializeEv
FNDA:14,_ZNSt8_Rb_treeISsSsSt9_IdentityISsESt4lessISsESaISsEE8_M_beginEv
FNDA:12,_ZNKSt8_Rb_treeISsSsSt9_IdentityISsESt4lessISsESaISsEE8_M_beginEv
FNDA:24,_ZNSt8_Rb_treeISsSsSt9_IdentityISsESt4lessISsESaISsEE6_M_endEv
FNDA:12,_ZNKSt8_Rb_treeISsSsSt9_IdentityISsESt4lessISsESaISsEE6_M_endEv
FNDA:44,_ZNSt8_Rb_treeISsSsSt9_IdentityISsESt4lessISsESaISsEE8_S_valueEPKSt13_Rb_tree_nodeISsE
FNDA:44,_ZNSt8_Rb_treeISsSsSt9_IdentityISsESt4lessISsESaISsEE6_S_keyEPKSt13_Rb_tree_nodeISsE
FNDA:12,_ZNSt8_Rb_treeISsSsSt9_IdentityISsESt4lessISsESaISsEE7_S_leftEPSt18_Rb_tree_node_base
FNDA:0,_ZNSt8_Rb_treeISsSsSt9_IdentityISsESt4lessISsESaISsEE7_S_leftEPKSt18_Rb_tree_node_base
FNDA:34,_ZNSt8_Rb_treeISsSsSt9_IdentityISsESt4lessISsESaISsEE8_S_rightEPSt18_Rb_tree_node_base
FNDA:22,_ZNSt8_Rb_treeISsSsSt9_IdentityISsESt4lessISsESaISsEE8_S_rightEPKSt18_Rb_tree_node_base
FNDA:20,_ZNSt8_Rb_treeISsSsSt9_IdentityISsESt4lessISsESaISsEE8_S_valueEPKSt18_Rb_tree_node_base
FNDA:20,_ZNSt8_Rb_treeISsSsSt9_IdentityISsESt4lessISsESaISsEE6_S_keyEPKSt18_Rb_tree_node_base
FNDA:2,_ZNSt8_Rb_treeISsSsSt9_IdentityISsESt4lessISsESaISsEEC2Ev
FNDA:2,_ZNSt8_Rb_treeISsSsSt9_IdentityISsESt4lessISsESaISsEED2Ev
FNDA:2,_ZNSt8_Rb_treeISsSsSt9_IdentityISsESt4lessISsESaISsEE5beginEv
FNDA:36,_ZNKSt8_Rb_treeISsSsSt9_IdentityISsESt4lessISsESaISsEE3endEv
FNDA:12,_ZNSt8_Rb_treeISsSsSt9_IdentityISsESt4lessISsESaISsEE10_M_insert_IRKSsEESt17_Rb_tree_iteratorISsEPSt18_Rb_tree_node_baseSC_OT_
FNDA:14,_ZNSt8_Rb_treeISsSsSt9_IdentityISsESt4lessISsESaISsEE8_M_eraseEPSt13_Rb_tree_nodeISsE
FNDA:12,_ZNKSt8_Rb_treeISsSsSt9_IdentityISsESt4lessISsESaISsEE14_M_lower_boundEPKSt13_Rb_tree_nodeISsES9_RKSs
FNDA:12,_ZNSt8_Rb_treeISsSsSt9_IdentityISsESt4lessISsESaISsEE24_M_get_insert_unique_posERKSs
FNDA:12,_ZNSt8_Rb_treeISsSsSt9_IdentityISsESt4lessISsESaISsEE16_M_insert_uniqueIRKSsEESt4pairISt17_Rb_tree_iteratorISsEbEOT_
FNDA:12,_ZNKSt8_Rb_treeISsSsSt9_IdentityISsESt4lessISsESaISsEE4findERKSs
FNF:38
FNH:36
DA:131,12
DA:138,12
DA:140,12
DA:174,26
DA:175,26
DA:202,0
DA:204,0
DA:205,0
DA:217,2
DA:218,2
DA:247,48
DA:248,48
DA:250,12
DA:251,12
DA:298,24
DA:299,24
DA:356,24
DA:357,24
DA:369,12
DA:370,12
DA:373,12
DA:374,12
DA:401,12
DA:403,12
DA:406,12
DA:407,12
DA:408,12
DA:410,=====
DA:412,=====
DA:413,=====
DA:415,12
DA:419,12
DA:421,12
DA:422,12
DA:423,12
DA:439,2
DA:445,2
DA:447,2
DA:448,2
DA:464,2
DA:466,2
DA:467,2
DA:468,2
DA:469,2
DA:470,2
DA:501,14
DA:502,14
DA:505,12
DA:508,12
DA:512,24
DA:513,24
DA:516,12
DA:517,12
DA:520,44
DA:521,44
DA:524,44
DA:525,44
DA:528,12
DA:529,12
DA:532,0
DA:533,0
DA:536,34
DA:537,34
DA:540,22
DA:541,22
DA:544,20
DA:545,20
DA:548,20
DA:549,20
DA:648,2
DA:670,2
DA:671,2
DA:682,2
DA:685,2
DA:700,36
DA:703,36
DA:1012,12
DA:1019,12
DA:1020,32
DA:1021,36
DA:1023,12
DA:1025,12
DA:1026,12
DA:1027,12
DA:1028,12
DA:1119,14
DA:1123,40
DA:1125,12
DA:1126,12
DA:1127,12
DA:1128,12
DA:1130,14
DA:1152,12
DA:1156,46
DA:1157,22
DA:1158,0
DA:1160,22
DA:1161,12
DA:1314,12
DA:1318,12
DA:1319,12
DA:1320,12
DA:1321,46
DA:1323,22
DA:1324,22
DA:1325,22
DA:1327,12
DA:1328,12
DA:1330,2
DA:1331,2
DA:1333,0
DA:1335,10
DA:1336,10
DA:1337,0
DA:1368,12
DA:1377,12
DA:1379,12
DA:1381,12
DA:1382,24
DA:1384,0
DA:1802,12
DA:1805,12
DA:1806,48
DA:1807,0
DA:1808,48
LF:125
LH:112
end_of_record
SF:/usr/include/c++/4.8/bits/stl_uninitialized.h
FN:68,_ZNSt20__uninitialized_copyILb0EE13__uninit_copyIN9__gnu_cxx17__normal_iteratorIPKSsSt6vectorISsSaISsEEEEPSsEET0_T_SC_SB_
FN:68,_ZNSt20__uninitialized_copyILb0EE13__uninit_copyIPN7testing8internal10linked_ptrINS3_25ParameterizedTestCaseInfoI14buffer_prepareE8TestInfoEEESA_EET0_T_SC_SB_
FN:68,_ZNSt20__uninitialized_copyILb0EE13__uninit_copyISt13move_iteratorIPN7testing8internal25ParameterizedTestCaseInfoI14buffer_prepareE17InstantiationInfoEES9_EET0_T_SC_SB_
FN:91,_ZNSt20__uninitialized_copyILb1EE13__uninit_copyIPK13buffer_paramsPS2_EET0_T_S7_S6_
FN:91,_ZNSt20__uninitialized_copyILb1EE13__uninit_copyISt13move_iteratorIPPN7testing8internal29ParameterizedTestCaseInfoBaseEES7_EET0_T_SA_S9_
FN:91,_ZNSt20__uninitialized_copyILb1EE13__uninit_copyIN9__gnu_cxx17__normal_iteratorIPK13buffer_paramsSt6vectorIS4_SaIS4_EEEEPS4_EET0_T_SD_SC_
FN:107,_ZSt18uninitialized_copyISt13move_iteratorIPPN7testing8internal29ParameterizedTestCaseInfoBaseEES5_ET0_T_S8_S7_
FN:107,_ZSt18uninitialized_copyISt13move_iteratorIPN7testing8internal25ParameterizedTestCaseInfoI14buffer_prepareE17InstantiationInfoEES7_ET0_T_SA_S9_
FN:107,_ZSt18uninitialized_copyIPN7testing8internal10linked_ptrINS1_25ParameterizedTestCaseInfoI14buffer_prepareE8TestInfoEEES8_ET0_T_SA_S9_
FN:107,_ZSt18uninitialized_copyIPK13buffer_paramsPS0_ET0_T_S5_S4_
FN:107,_ZSt18uninitialized_copyIN9__gnu_cxx17__normal_iteratorIPKSsSt6vectorISsSaISsEEEEPSsET0_T_SA_S9_
FN:107,_ZSt18uninitialized_copyIN9__gnu_cxx17__normal_iteratorIPK13buffer_paramsSt6vectorIS2_SaIS2_EEEEPS2_ET0_T_SB_SA_
FN:256,_ZSt22__uninitialized_copy_aIPN7testing8internal10linked_ptrINS1_25ParameterizedTestCaseInfoI14buffer_prepareE8TestInfoEEES8_S7_ET0_T_SA_S9_RSaIT1_E
FN:256,_ZSt22__uninitialized_copy_aIPK13buffer_paramsPS0_S0_ET0_T_S5_S4_RSaIT1_E
FN:256,_ZSt22__uninitialized_copy_aIN9__gnu_cxx17__normal_iteratorIPKSsSt6vectorISsSaISsEEEEPSsSsET0_T_SA_S9_RSaIT1_E
FN:256,_ZSt22__uninitialized_copy_aIN9__gnu_cxx17__normal_iteratorIPK13buffer_paramsSt6vectorIS2_SaIS2_EEEEPS2_S2_ET0_T_SB_SA_RSaIT1_E
FN:256,_ZSt22__uninitialized_copy_aISt13move_iteratorIPPN7testing8internal29ParameterizedTestCaseInfoBaseEES5_S4_ET0_T_S8_S7_RSaIT1_E
FN:256,_ZSt22__uninitialized_copy_aISt13move_iteratorIPN7testing8internal25ParameterizedTestCaseInfoI14buffer_prepareE17InstantiationInfoEES7_S6_ET0_T_SA_S9_RSaIT1_E
FN:274,_ZSt34__uninitialized_move_if_noexcept_aIPN7testing8internal10linked_ptrINS1_25ParameterizedTestCaseInfoI14buffer_prepareE8TestInfoEEES8_SaIS7_EET0_T_SB_SA_RT1_
FN:274,_ZSt34__uninitialized_move_if_noexcept_aIPN7testing8internal25ParameterizedTestCaseInfoI14buffer_prepareE17InstantiationInfoES6_SaIS5_EET0_T_S9_S8_RT1_
FN:274,_ZSt34__uninitialized_move_if_noexcept_aIPPN7testing8internal29ParameterizedTestCaseInfoBaseES4_SaIS3_EET0_T_S7_S6_RT1_
FNDA:110,_ZNSt20__uninitialized_copyILb0EE13__uninit_copyIN9__gnu_cxx17__normal_iteratorIPKSsSt6vectorISsSaISsEEEEPSsEET0_T_SC_SB_
FNDA:1,_ZNSt20__uninitialized_copyILb0EE13__uninit_copyISt13move_iteratorIPN7testing8internal25ParameterizedTestCaseInfoI14buffer_prepareE17InstantiationInfoEES9_EET0_T_SC_SB_
FNDA:2,_ZNSt20__uninitialized_copyILb0EE13__uninit_copyIPN7testing8internal10linked_ptrINS3_25ParameterizedTestCaseInfoI14buffer_prepareE8TestInfoEEESA_EET0_T_SC_SB_
FNDA:2,_ZNSt20__uninitialized_copyILb1EE13__uninit_copyIN9__gnu_cxx17__normal_iteratorIPK13buffer_paramsSt6vectorIS4_SaIS4_EEEEPS4_EET0_T_SD_SC_
FNDA:1,_ZNSt20__uninitialized_copyILb1EE13__uninit_copyISt13move_iteratorIPPN7testing8internal29ParameterizedTestCaseInfoBaseEES7_EET0_T_SA_S9_
FNDA:1,_ZNSt20__uninitialized_copyILb1EE13__uninit_copyIPK13buffer_paramsPS2_EET0_T_S7_S6_
FNDA:2,_ZSt18uninitialized_copyIN9__gnu_cxx17__normal_iteratorIPK13buffer_paramsSt6vectorIS2_SaIS2_EEEEPS2_ET0_T_SB_SA_
FNDA:110,_ZSt18uninitialized_copyIN9__gnu_cxx17__normal_iteratorIPKSsSt6vectorISsSaISsEEEEPSsET0_T_SA_S9_
FNDA:1,_ZSt18uninitialized_copyISt13move_iteratorIPN7testing8internal25ParameterizedTestCaseInfoI14buffer_prepareE17InstantiationInfoEES7_ET0_T_SA_S9_
FNDA:2,_ZSt18uninitialized_copyIPN7testing8internal10linked_ptrINS1_25ParameterizedTestCaseInfoI14buffer_prepareE8TestInfoEEES8_ET0_T_SA_S9_
FNDA:1,_ZSt18uninitialized_copyISt13move_iteratorIPPN7testing8internal29ParameterizedTestCaseInfoBaseEES5_ET0_T_S8_S7_
FNDA:1,_ZSt18uninitialized_copyIPK13buffer_paramsPS0_ET0_T_S5_S4_
FNDA:2,_ZSt22__uninitialized_copy_aIN9__gnu_cxx17__normal_iteratorIPK13buffer_paramsSt6vectorIS2_SaIS2_EEEEPS2_S2_ET0_T_SB_SA_RSaIT1_E
FNDA:110,_ZSt22__uninitialized_copy_aIN9__gnu_cxx17__normal_iteratorIPKSsSt6vectorISsSaISsEEEEPSsSsET0_T_SA_S9_RSaIT1_E
FNDA:1,_ZSt22__uninitialized_copy_aISt13move_iteratorIPN7testing8internal25ParameterizedTestCaseInfoI14buffer_prepareE17InstantiationInfoEES7_S6_ET0_T_SA_S9_RSaIT1_E
FNDA:2,_ZSt22__uninitialized_copy_aIPN7testing8internal10linked_ptrINS1_25ParameterizedTestCaseInfoI14buffer_prepareE8TestInfoEEES8_S7_ET0_T_SA_S9_RSaIT1_E
FNDA:1,_ZSt22__uninitialized_copy_aISt13move_iteratorIPPN7testing8internal29ParameterizedTestCaseInfoBaseEES5_S4_ET0_T_S8_S7_RSaIT1_E
FNDA:1,_ZSt22__uninitialized_copy_aIPK13buffer_paramsPS0_S0_ET0_T_S5_S4_RSaIT1_E
FNDA:1,_ZSt34__uninitialized_move_if_noexcept_aIPN7testing8internal25ParameterizedTestCaseInfoI14buffer_prepareE17InstantiationInfoES6_SaIS5_EET0_T_S9_S8_RT1_
FNDA:2,_ZSt34__uninitialized_move_if_noexcept_aIPN7testing8internal10linked_ptrINS1_25ParameterizedTestCaseInfoI14buffer_prepareE8TestInfoEEES8_SaIS7_EET0_T_SB_SA_RT1_
FNDA:1,_ZSt34__uninitialized_move_if_noexcept_aIPPN7testing8internal29ParameterizedTestCaseInfoBaseES4_SaIS3_EET0_T_S7_S6_RT1_
FNF:21
FNH:21
DA:68,113
DA:71,113
DA:74,356
DA:75,243
DA:76,113
DA:78,=====
DA:80,=====
DA:81,=====
DA:91,4
DA:93,4
DA:107,117
DA:117,117
DA:256,117
DA:258,117
DA:274,4
DA:281,4
LF:16
LH:13
end_of_record
SF:/usr/include/c++/4.8/bits/stl_vector.h
FN:79,_ZNSt12_Vector_baseI13buffer_paramsSaIS0_EE12_Vector_implD2Ev
FN:79,_ZNSt12_Vector_baseISsSaISsEE12_Vector_implD2Ev
FN:79,_ZNSt12_Vector_baseIN7testing8internal25ParameterizedTestCaseInfoI14buffer_prepareE17InstantiationInfoESaIS5_EE12_Vector_implD2Ev
FN:79,_ZNSt12_Vector_baseIN7testing8internal10linked_ptrINS1_25ParameterizedTestCaseInfoI14buffer_prepareE8TestInfoEEESaIS7_EE12_Vector_implD2Ev
FN:79,_ZNSt12_Vector_baseIN4opae7testing11test_deviceESaIS2_EE12_Vector_implD2Ev
FN:86,_ZNSt12_Vector_baseIN7testing8internal25ParameterizedTestCaseInfoI14buffer_prepareE17InstantiationInfoESaIS5_EE12_Vector_implC2Ev
FN:86,_ZNSt12_Vector_baseIN7testing8internal10linked_ptrINS1_25ParameterizedTestCaseInfoI14buffer_prepareE8TestInfoEEESaIS7_EE12_Vector_implC2Ev
FN:86,_ZNSt12_Vector_baseIN4opae7testing11test_deviceESaIS2_EE12_Vector_implC2Ev
FN:90,_ZNSt12_Vector_baseISsSaISsEE12_Vector_implC2ERKS0_
FN:90,_ZNSt12_Vector_baseIN4opae7testing11test_deviceESaIS2_EE12_Vector_implC2ERKS3_
FN:90,_ZNSt12_Vector_baseI13buffer_paramsSaIS0_EE12_Vector_implC2ERKS1_
FN:101,_ZNSt12_Vector_baseIN4opae7testing11test_deviceESaIS2_EE12_Vector_impl12_M_swap_dataERS5_
FN:113,_ZNSt12_Vector_baseIN4opae7testing11test_deviceESaIS2_EE19_M_get_Tp_allocatorEv
FN:113,_ZNSt12_Vector_baseISsSaISsEE19_M_get_Tp_allocatorEv
FN:113,_ZNSt12_Vector_baseIPN7testing8internal29ParameterizedTestCaseInfoBaseESaIS3_EE19_M_get_Tp_allocatorEv
FN:113,_ZNSt12_Vector_baseIN7testing8internal25ParameterizedTestCaseInfoI14buffer_prepareE17InstantiationInfoESaIS5_EE19_M_get_Tp_allocatorEv
FN:113,_ZNSt12_Vector_baseI13buffer_paramsSaIS0_EE19_M_get_Tp_allocatorEv
FN:113,_ZNSt12_Vector_baseIN7testing8internal10linked_ptrINS1_25ParameterizedTestCaseInfoI14buffer_prepareE8TestInfoEEESaIS7_EE19_M_get_Tp_allocatorEv
FN:117,_ZNKSt12_Vector_baseIPN7testing8internal29ParameterizedTestCaseInfoBaseESaIS3_EE19_M_get_Tp_allocatorEv
FN:117,_ZNKSt12_Vector_baseIN4opae7testing11test_deviceESaIS2_EE19_M_get_Tp_allocatorEv
FN:117,_ZNKSt12_Vector_baseIN7testing8internal25ParameterizedTestCaseInfoI14buffer_prepareE17InstantiationInfoESaIS5_EE19_M_get_Tp_allocatorEv
FN:117,_ZNKSt12_Vector_baseIN7testing8internal10linked_ptrINS1_25ParameterizedTestCaseInfoI14buffer_prepareE8TestInfoEEESaIS7_EE19_M_get_Tp_allocatorEv
FN:121,_ZNKSt12_Vector_baseIN4opae7testing11test_deviceESaIS2_EE13get_allocatorEv
FN:124,_ZNSt12_Vector_baseIN7testing8internal25ParameterizedTestCaseInfoI14buffer_prepareE17InstantiationInfoESaIS5_EEC2Ev
FN:124,_ZNSt12_Vector_baseIN7testing8internal10linked_ptrINS1_25ParameterizedTestCaseInfoI14buffer_prepareE8TestInfoEEESaIS7_EEC2Ev
FN:124,_ZNSt12_Vector_baseIN4opae7testing11test_deviceESaIS2_EEC2Ev
FN:127,_ZNSt12_Vector_baseISsSaISsEEC2ERKS0_
FN:127,_ZNSt12_Vector_baseI13buffer_paramsSaIS0_EEC2ERKS1_
FN:127,_ZNSt12_Vector_baseIN4opae7testing11test_deviceESaIS2_EEC2ERKS3_
FN:159,_ZNSt12_Vector_baseIN7testing8internal25ParameterizedTestCaseInfoI14buffer_prepareE17InstantiationInfoESaIS5_EED2Ev
FN:159,_ZNSt12_Vector_baseIN7testing8internal10linked_ptrINS1_25ParameterizedTestCaseInfoI14buffer_prepareE8TestInfoEEESaIS7_EED2Ev
FN:159,_ZNSt12_Vector_baseI13buffer_paramsSaIS0_EED2Ev
FN:159,_ZNSt12_Vector_baseISsSaISsEED2Ev
FN:159,_ZNSt12_Vector_baseIN4opae7testing11test_deviceESaIS2_EED2Ev
FN:167,_ZNSt12_Vector_baseIN7testing8internal25ParameterizedTestCaseInfoI14buffer_prepareE17InstantiationInfoESaIS5_EE11_M_allocateEm
FN:167,_ZNSt12_Vector_baseI13buffer_paramsSaIS0_EE11_M_allocateEm
FN:167,_ZNSt12_Vector_baseISsSaISsEE11_M_allocateEm
FN:167,_ZNSt12_Vector_baseIPN7testing8internal29ParameterizedTestCaseInfoBaseESaIS3_EE11_M_allocateEm
FN:167,_ZNSt12_Vector_baseIN7testing8internal10linked_ptrINS1_25ParameterizedTestCaseInfoI14buffer_prepareE8TestInfoEEESaIS7_EE11_M_allocateEm
FN:171,_ZNSt12_Vector_baseIN4opae7testing11test_deviceESaIS2_EE13_M_deallocateEPS2_m
FN:171,_ZNSt12_Vector_baseI13buffer_paramsSaIS0_EE13_M_deallocateEPS0_m
FN:171,_ZNSt12_Vector_baseIN7testing8internal25ParameterizedTestCaseInfoI14buffer_prepareE17InstantiationInfoESaIS5_EE13_M_deallocateEPS5_m
FN:171,_ZNSt12_Vector_baseIPN7testing8internal29ParameterizedTestCaseInfoBaseESaIS3_EE13_M_deallocateEPS3_m
FN:171,_ZNSt12_Vector_baseIN7testing8internal10linked_ptrINS1_25ParameterizedTestCaseInfoI14buffer_prepareE8TestInfoEEESaIS7_EE13_M_deallocateEPS7_m
FN:171,_ZNSt12_Vector_baseISsSaISsEE13_M_deallocateEPSsm
FN:248,_ZNSt6vectorIN7testing8internal25ParameterizedTestCaseInfoI14buffer_prepareE17InstantiationInfoESaIS5_EEC2Ev
FN:248,_ZNSt6vectorIN4opae7testing11test_deviceESaIS2_EEC2Ev
FN:248,_ZNSt6vectorIN7testing8internal10linked_ptrINS1_25ParameterizedTestCaseInfoI14buffer_prepareE8TestInfoEEESaIS7_EEC2Ev
FN:256,_ZNSt6vectorIN4opae7testing11test_deviceESaIS2_EEC2ERKS3_
FN:364,_ZNSt6vectorI13buffer_paramsSaIS0_EEC2ESt16initializer_listIS0_ERKS1_
FN:392,_ZNSt6vectorI13buffer_paramsSaIS0_EEC2IN9__gnu_cxx17__normal_iteratorIPKS0_S2_EEvEET_S9_RKS1_
FN:392,_ZNSt6vectorISsSaISsEEC2IN9__gnu_cxx17__normal_iteratorIPKSsS1_EEvEET_S8_RKS0_
FN:414,_ZNSt6vectorIN4opae7testing11test_deviceESaIS2_EED2Ev
FN:414,_ZNSt6vectorISsSaISsEED2Ev
FN:414,_ZNSt6vectorIN7testing8internal25ParameterizedTestCaseInfoI14buffer_prepareE17InstantiationInfoESaIS5_EED2Ev
FN:414,_ZNSt6vectorI13buffer_paramsSaIS0_EED2Ev
FN:414,_ZNSt6vectorIN7testing8internal10linked_ptrINS1_25ParameterizedTestCaseInfoI14buffer_prepareE8TestInfoEEESaIS7_EED2Ev
FN:439,_ZNSt6vectorIN4opae7testing11test_deviceESaIS2_EEaSEOS4_
FN:538,_ZNSt6vectorIN7testing8internal25ParameterizedTestCaseInfoI14buffer_prepareE17InstantiationInfoESaIS5_EE5beginEv
FN:538,_ZNSt6vectorIN7testing8internal10linked_ptrINS1_25ParameterizedTestCaseInfoI14buffer_prepareE8TestInfoEEESaIS7_EE5beginEv
FN:538,_ZNSt6vectorIPN7testing8internal29ParameterizedTestCaseInfoBaseESaIS3_EE5beginEv
FN:547,_ZNKSt6vectorISsSaISsEE5beginEv
FN:547,_ZNKSt6vectorI13buffer_paramsSaIS0_EE5beginEv
FN:556,_ZNSt6vectorIN7testing8internal25ParameterizedTestCaseInfoI14buffer_prepareE17InstantiationInfoESaIS5_EE3endEv
FN:556,_ZNSt6vectorIN7testing8internal10linked_ptrINS1_25ParameterizedTestCaseInfoI14buffer_prepareE8TestInfoEEESaIS7_EE3endEv
FN:556,_ZNSt6vectorIPN7testing8internal29ParameterizedTestCaseInfoBaseESaIS3_EE3endEv
FN:565,_ZNKSt6vectorI13buffer_paramsSaIS0_EE3endEv
FN:565,_ZNKSt6vectorISsSaISsEE3endEv
FN:645,_ZNKSt6vectorIN7testing8internal10linked_ptrINS1_25ParameterizedTestCaseInfoI14buffer_prepareE8TestInfoEEESaIS7_EE4sizeEv
FN:645,_ZNKSt6vectorIPN7testing8internal29ParameterizedTestCaseInfoBaseESaIS3_EE4sizeEv
FN:645,_ZNKSt6vectorIN7testing8internal25ParameterizedTestCaseInfoI14buffer_prepareE17InstantiationInfoESaIS5_EE4sizeEv
FN:650,_ZNKSt6vectorIN7testing8internal10linked_ptrINS1_25ParameterizedTestCaseInfoI14buffer_prepareE8TestInfoEEESaIS7_EE8max_sizeEv
FN:650,_ZNKSt6vectorIN7testing8internal25ParameterizedTestCaseInfoI14buffer_prepareE17InstantiationInfoESaIS5_EE8max_sizeEv
FN:650,_ZNKSt6vectorIPN7testing8internal29ParameterizedTestCaseInfoBaseESaIS3_EE8max_sizeEv
FN:919,_ZNSt6vectorIN7testing8internal10linked_ptrINS1_25ParameterizedTestCaseInfoI14buffer_prepareE8TestInfoEEESaIS7_EE9push_backEOS7_
FN:919,_ZNSt6vectorIN7testing8internal25ParameterizedTestCaseInfoI14buffer_prepareE17InstantiationInfoESaIS5_EE9push_backEOS5_
FN:919,_ZNSt6vectorIPN7testing8internal29ParameterizedTestCaseInfoBaseESaIS3_EE9push_backEOS3_
FN:1172,_ZNSt6vectorI13buffer_paramsSaIS0_EE22_M_initialize_dispatchIN9__gnu_cxx17__normal_iteratorIPKS0_S2_EEEEvT_S9_St12__false_type
FN:1172,_ZNSt6vectorISsSaISsEE22_M_initialize_dispatchIN9__gnu_cxx17__normal_iteratorIPKSsS1_EEEEvT_S8_St12__false_type
FN:1197,_ZNSt6vectorI13buffer_paramsSaIS0_EE19_M_range_initializeIN9__gnu_cxx17__normal_iteratorIPKS0_S2_EEEEvT_S9_St20forward_iterator_tag
FN:1197,_ZNSt6vectorISsSaISsEE19_M_range_initializeIN9__gnu_cxx17__normal_iteratorIPKSsS1_EEEEvT_S8_St20forward_iterator_tag
FN:1197,_ZNSt6vectorI13buffer_paramsSaIS0_EE19_M_range_initializeIPKS0_EEvT_S6_St20forward_iterator_tag
FN:1336,_ZNKSt6vectorIN7testing8internal25ParameterizedTestCaseInfoI14buffer_prepareE17InstantiationInfoESaIS5_EE12_M_check_lenEmPKc
FN:1336,_ZNKSt6vectorIN7testing8internal10linked_ptrINS1_25ParameterizedTestCaseInfoI14buffer_prepareE8TestInfoEEESaIS7_EE12_M_check_lenEmPKc
FN:1336,_ZNKSt6vectorIPN7testing8internal29ParameterizedTestCaseInfoBaseESaIS3_EE12_M_check_lenEmPKc
FN:1362,_ZNSt6vectorIN4opae7testing11test_deviceESaIS2_EE14_M_move_assignEOS4_St17integral_constantIbLb1EE
FNDA:1,_ZNSt12_Vector_baseIN7testing8internal25ParameterizedTestCaseInfoI14buffer_prepareE17InstantiationInfoESaIS5_EE12_Vector_implD2Ev
FNDA:1,_ZNSt12_Vector_baseIN7testing8internal10linked_ptrINS1_25ParameterizedTestCaseInfoI14buffer_prepareE8TestInfoEEESaIS7_EE12_Vector_implD2Ev
FNDA:244,_ZNSt12_Vector_baseISsSaISsEE12_Vector_implD2Ev
FNDA:3,_ZNSt12_Vector_baseI13buffer_paramsSaIS0_EE12_Vector_implD2Ev
FNDA:40,_ZNSt12_Vector_baseIN4opae7testing11test_deviceESaIS2_EE12_Vector_implD2Ev
FNDA:1,_ZNSt12_Vector_baseIN7testing8internal25ParameterizedTestCaseInfoI14buffer_prepareE17InstantiationInfoESaIS5_EE12_Vector_implC2Ev
FNDA:1,_ZNSt12_Vector_baseIN7testing8internal10linked_ptrINS1_25ParameterizedTestCaseInfoI14buffer_prepareE8TestInfoEEESaIS7_EE12_Vector_implC2Ev
FNDA:12,_ZNSt12_Vector_baseIN4opae7testing11test_deviceESaIS2_EE12_Vector_implC2Ev
FNDA:112,_ZNSt12_Vector_baseISsSaISsEE12_Vector_implC2ERKS0_
FNDA:28,_ZNSt12_Vector_baseIN4opae7testing11test_deviceESaIS2_EE12_Vector_implC2ERKS3_
FNDA:3,_ZNSt12_Vector_baseI13buffer_paramsSaIS0_EE12_Vector_implC2ERKS1_
FNDA:25,_ZNSt12_Vector_baseIN4opae7testing11test_deviceESaIS2_EE12_Vector_impl12_M_swap_dataERS5_
FNDA:3,_ZNSt12_Vector_baseIN7testing8internal25ParameterizedTestCaseInfoI14buffer_prepareE17InstantiationInfoESaIS5_EE19_M_get_Tp_allocatorEv
FNDA:5,_ZNSt12_Vector_baseIN7testing8internal10linked_ptrINS1_25ParameterizedTestCaseInfoI14buffer_prepareE8TestInfoEEESaIS7_EE19_M_get_Tp_allocatorEv
FNDA:6,_ZNSt12_Vector_baseI13buffer_paramsSaIS0_EE19_M_get_Tp_allocatorEv
FNDA:840,_ZNSt12_Vector_baseISsSaISsEE19_M_get_Tp_allocatorEv
FNDA:81,_ZNSt12_Vector_baseIN4opae7testing11test_deviceESaIS2_EE19_M_get_Tp_allocatorEv
FNDA:3,_ZNSt12_Vector_baseIPN7testing8internal29ParameterizedTestCaseInfoBaseESaIS3_EE19_M_get_Tp_allocatorEv
FNDA:2,_ZNKSt12_Vector_baseIN7testing8internal25ParameterizedTestCaseInfoI14buffer_prepareE17InstantiationInfoESaIS5_EE19_M_get_Tp_allocatorEv
FNDA:4,_ZNKSt12_Vector_baseIN7testing8internal10linked_ptrINS1_25ParameterizedTestCaseInfoI14buffer_prepareE8TestInfoEEESaIS7_EE19_M_get_Tp_allocatorEv
FNDA:2,_ZNKSt12_Vector_baseIPN7testing8internal29ParameterizedTestCaseInfoBaseESaIS3_EE19_M_get_Tp_allocatorEv
FNDA:27,_ZNKSt12_Vector_baseIN4opae7testing11test_deviceESaIS2_EE19_M_get_Tp_allocatorEv
FNDA:12,_ZNKSt12_Vector_baseIN4opae7testing11test_deviceESaIS2_EE13get_allocatorEv
FNDA:1,_ZNSt12_Vector_baseIN7testing8internal25ParameterizedTestCaseInfoI14buffer_prepareE17InstantiationInfoESaIS5_EEC2Ev
FNDA:1,_ZNSt12_Vector_baseIN7testing8internal10linked_ptrINS1_25ParameterizedTestCaseInfoI14buffer_prepareE8TestInfoEEESaIS7_EEC2Ev
FNDA:12,_ZNSt12_Vector_baseIN4opae7testing11test_deviceESaIS2_EEC2Ev
FNDA:2,_ZNSt12_Vector_baseISsSaISsEEC2ERKS0_
FNDA:13,_ZNSt12_Vector_baseIN4opae7testing11test_deviceESaIS2_EEC2ERKS3_
FNDA:3,_ZNSt12_Vector_baseI13buffer_paramsSaIS0_EEC2ERKS1_
FNDA:1,_ZNSt12_Vector_baseIN7testing8internal25ParameterizedTestCaseInfoI14buffer_prepareE17InstantiationInfoESaIS5_EED2Ev
FNDA:1,_ZNSt12_Vector_baseIN7testing8internal10linked_ptrINS1_25ParameterizedTestCaseInfoI14buffer_prepareE8TestInfoEEESaIS7_EED2Ev
FNDA:244,_ZNSt12_Vector_baseISsSaISsEED2Ev
FNDA:3,_ZNSt12_Vector_baseI13buffer_paramsSaIS0_EED2Ev
FNDA:40,_ZNSt12_Vector_baseIN4opae7testing11test_deviceESaIS2_EED2Ev
FNDA:353,_ZNSt12_Vector_baseISsSaISsEE11_M_allocateEm
FNDA:1,_ZNSt12_Vector_baseIN7testing8internal25ParameterizedTestCaseInfoI14buffer_prepareE17InstantiationInfoESaIS5_EE11_M_allocateEm
FNDA:2,_ZNSt12_Vector_baseIN7testing8internal10linked_ptrINS1_25ParameterizedTestCaseInfoI14buffer_prepareE8TestInfoEEESaIS7_EE11_M_allocateEm
FNDA:1,_ZNSt12_Vector_baseIPN7testing8internal29ParameterizedTestCaseInfoBaseESaIS3_EE11_M_allocateEm
FNDA:3,_ZNSt12_Vector_baseI13buffer_paramsSaIS0_EE11_M_allocateEm
FNDA:2,_ZNSt12_Vector_baseIN7testing8internal25ParameterizedTestCaseInfoI14buffer_prepareE17InstantiationInfoESaIS5_EE13_M_deallocateEPS5_m
FNDA:3,_ZNSt12_Vector_baseIN7testing8internal10linked_ptrINS1_25ParameterizedTestCaseInfoI14buffer_prepareE8TestInfoEEESaIS7_EE13_M_deallocateEPS7_m
FNDA:485,_ZNSt12_Vector_baseISsSaISsEE13_M_deallocateEPSsm
FNDA:3,_ZNSt12_Vector_baseI13buffer_paramsSaIS0_EE13_M_deallocateEPS0_m
FNDA:40,_ZNSt12_Vector_baseIN4opae7testing11test_deviceESaIS2_EE13_M_deallocateEPS2_m
FNDA:2,_ZNSt12_Vector_baseIPN7testing8internal29ParameterizedTestCaseInfoBaseESaIS3_EE13_M_deallocateEPS3_m
FNDA:1,_ZNSt6vectorIN7testing8internal25ParameterizedTestCaseInfoI14buffer_prepareE17InstantiationInfoESaIS5_EEC2Ev
FNDA:1,_ZNSt6vectorIN7testing8internal10linked_ptrINS1_25ParameterizedTestCaseInfoI14buffer_prepareE8TestInfoEEESaIS7_EEC2Ev
FNDA:12,_ZNSt6vectorIN4opae7testing11test_deviceESaIS2_EEC2Ev
FNDA:12,_ZNSt6vectorIN4opae7testing11test_deviceESaIS2_EEC2ERKS3_
FNDA:1,_ZNSt6vectorI13buffer_paramsSaIS0_EEC2ESt16initializer_listIS0_ERKS1_
FNDA:2,_ZNSt6vectorI13buffer_paramsSaIS0_EEC2IN9__gnu_cxx17__normal_iteratorIPKS0_S2_EEvEET_S9_RKS1_
FNDA:2,_ZNSt6vectorISsSaISsEEC2IN9__gnu_cxx17__normal_iteratorIPKSsS1_EEvEET_S8_RKS0_
FNDA:3,_ZNSt6vectorI13buffer_paramsSaIS0_EED2Ev
FNDA:1,_ZNSt6vectorIN7testing8internal25ParameterizedTestCaseInfoI14buffer_prepareE17InstantiationInfoESaIS5_EED2Ev
FNDA:1,_ZNSt6vectorIN7testing8internal10linked_ptrINS1_25ParameterizedTestCaseInfoI14buffer_prepareE8TestInfoEEESaIS7_EED2Ev
FNDA:244,_ZNSt6vectorISsSaISsEED2Ev
FNDA:40,_ZNSt6vectorIN4opae7testing11test_deviceESaIS2_EED2Ev
FNDA:12,_ZNSt6vectorIN4opae7testing11test_deviceESaIS2_EEaSEOS4_
FNDA:2,_ZNSt6vectorIN7testing8internal25ParameterizedTestCaseInfoI14buffer_prepareE17InstantiationInfoESaIS5_EE5beginEv
FNDA:1,_ZNSt6vectorIN7testing8internal10linked_ptrINS1_25ParameterizedTestCaseInfoI14buffer_prepareE8TestInfoEEESaIS7_EE5beginEv
FNDA:5,_ZNSt6vectorIPN7testing8internal29ParameterizedTestCaseInfoBaseESaIS3_EE5beginEv
FNDA:20,_ZNKSt6vectorI13buffer_paramsSaIS0_EE5beginEv
FNDA:128,_ZNKSt6vectorISsSaISsEE5beginEv
FNDA:4,_ZNSt6vectorIN7testing8internal25ParameterizedTestCaseInfoI14buffer_prepareE17InstantiationInfoESaIS5_EE3endEv
FNDA:3,_ZNSt6vectorIN7testing8internal10linked_ptrINS1_25ParameterizedTestCaseInfoI14buffer_prepareE8TestInfoEEESaIS7_EE3endEv
FNDA:7,_ZNSt6vectorIPN7testing8internal29ParameterizedTestCaseInfoBaseESaIS3_EE3endEv
FNDA:32,_ZNKSt6vectorI13buffer_paramsSaIS0_EE3endEv
FNDA:140,_ZNKSt6vectorISsSaISsEE3endEv
FNDA:5,_ZNKSt6vectorIN7testing8internal25ParameterizedTestCaseInfoI14buffer_prepareE17InstantiationInfoESaIS5_EE4sizeEv
FNDA:10,_ZNKSt6vectorIN7testing8internal10linked_ptrINS1_25ParameterizedTestCaseInfoI14buffer_prepareE8TestInfoEEESaIS7_EE4sizeEv
FNDA:5,_ZNKSt6vectorIPN7testing8internal29ParameterizedTestCaseInfoBaseESaIS3_EE4sizeEv
FNDA:2,_ZNKSt6vectorIN7testing8internal25ParameterizedTestCaseInfoI14buffer_prepareE17InstantiationInfoESaIS5_EE8max_sizeEv
FNDA:4,_ZNKSt6vectorIN7testing8internal10linked_ptrINS1_25ParameterizedTestCaseInfoI14buffer_prepareE8TestInfoEEESaIS7_EE8max_sizeEv
FNDA:2,_ZNKSt6vectorIPN7testing8internal29ParameterizedTestCaseInfoBaseESaIS3_EE8max_sizeEv
FNDA:1,_ZNSt6vectorIN7testing8internal25ParameterizedTestCaseInfoI14buffer_prepareE17InstantiationInfoESaIS5_EE9push_backEOS5_
FNDA:2,_ZNSt6vectorIN7testing8internal10linked_ptrINS1_25ParameterizedTestCaseInfoI14buffer_prepareE8TestInfoEEESaIS7_EE9push_backEOS7_
FNDA:1,_ZNSt6vectorIPN7testing8internal29ParameterizedTestCaseInfoBaseESaIS3_EE9push_backEOS3_
FNDA:2,_ZNSt6vectorI13buffer_paramsSaIS0_EE22_M_initialize_dispatchIN9__gnu_cxx17__normal_iteratorIPKS0_S2_EEEEvT_S9_St12__false_type
FNDA:2,_ZNSt6vectorISsSaISsEE22_M_initialize_dispatchIN9__gnu_cxx17__normal_iteratorIPKSsS1_EEEEvT_S8_St12__false_type
FNDA:2,_ZNSt6vectorI13buffer_paramsSaIS0_EE19_M_range_initializeIN9__gnu_cxx17__normal_iteratorIPKS0_S2_EEEEvT_S9_St20forward_iterator_tag
FNDA:2,_ZNSt6vectorISsSaISsEE19_M_range_initializeIN9__gnu_cxx17__normal_iteratorIPKSsS1_EEEEvT_S8_St20forward_iterator_tag
FNDA:1,_ZNSt6vectorI13buffer_paramsSaIS0_EE19_M_range_initializeIPKS0_EEvT_S6_St20forward_iterator_tag
FNDA:1,_ZNKSt6vectorIN7testing8internal25ParameterizedTestCaseInfoI14buffer_prepareE17InstantiationInfoESaIS5_EE12_M_check_lenEmPKc
FNDA:2,_ZNKSt6vectorIN7testing8internal10linked_ptrINS1_25ParameterizedTestCaseInfoI14buffer_prepareE8TestInfoEEESaIS7_EE12_M_check_lenEmPKc
FNDA:1,_ZNKSt6vectorIPN7testing8internal29ParameterizedTestCaseInfoBaseESaIS3_EE12_M_check_lenEmPKc
FNDA:12,_ZNSt6vectorIN4opae7testing11test_deviceESaIS2_EE14_M_move_assignEOS4_St17integral_constantIbLb1EE
FNF:86
FNH:86
DA:79,289
DA:86,14
DA:87,14
DA:88,14
DA:90,143
DA:91,143
DA:92,143
DA:101,25
DA:103,25
DA:104,25
DA:105,25
DA:106,25
DA:113,938
DA:114,938
DA:117,35
DA:118,35
DA:121,12
DA:122,12
DA:124,14
DA:125,14
DA:127,18
DA:128,18
DA:159,289
DA:160,289
DA:161,578
DA:167,360
DA:168,360
DA:171,535
DA:173,535
DA:174,374
DA:175,535
DA:248,14
DA:249,14
DA:256,12
DA:257,12
DA:364,1
DA:366,1
DA:368,1
DA:369,2
DA:370,1
DA:392,4
DA:394,4
DA:395,4
DA:414,289
DA:415,289
DA:416,578
DA:439,12
DA:443,12
DA:444,12
DA:445,12
DA:446,12
DA:538,8
DA:539,8
DA:547,148
DA:548,148
DA:556,14
DA:557,14
DA:565,172
DA:566,172
DA:645,20
DA:646,20
DA:650,8
DA:651,8
DA:919,4
DA:920,4
DA:1172,4
DA:1177,4
DA:1178,4
DA:1197,5
DA:1200,5
DA:1201,5
DA:1202,5
DA:1203,5
DA:1206,5
DA:1207,5
DA:1336,4
DA:1338,4
DA:1339,0
DA:1341,4
DA:1342,4
DA:1362,12
DA:1364,12
DA:1365,12
DA:1366,12
DA:1367,12
DA:1368,12
DA:1369,24
DA:1370,12
LF:88
LH:87
end_of_record
SF:/usr/include/c++/4.8/bits/vector.tcc
FN:91,_ZNSt6vectorIN7testing8internal10linked_ptrINS1_25ParameterizedTestCaseInfoI14buffer_prepareE8TestInfoEEESaIS7_EE12emplace_backIIS7_EEEvDpOT_
FN:91,_ZNSt6vectorIN7testing8internal25ParameterizedTestCaseInfoI14buffer_prepareE17InstantiationInfoESaIS5_EE12emplace_backIIS5_EEEvDpOT_
FN:91,_ZNSt6vectorIPN7testing8internal29ParameterizedTestCaseInfoBaseESaIS3_EE12emplace_backIIS3_EEEvDpOT_
FN:399,_ZNSt6vectorIN7testing8internal10linked_ptrINS1_25ParameterizedTestCaseInfoI14buffer_prepareE8TestInfoEEESaIS7_EE19_M_emplace_back_auxIIS7_EEEvDpOT_
FN:399,_ZNSt6vectorIPN7testing8internal29ParameterizedTestCaseInfoBaseESaIS3_EE19_M_emplace_back_auxIIS3_EEEvDpOT_
FN:399,_ZNSt6vectorIN7testing8internal25ParameterizedTestCaseInfoI14buffer_prepareE17InstantiationInfoESaIS5_EE19_M_emplace_back_auxIIS5_EEEvDpOT_
FNDA:1,_ZNSt6vectorIN7testing8internal25ParameterizedTestCaseInfoI14buffer_prepareE17InstantiationInfoESaIS5_EE12emplace_backIIS5_EEEvDpOT_
FNDA:2,_ZNSt6vectorIN7testing8internal10linked_ptrINS1_25ParameterizedTestCaseInfoI14buffer_prepareE8TestInfoEEESaIS7_EE12emplace_backIIS7_EEEvDpOT_
FNDA:1,_ZNSt6vectorIPN7testing8internal29ParameterizedTestCaseInfoBaseESaIS3_EE12emplace_backIIS3_EEEvDpOT_
FNDA:1,_ZNSt6vectorIN7testing8internal25ParameterizedTestCaseInfoI14buffer_prepareE17InstantiationInfoESaIS5_EE19_M_emplace_back_auxIIS5_EEEvDpOT_
FNDA:2,_ZNSt6vectorIN7testing8internal10linked_ptrINS1_25ParameterizedTestCaseInfoI14buffer_prepareE8TestInfoEEESaIS7_EE19_M_emplace_back_auxIIS7_EEEvDpOT_
FNDA:1,_ZNSt6vectorIPN7testing8internal29ParameterizedTestCaseInfoBaseESaIS3_EE19_M_emplace_back_auxIIS3_EEEvDpOT_
FNF:6
FNH:6
DA:91,4
DA:94,4
DA:96,0
DA:97,0
DA:98,0
DA:101,4
DA:102,4
DA:399,4
DA:403,4
DA:404,4
DA:405,4
DA:408,8
DA:409,8
DA:410,4
DA:412,4
DA:415,4
DA:417,4
DA:419,=====
DA:421,=====
DA:422,=====
DA:424,=====
DA:425,=====
DA:426,=====
DA:428,4
DA:429,4
DA:430,4
DA:432,4
DA:433,4
DA:434,4
DA:435,4
DA:436,4
LF:31
LH:22
end_of_record
SF:/usr/include/c++/4.8/ext/alloc_traits.h
FN:175,_ZN9__gnu_cxx14__alloc_traitsISaIN4opae7testing11test_deviceEEE27_S_propagate_on_move_assignEv
FNDA:12,_ZN9__gnu_cxx14__alloc_traitsISaIN4opae7testing11test_deviceEEE27_S_propagate_on_move_assignEv
FNF:1
FNH:1
DA:175,12
DA:176,12
LF:2
LH:2
end_of_record
SF:/usr/include/c++/4.8/ext/atomicity.h
FN:48,_ZN9__gnu_cxxL18__exchange_and_addEPVii
FN:65,_ZN9__gnu_cxxL25__exchange_and_add_singleEPii
FN:78,_ZN9__gnu_cxxL27__exchange_and_add_dispatchEPii
FNDA:0,_ZN9__gnu_cxxL18__exchange_and_addEPVii
FNDA:0,_ZN9__gnu_cxxL25__exchange_and_add_singleEPii
FNDA:0,_ZN9__gnu_cxxL27__exchange_and_add_dispatchEPii
FNF:3
FNH:0
DA:48,0
DA:49,0
DA:65,0
DA:67,0
DA:68,0
DA:69,0
DA:78,0
DA:81,0
DA:82,0
DA:84,0
LF:10
LH:0
end_of_record
SF:/usr/include/c++/4.8/ext/new_allocator.h
FN:79,_ZN9__gnu_cxx13new_allocatorIN7testing8internal25ParameterizedTestCaseInfoI14buffer_prepareE17InstantiationInfoEEC2Ev
FN:79,_ZN9__gnu_cxx13new_allocatorIN7testing8internal10linked_ptrINS2_25ParameterizedTestCaseInfoI14buffer_prepareE8TestInfoEEEEC2Ev
FN:79,_ZN9__gnu_cxx13new_allocatorIcEC2Ev
FN:79,_ZN9__gnu_cxx13new_allocatorISt13_Rb_tree_nodeISsEEC2Ev
FN:79,_ZN9__gnu_cxx13new_allocatorIN4opae7testing11test_deviceEEC2Ev
FN:79,_ZN9__gnu_cxx13new_allocatorISsEC2Ev
FN:79,_ZN9__gnu_cxx13new_allocatorI13buffer_paramsEC2Ev
FN:81,_ZN9__gnu_cxx13new_allocatorIcEC2ERKS1_
FN:81,_ZN9__gnu_cxx13new_allocatorIN4opae7testing11test_deviceEEC2ERKS4_
FN:81,_ZN9__gnu_cxx13new_allocatorI13buffer_paramsEC2ERKS2_
FN:81,_ZN9__gnu_cxx13new_allocatorISsEC2ERKS1_
FN:86,_ZN9__gnu_cxx13new_allocatorIcED2Ev
FN:86,_ZN9__gnu_cxx13new_allocatorI13buffer_paramsED2Ev
FN:86,_ZN9__gnu_cxx13new_allocatorIN4opae7testing11test_deviceEED2Ev
FN:86,_ZN9__gnu_cxx13new_allocatorIN7testing8internal10linked_ptrINS2_25ParameterizedTestCaseInfoI14buffer_prepareE8TestInfoEEEED2Ev
FN:86,_ZN9__gnu_cxx13new_allocatorIN7testing8internal25ParameterizedTestCaseInfoI14buffer_prepareE17InstantiationInfoEED2Ev
FN:86,_ZN9__gnu_cxx13new_allocatorISt13_Rb_tree_nodeISsEED2Ev
FN:86,_ZN9__gnu_cxx13new_allocatorISsED2Ev
FN:99,_ZN9__gnu_cxx13new_allocatorI13buffer_paramsE8allocateEmPKv
FN:99,_ZN9__gnu_cxx13new_allocatorIN7testing8internal10linked_ptrINS2_25ParameterizedTestCaseInfoI14buffer_prepareE8TestInfoEEEE8allocateEmPKv
FN:99,_ZN9__gnu_cxx13new_allocatorIPN7testing8internal29ParameterizedTestCaseInfoBaseEE8allocateEmPKv
FN:99,_ZN9__gnu_cxx13new_allocatorIN7testing8internal25ParameterizedTestCaseInfoI14buffer_prepareE17InstantiationInfoEE8allocateEmPKv
FN:99,_ZN9__gnu_cxx13new_allocatorISt13_Rb_tree_nodeISsEE8allocateEmPKv
FN:99,_ZN9__gnu_cxx13new_allocatorISsE8allocateEmPKv
FN:109,_ZN9__gnu_cxx13new_allocatorI13buffer_paramsE10deallocateEPS1_m
FN:109,_ZN9__gnu_cxx13new_allocatorISsE10deallocateEPSsm
FN:109,_ZN9__gnu_cxx13new_allocatorIN4opae7testing11test_deviceEE10deallocateEPS3_m
FN:109,_ZN9__gnu_cxx13new_allocatorIN7testing8internal10linked_ptrINS2_25ParameterizedTestCaseInfoI14buffer_prepareE8TestInfoEEEE10deallocateEPS8_m
FN:109,_ZN9__gnu_cxx13new_allocatorISt13_Rb_tree_nodeISsEE10deallocateEPS2_m
FN:109,_ZN9__gnu_cxx13new_allocatorIPN7testing8internal29ParameterizedTestCaseInfoBaseEE10deallocateEPS4_m
FN:109,_ZN9__gnu_cxx13new_allocatorIN7testing8internal25ParameterizedTestCaseInfoI14buffer_prepareE17InstantiationInfoEE10deallocateEPS6_m
FN:113,_ZNK9__gnu_cxx13new_allocatorISt13_Rb_tree_nodeISsEE8max_sizeEv
FN:113,_ZNK9__gnu_cxx13new_allocatorISsE8max_sizeEv
FN:113,_ZNK9__gnu_cxx13new_allocatorIN7testing8internal10linked_ptrINS2_25ParameterizedTestCaseInfoI14buffer_prepareE8TestInfoEEEE8max_sizeEv
FN:113,_ZNK9__gnu_cxx13new_allocatorIN7testing8internal25ParameterizedTestCaseInfoI14buffer_prepareE17InstantiationInfoEE8max_sizeEv
FN:113,_ZNK9__gnu_cxx13new_allocatorIPN7testing8internal29ParameterizedTestCaseInfoBaseEE8max_sizeEv
FN:113,_ZNK9__gnu_cxx13new_allocatorI13buffer_paramsE8max_sizeEv
FN:119,_ZN9__gnu_cxx13new_allocatorIPN7testing8internal29ParameterizedTestCaseInfoBaseEE9constructIS4_IS4_EEEvPT_DpOT0_
FN:119,_ZN9__gnu_cxx13new_allocatorIN7testing8internal25ParameterizedTestCaseInfoI14buffer_prepareE17InstantiationInfoEE9constructIS6_IS6_EEEvPT_DpOT0_
FN:119,_ZN9__gnu_cxx13new_allocatorIN7testing8internal10linked_ptrINS2_25ParameterizedTestCaseInfoI14buffer_prepareE8TestInfoEEEE9constructIS8_IS8_EEEvPT_DpOT0_
FN:119,_ZN9__gnu_cxx13new_allocatorISt13_Rb_tree_nodeISsEE9constructIS2_IRKSsEEEvPT_DpOT0_
FN:124,_ZN9__gnu_cxx13new_allocatorIN7testing8internal10linked_ptrINS2_25ParameterizedTestCaseInfoI14buffer_prepareE8TestInfoEEEE7destroyIS8_EEvPT_
FN:124,_ZN9__gnu_cxx13new_allocatorISt13_Rb_tree_nodeISsEE7destroyIS2_EEvPT_
FN:124,_ZN9__gnu_cxx13new_allocatorIPN7testing8internal29ParameterizedTestCaseInfoBaseEE7destroyIS4_EEvPT_
FN:124,_ZN9__gnu_cxx13new_allocatorIN7testing8internal25ParameterizedTestCaseInfoI14buffer_prepareE17InstantiationInfoEE7destroyIS6_EEvPT_
FNDA:2,_ZN9__gnu_cxx13new_allocatorISt13_Rb_tree_nodeISsEEC2Ev
FNDA:1,_ZN9__gnu_cxx13new_allocatorIN7testing8internal25ParameterizedTestCaseInfoI14buffer_prepareE17InstantiationInfoEEC2Ev
FNDA:1,_ZN9__gnu_cxx13new_allocatorIN7testing8internal10linked_ptrINS2_25ParameterizedTestCaseInfoI14buffer_prepareE8TestInfoEEEEC2Ev
FNDA:137,_ZN9__gnu_cxx13new_allocatorISsEC2Ev
FNDA:13,_ZN9__gnu_cxx13new_allocatorIN4opae7testing11test_deviceEEC2Ev
FNDA:3,_ZN9__gnu_cxx13new_allocatorI13buffer_paramsEC2Ev
FNDA:0,_ZN9__gnu_cxx13new_allocatorIcEC2Ev
FNDA:220,_ZN9__gnu_cxx13new_allocatorISsEC2ERKS1_
FNDA:3,_ZN9__gnu_cxx13new_allocatorI13buffer_paramsEC2ERKS2_
FNDA:56,_ZN9__gnu_cxx13new_allocatorIN4opae7testing11test_deviceEEC2ERKS4_
FNDA:0,_ZN9__gnu_cxx13new_allocatorIcEC2ERKS1_
FNDA:2,_ZN9__gnu_cxx13new_allocatorISt13_Rb_tree_nodeISsEED2Ev
FNDA:1,_ZN9__gnu_cxx13new_allocatorIN7testing8internal25ParameterizedTestCaseInfoI14buffer_prepareE17InstantiationInfoEED2Ev
FNDA:1,_ZN9__gnu_cxx13new_allocatorIN7testing8internal10linked_ptrINS2_25ParameterizedTestCaseInfoI14buffer_prepareE8TestInfoEEEED2Ev
FNDA:356,_ZN9__gnu_cxx13new_allocatorISsED2Ev
FNDA:68,_ZN9__gnu_cxx13new_allocatorIN4opae7testing11test_deviceEED2Ev
FNDA:6,_ZN9__gnu_cxx13new_allocatorI13buffer_paramsED2Ev
FNDA:0,_ZN9__gnu_cxx13new_allocatorIcED2Ev
FNDA:12,_ZN9__gnu_cxx13new_allocatorISt13_Rb_tree_nodeISsEE8allocateEmPKv
FNDA:353,_ZN9__gnu_cxx13new_allocatorISsE8allocateEmPKv
FNDA:1,_ZN9__gnu_cxx13new_allocatorIN7testing8internal25ParameterizedTestCaseInfoI14buffer_prepareE17InstantiationInfoEE8allocateEmPKv
FNDA:2,_ZN9__gnu_cxx13new_allocatorIN7testing8internal10linked_ptrINS2_25ParameterizedTestCaseInfoI14buffer_prepareE8TestInfoEEEE8allocateEmPKv
FNDA:1,_ZN9__gnu_cxx13new_allocatorIPN7testing8internal29ParameterizedTestCaseInfoBaseEE8allocateEmPKv
FNDA:3,_ZN9__gnu_cxx13new_allocatorI13buffer_paramsE8allocateEmPKv
FNDA:12,_ZN9__gnu_cxx13new_allocatorISt13_Rb_tree_nodeISsEE10deallocateEPS2_m
FNDA:1,_ZN9__gnu_cxx13new_allocatorIN7testing8internal25ParameterizedTestCaseInfoI14buffer_prepareE17InstantiationInfoEE10deallocateEPS6_m
FNDA:2,_ZN9__gnu_cxx13new_allocatorIN7testing8internal10linked_ptrINS2_25ParameterizedTestCaseInfoI14buffer_prepareE8TestInfoEEEE10deallocateEPS8_m
FNDA:352,_ZN9__gnu_cxx13new_allocatorISsE10deallocateEPSsm
FNDA:3,_ZN9__gnu_cxx13new_allocatorI13buffer_paramsE10deallocateEPS1_m
FNDA:15,_ZN9__gnu_cxx13new_allocatorIN4opae7testing11test_deviceEE10deallocateEPS3_m
FNDA:1,_ZN9__gnu_cxx13new_allocatorIPN7testing8internal29ParameterizedTestCaseInfoBaseEE10deallocateEPS4_m
FNDA:12,_ZNK9__gnu_cxx13new_allocatorISt13_Rb_tree_nodeISsEE8max_sizeEv
FNDA:835,_ZNK9__gnu_cxx13new_allocatorISsE8max_sizeEv
FNDA:3,_ZNK9__gnu_cxx13new_allocatorIN7testing8internal25ParameterizedTestCaseInfoI14buffer_prepareE17InstantiationInfoEE8max_sizeEv
FNDA:6,_ZNK9__gnu_cxx13new_allocatorIN7testing8internal10linked_ptrINS2_25ParameterizedTestCaseInfoI14buffer_prepareE8TestInfoEEEE8max_sizeEv
FNDA:3,_ZNK9__gnu_cxx13new_allocatorIPN7testing8internal29ParameterizedTestCaseInfoBaseEE8max_sizeEv
FNDA:3,_ZNK9__gnu_cxx13new_allocatorI13buffer_paramsE8max_sizeEv
FNDA:12,_ZN9__gnu_cxx13new_allocatorISt13_Rb_tree_nodeISsEE9constructIS2_IRKSsEEEvPT_DpOT0_
FNDA:1,_ZN9__gnu_cxx13new_allocatorIN7testing8internal25ParameterizedTestCaseInfoI14buffer_prepareE17InstantiationInfoEE9constructIS6_IS6_EEEvPT_DpOT0_
FNDA:2,_ZN9__gnu_cxx13new_allocatorIN7testing8internal10linked_ptrINS2_25ParameterizedTestCaseInfoI14buffer_prepareE8TestInfoEEEE9constructIS8_IS8_EEEvPT_DpOT0_
FNDA:1,_ZN9__gnu_cxx13new_allocatorIPN7testing8internal29ParameterizedTestCaseInfoBaseEE9constructIS4_IS4_EEEvPT_DpOT0_
FNDA:12,_ZN9__gnu_cxx13new_allocatorISt13_Rb_tree_nodeISsEE7destroyIS2_EEvPT_
FNDA:0,_ZN9__gnu_cxx13new_allocatorIN7testing8internal25ParameterizedTestCaseInfoI14buffer_prepareE17InstantiationInfoEE7destroyIS6_EEvPT_
FNDA:0,_ZN9__gnu_cxx13new_allocatorIN7testing8internal10linked_ptrINS2_25ParameterizedTestCaseInfoI14buffer_prepareE8TestInfoEEEE7destroyIS8_EEvPT_
FNDA:0,_ZN9__gnu_cxx13new_allocatorIPN7testing8internal29ParameterizedTestCaseInfoBaseEE7destroyIS4_EEvPT_
FNF:45
FNH:39
DA:79,157
DA:81,279
DA:86,434
DA:99,372
DA:101,372
DA:102,0
DA:104,372
DA:109,386
DA:110,386
DA:113,862
DA:114,862
DA:119,16
DA:120,16
DA:124,12
LF:14
LH:13
end_of_record
SF:/usr/include/c++/4.8/ext/type_traits.h
FN:150,_ZN9__gnu_cxx17__is_null_pointerIcEEbPT_
FNDA:0,_ZN9__gnu_cxx17__is_null_pointerIcEEbPT_
FNF:1
FNH:0
DA:150,0
DA:151,0
LF:2
LH:0
end_of_record
SF:/usr/include/c++/4.8/initializer_list
FN:71,_ZNKSt16initializer_listI13buffer_paramsE4sizeEv
FN:75,_ZNKSt16initializer_listI13buffer_paramsE5beginEv
FN:79,_ZNKSt16initializer_listI13buffer_paramsE3endEv
FNDA:1,_ZNKSt16initializer_listI13buffer_paramsE4sizeEv
FNDA:2,_ZNKSt16initializer_listI13buffer_paramsE5beginEv
FNDA:1,_ZNKSt16initializer_listI13buffer_paramsE3endEv
FNF:3
FNH:3
DA:71,1
DA:75,2
DA:79,1
LF:3
LH:3
end_of_record
SF:/usr/include/c++/4.8/iostream
DA:74,1
LF:1
LH:1
end_of_record
SF:/usr/include/c++/4.8/new
FN:109,_ZnwmPv
FN:115,_ZdlPvS_
FNDA:736,_ZnwmPv
FNDA:0,_ZdlPvS_
FNF:2
FNH:1
DA:109,736
DA:110,736
DA:115,0
LF:3
LH:2
end_of_record
SF:/usr/include/c++/4.8/sstream
FN:64,_ZNSt15basic_stringbufIcSt11char_traitsIcESaIcEED0Ev
FN:64,_ZNSt15basic_stringbufIcSt11char_traitsIcESaIcEED2Ev
FNDA:0,_ZNSt15basic_stringbufIcSt11char_traitsIcESaIcEED0Ev
FNDA:0,_ZNSt15basic_stringbufIcSt11char_traitsIcESaIcEED2Ev
FNF:2
FNH:0
DA:64,0
LF:1
LH:0
end_of_record
SF:/usr/include/c++/4.8/tuple
FN:129,_ZNSt10_Head_baseILm0ESsLb0EED2Ev
FN:131,_ZNSt10_Head_baseILm0ESsLb0EEC2Ev
FN:131,_ZNSt10_Head_baseILm1E13buffer_paramsLb0EEC2Ev
FN:134,_ZNSt10_Head_baseILm0ESsLb0EEC2ERKSs
FN:134,_ZNSt10_Head_baseILm1E13buffer_paramsLb0EEC2ERKS0_
FN:137,_ZNSt10_Head_baseILm0ESsLb0EEC2ERKS0_
FN:169,_ZNSt10_Head_baseILm0ESsLb0EE7_M_headERS0_
FN:169,_ZNSt10_Head_baseILm1E13buffer_paramsLb0EE7_M_headERS1_
FN:172,_ZNSt10_Head_baseILm0ESsLb0EE7_M_headERKS0_
FN:172,_ZNSt10_Head_baseILm1E13buffer_paramsLb0EE7_M_headERKS1_
FN:197,_ZNSt11_Tuple_implILm2EIEEC2Ev
FN:231,_ZNSt11_Tuple_implILm0EISs13buffer_paramsEED2Ev
FN:241,_ZNSt11_Tuple_implILm0EISs13buffer_paramsEE7_M_headERS1_
FN:241,_ZNSt11_Tuple_implILm1EI13buffer_paramsEE7_M_headERS1_
FN:244,_ZNSt11_Tuple_implILm0EISs13buffer_paramsEE7_M_headERKS1_
FN:244,_ZNSt11_Tuple_implILm1EI13buffer_paramsEE7_M_headERKS1_
FN:247,_ZNSt11_Tuple_implILm1EI13buffer_paramsEE7_M_tailERS1_
FN:247,_ZNSt11_Tuple_implILm0EISs13buffer_paramsEE7_M_tailERS1_
FN:252,_ZNSt11_Tuple_implILm1EI13buffer_paramsEEC2Ev
FN:252,_ZNSt11_Tuple_implILm0EISs13buffer_paramsEEC2Ev
FN:256,_ZNSt11_Tuple_implILm1EI13buffer_paramsEEC2ERKS0_
FN:256,_ZNSt11_Tuple_implILm0EISs13buffer_paramsEEC2ERKSsRKS0_
FN:266,_ZNSt11_Tuple_implILm0EISs13buffer_paramsEEC2ERKS1_
FN:346,_ZNSt11_Tuple_implILm0EISs13buffer_paramsEEaSEOS1_
FN:346,_ZNSt11_Tuple_implILm1EI13buffer_paramsEEaSEOS1_
FN:523,_ZNSt5tupleIISs13buffer_paramsEED2Ev
FN:528,_ZNSt5tupleIISs13buffer_paramsEEC2Ev
FN:532,_ZNSt5tupleIISs13buffer_paramsEEC2ERKSsRKS0_
FN:542,_ZNSt5tupleIISs13buffer_paramsEEC2ERKS1_
FN:625,_ZNSt5tupleIISs13buffer_paramsEEaSEOS1_
FN:744,_ZSt12__get_helperILm0ESsI13buffer_paramsEENSt9__add_refIT0_E4typeERSt11_Tuple_implIXT_EIS2_DpT1_EE
FN:749,_ZSt12__get_helperILm1E13buffer_paramsIEENSt11__add_c_refIT0_E4typeERKSt11_Tuple_implIXT_EIS2_DpT1_EE
FN:749,_ZSt12__get_helperILm0ESsI13buffer_paramsEENSt11__add_c_refIT0_E4typeERKSt11_Tuple_implIXT_EIS2_DpT1_EE
FN:759,_ZSt3getILm0EISs13buffer_paramsEENSt9__add_refINSt13tuple_elementIXT_ESt5tupleIIDpT0_EEE4typeEE4typeERS6_
FN:766,_ZSt3getILm1EISs13buffer_paramsEENSt11__add_c_refINSt13tuple_elementIXT_ESt5tupleIIDpT0_EEE4typeEE4typeERKS6_
FN:766,_ZSt3getILm0EISs13buffer_paramsEENSt11__add_c_refINSt13tuple_elementIXT_ESt5tupleIIDpT0_EEE4typeEE4typeERKS6_
FNDA:88,_ZNSt10_Head_baseILm0ESsLb0EED2Ev
FNDA:16,_ZNSt10_Head_baseILm0ESsLb0EEC2Ev
FNDA:16,_ZNSt10_Head_baseILm1E13buffer_paramsLb0EEC2Ev
FNDA:12,_ZNSt10_Head_baseILm0ESsLb0EEC2ERKSs
FNDA:12,_ZNSt10_Head_baseILm1E13buffer_paramsLb0EEC2ERKS0_
FNDA:60,_ZNSt10_Head_baseILm0ESsLb0EEC2ERKS0_
FNDA:24,_ZNSt10_Head_baseILm1E13buffer_paramsLb0EE7_M_headERS1_
FNDA:36,_ZNSt10_Head_baseILm0ESsLb0EE7_M_headERS0_
FNDA:12,_ZNSt10_Head_baseILm0ESsLb0EE7_M_headERKS0_
FNDA:18,_ZNSt10_Head_baseILm1E13buffer_paramsLb0EE7_M_headERKS1_
FNDA:28,_ZNSt11_Tuple_implILm2EIEEC2Ev
FNDA:88,_ZNSt11_Tuple_implILm0EISs13buffer_paramsEED2Ev
FNDA:24,_ZNSt11_Tuple_implILm1EI13buffer_paramsEE7_M_headERS1_
FNDA:36,_ZNSt11_Tuple_implILm0EISs13buffer_paramsEE7_M_headERS1_
FNDA:12,_ZNSt11_Tuple_implILm0EISs13buffer_paramsEE7_M_headERKS1_
FNDA:18,_ZNSt11_Tuple_implILm1EI13buffer_paramsEE7_M_headERKS1_
FNDA:24,_ZNSt11_Tuple_implILm1EI13buffer_paramsEE7_M_tailERS1_
FNDA:24,_ZNSt11_Tuple_implILm0EISs13buffer_paramsEE7_M_tailERS1_
FNDA:16,_ZNSt11_Tuple_implILm0EISs13buffer_paramsEEC2Ev
FNDA:16,_ZNSt11_Tuple_implILm1EI13buffer_paramsEEC2Ev
FNDA:12,_ZNSt11_Tuple_implILm0EISs13buffer_paramsEEC2ERKSsRKS0_
FNDA:12,_ZNSt11_Tuple_implILm1EI13buffer_paramsEEC2ERKS0_
FNDA:60,_ZNSt11_Tuple_implILm0EISs13buffer_paramsEEC2ERKS1_
FNDA:12,_ZNSt11_Tuple_implILm1EI13buffer_paramsEEaSEOS1_
FNDA:12,_ZNSt11_Tuple_implILm0EISs13buffer_paramsEEaSEOS1_
FNDA:88,_ZNSt5tupleIISs13buffer_paramsEED2Ev
FNDA:16,_ZNSt5tupleIISs13buffer_paramsEEC2Ev
FNDA:12,_ZNSt5tupleIISs13buffer_paramsEEC2ERKSsRKS0_
FNDA:60,_ZNSt5tupleIISs13buffer_paramsEEC2ERKS1_
FNDA:12,_ZNSt5tupleIISs13buffer_paramsEEaSEOS1_
FNDA:12,_ZSt12__get_helperILm0ESsI13buffer_paramsEENSt9__add_refIT0_E4typeERSt11_Tuple_implIXT_EIS2_DpT1_EE
FNDA:12,_ZSt12__get_helperILm0ESsI13buffer_paramsEENSt11__add_c_refIT0_E4typeERKSt11_Tuple_implIXT_EIS2_DpT1_EE
FNDA:18,_ZSt12__get_helperILm1E13buffer_paramsIEENSt11__add_c_refIT0_E4typeERKSt11_Tuple_implIXT_EIS2_DpT1_EE
FNDA:12,_ZSt3getILm0EISs13buffer_paramsEENSt9__add_refINSt13tuple_elementIXT_ESt5tupleIIDpT0_EEE4typeEE4typeERS6_
FNDA:12,_ZSt3getILm0EISs13buffer_paramsEENSt11__add_c_refINSt13tuple_elementIXT_ESt5tupleIIDpT0_EEE4typeEE4typeERKS6_
FNDA:18,_ZSt3getILm1EISs13buffer_paramsEENSt11__add_c_refINSt13tuple_elementIXT_ESt5tupleIIDpT0_EEE4typeEE4typeERKS6_
FNF:36
FNH:36
DA:129,88
DA:131,32
DA:132,32
DA:134,24
DA:135,24
DA:137,60
DA:169,60
DA:172,30
DA:197,28
DA:231,88
DA:241,60
DA:244,30
DA:247,48
DA:252,32
DA:253,32
DA:256,24
DA:257,24
DA:266,60
DA:346,24
DA:350,24
DA:351,24
DA:352,24
DA:523,88
DA:528,16
DA:529,16
DA:532,12
DA:533,12
DA:542,60
DA:625,12
DA:628,12
DA:629,12
DA:744,12
DA:745,12
DA:749,30
DA:750,30
DA:759,12
DA:760,12
DA:766,30
DA:767,30
LF:39
LH:39
end_of_record
SF:/usr/include/c++/4.8/typeinfo
FN:120,_ZNKSt9type_infoeqERKS_
FNDA:132,_ZNKSt9type_infoeqERKS_
FNF:1
FNH:1
DA:120,132
DA:122,132
DA:123,132
DA:124,132
LF:4
LH:4
end_of_record
SF:/usr/include/x86_64-linux-gnu/c++/4.8/bits/gthr-default.h
FN:247,_ZL18__gthread_active_pv
FNDA:0,_ZL18__gthread_active_pv
FNF:1
FNH:0
DA:247,0
DA:251,0
LF:2
LH:0
end_of_record
SF:/usr/local/include/gtest/gtest-message.h
FN:85,_ZN7testing7MessageD2Ev
FN:115,_ZN7testing7MessagelsIA3_cEERS0_RKT_
FN:115,_ZN7testing7MessagelsIA2_cEERS0_RKT_
FN:115,_ZN7testing7MessagelsISsEERS0_RKT_
FN:115,_ZN7testing7MessagelsIA5_cEERS0_RKT_
FN:115,_ZN7testing7MessagelsImEERS0_RKT_
FN:115,_ZN7testing7MessagelsIA12_cEERS0_RKT_
FN:115,_ZN7testing7MessagelsIA11_cEERS0_RKT_
FN:149,_ZN7testing7MessagelsIKcEERS0_RKPT_
FNDA:78,_ZN7testing7MessageD2Ev
FNDA:12,_ZN7testing7MessagelsIA2_cEERS0_RKT_
FNDA:0,_ZN7testing7MessagelsIA5_cEERS0_RKT_
FNDA:24,_ZN7testing7MessagelsISsEERS0_RKT_
FNDA:0,_ZN7testing7MessagelsIA3_cEERS0_RKT_
FNDA:0,_ZN7testing7MessagelsIA12_cEERS0_RKT_
FNDA:12,_ZN7testing7MessagelsImEERS0_RKT_
FNDA:0,_ZN7testing7MessagelsIA11_cEERS0_RKT_
FNDA:16,_ZN7testing7MessagelsIKcEERS0_RKPT_
FNF:9
FNH:5
DA:85,78
DA:115,48
DA:131,48
DA:132,48
DA:149,16
DA:150,16
DA:151,0
DA:153,16
DA:155,16
LF:9
LH:8
end_of_record
SF:/usr/local/include/gtest/gtest-param-test.h
FN:310,_ZN7testing8ValuesInIN9__gnu_cxx17__normal_iteratorIPK13buffer_paramsSt6vectorIS3_SaIS3_EEEEEENS_8internal14ParamGeneratorINSA_14IteratorTraitsIT_E10value_typeEEESD_SD_
FN:310,_ZN7testing8ValuesInIN9__gnu_cxx17__normal_iteratorIPKSsSt6vectorISsSaISsEEEEEENS_8internal14ParamGeneratorINS9_14IteratorTraitsIT_E10value_typeEEESC_SC_
FN:323,_ZN7testing8ValuesInISt6vectorISsSaISsEEEENS_8internal14ParamGeneratorINT_10value_typeEEERKS6_
FN:323,_ZN7testing8ValuesInISt6vectorI13buffer_paramsSaIS2_EEEENS_8internal14ParamGeneratorINT_10value_typeEEERKS7_
FN:1274,_ZN7testing7CombineINS_8internal14ParamGeneratorISsEENS2_I13buffer_paramsEEEENS1_23CartesianProductHolder2IT_T0_EERKS7_RKS8_
FNDA:2,_ZN7testing8ValuesInIN9__gnu_cxx17__normal_iteratorIPK13buffer_paramsSt6vectorIS3_SaIS3_EEEEEENS_8internal14ParamGeneratorINSA_14IteratorTraitsIT_E10value_typeEEESD_SD_
FNDA:2,_ZN7testing8ValuesInIN9__gnu_cxx17__normal_iteratorIPKSsSt6vectorISsSaISsEEEEEENS_8internal14ParamGeneratorINS9_14IteratorTraitsIT_E10value_typeEEESC_SC_
FNDA:2,_ZN7testing8ValuesInISt6vectorI13buffer_paramsSaIS2_EEEENS_8internal14ParamGeneratorINT_10value_typeEEERKS7_
FNDA:2,_ZN7testing8ValuesInISt6vectorISsSaISsEEEENS_8internal14ParamGeneratorINT_10value_typeEEERKS6_
FNDA:2,_ZN7testing7CombineINS_8internal14ParamGeneratorISsEENS2_I13buffer_paramsEEEENS1_23CartesianProductHolder2IT_T0_EERKS7_RKS8_
FNF:5
FNH:5
DA:310,4
DA:314,4
DA:323,4
DA:325,4
DA:1274,2
DA:1277,2
LF:6
LH:6
end_of_record
SF:/usr/local/include/gtest/gtest-printers.h
FN:139,_ZN7testing9internal220TypeWithoutFormatterI13buffer_paramsLNS0_8TypeKindE2EE10PrintValueERKS2_PSo
FN:172,_ZN7testing9internal220TypeWithoutFormatterI11fpga_resultLNS0_8TypeKindE1EE10PrintValueERKS2_PSo
FN:203,_ZN7testing9internal2lsIcSt11char_traitsIcE13buffer_paramsEERSt13basic_ostreamIT_T0_ES9_RKT1_
FN:203,_ZN7testing9internal2lsIcSt11char_traitsIcE11fpga_resultEERSt13basic_ostreamIT_T0_ES9_RKT1_
FN:222,_ZN16testing_internal26DefaultPrintNonContainerToI13buffer_paramsEEvRKT_PSo
FN:222,_ZN16testing_internal26DefaultPrintNonContainerToI11fpga_resultEEvRKT_PSo
FN:275,_ZN7testing8internal19FormatForComparisonI11fpga_resultS2_E6FormatERKS2_
FN:349,_ZN7testing8internal33FormatForComparisonFailureMessageI11fpga_resultS2_EESsRKT_RKT0_
FN:442,_ZN7testing8internal14DefaultPrintToI13buffer_paramsEEvNS0_15WrapPrinterTypeILNS0_18DefaultPrinterTypeE3EEERKT_PSo
FN:442,_ZN7testing8internal14DefaultPrintToI11fpga_resultEEvNS0_15WrapPrinterTypeILNS0_18DefaultPrinterTypeE3EEERKT_PSo
FN:459,_ZN7testing8internal7PrintToI13buffer_paramsEEvRKT_PSo
FN:459,_ZN7testing8internal7PrintToI11fpga_resultEEvRKT_PSo
FN:578,_ZN7testing8internal7PrintToERKSsPSo
FN:623,_ZN7testing8internal7PrintToISs13buffer_paramsEEvRKSt5tupleIIT_T0_EEPSo
FN:711,_ZN7testing8internal16UniversalPrinterI13buffer_paramsE5PrintERKS2_PSo
FN:711,_ZN7testing8internal16UniversalPrinterISt5tupleIISs13buffer_paramsEEE5PrintERKS4_PSo
FN:711,_ZN7testing8internal16UniversalPrinterI11fpga_resultE5PrintERKS2_PSo
FN:711,_ZN7testing8internal16UniversalPrinterISsE5PrintERKSsPSo
FN:796,_ZN7testing8internal21UniversalTersePrinterISt5tupleIISs13buffer_paramsEEE5PrintERKS4_PSo
FN:796,_ZN7testing8internal21UniversalTersePrinterI11fpga_resultE5PrintERKS2_PSo
FN:865,_ZN7testing8internal14UniversalPrintI11fpga_resultEEvRKT_PSo
FN:865,_ZN7testing8internal14UniversalPrintISt5tupleIISs13buffer_paramsEEEEvRKT_PSo
FN:914,_ZN7testing8internal11TuplePolicyISt5tupleIISs13buffer_paramsEEE3getILm1EEERKNSt13tuple_elementIXT_ES4_E4typeERKS4_
FN:914,_ZN7testing8internal11TuplePolicyISt5tupleIISs13buffer_paramsEEE3getILm0EEERKNSt13tuple_elementIXT_ES4_E4typeERKS4_
FN:936,_ZN7testing8internal18TuplePrefixPrinterILm2EE13PrintPrefixToISt5tupleIISs13buffer_paramsEEEEvRKT_PSo
FN:936,_ZN7testing8internal18TuplePrefixPrinterILm1EE13PrintPrefixToISt5tupleIISs13buffer_paramsEEEEvRKT_PSo
FN:963,_ZN7testing8internal18TuplePrefixPrinterILm0EE13PrintPrefixToISt5tupleIISs13buffer_paramsEEEEvRKT_PSo
FN:972,_ZN7testing8internal12PrintTupleToISt5tupleIISs13buffer_paramsEEEEvRKT_PSo
FN:993,_ZN7testing13PrintToStringI11fpga_resultEESsRKT_
FN:993,_ZN7testing13PrintToStringISt5tupleIISs13buffer_paramsEEEESsRKT_
FNDA:12,_ZN7testing9internal220TypeWithoutFormatterI13buffer_paramsLNS0_8TypeKindE2EE10PrintValueERKS2_PSo
FNDA:0,_ZN7testing9internal220TypeWithoutFormatterI11fpga_resultLNS0_8TypeKindE1EE10PrintValueERKS2_PSo
FNDA:12,_ZN7testing9internal2lsIcSt11char_traitsIcE13buffer_paramsEERSt13basic_ostreamIT_T0_ES9_RKT1_
FNDA:0,_ZN7testing9internal2lsIcSt11char_traitsIcE11fpga_resultEERSt13basic_ostreamIT_T0_ES9_RKT1_
FNDA:12,_ZN16testing_internal26DefaultPrintNonContainerToI13buffer_paramsEEvRKT_PSo
FNDA:0,_ZN16testing_internal26DefaultPrintNonContainerToI11fpga_resultEEvRKT_PSo
FNDA:0,_ZN7testing8internal19FormatForComparisonI11fpga_resultS2_E6FormatERKS2_
FNDA:0,_ZN7testing8internal33FormatForComparisonFailureMessageI11fpga_resultS2_EESsRKT_RKT0_
FNDA:12,_ZN7testing8internal14DefaultPrintToI13buffer_paramsEEvNS0_15WrapPrinterTypeILNS0_18DefaultPrinterTypeE3EEERKT_PSo
FNDA:0,_ZN7testing8internal14DefaultPrintToI11fpga_resultEEvNS0_15WrapPrinterTypeILNS0_18DefaultPrinterTypeE3EEERKT_PSo
FNDA:12,_ZN7testing8internal7PrintToI13buffer_paramsEEvRKT_PSo
FNDA:0,_ZN7testing8internal7PrintToI11fpga_resultEEvRKT_PSo
FNDA:12,_ZN7testing8internal7PrintToERKSsPSo
FNDA:12,_ZN7testing8internal7PrintToISs13buffer_paramsEEvRKSt5tupleIIT_T0_EEPSo
FNDA:12,_ZN7testing8internal16UniversalPrinterI13buffer_paramsE5PrintERKS2_PSo
FNDA:12,_ZN7testing8internal16UniversalPrinterISt5tupleIISs13buffer_paramsEEE5PrintERKS4_PSo
FNDA:0,_ZN7testing8internal16UniversalPrinterI11fpga_resultE5PrintERKS2_PSo
FNDA:12,_ZN7testing8internal16UniversalPrinterISsE5PrintERKSsPSo
FNDA:12,_ZN7testing8internal21UniversalTersePrinterISt5tupleIISs13buffer_paramsEEE5PrintERKS4_PSo
FNDA:0,_ZN7testing8internal21UniversalTersePrinterI11fpga_resultE5PrintERKS2_PSo
FNDA:12,_ZN7testing8internal14UniversalPrintISt5tupleIISs13buffer_paramsEEEEvRKT_PSo
FNDA:0,_ZN7testing8internal14UniversalPrintI11fpga_resultEEvRKT_PSo
FNDA:12,_ZN7testing8internal11TuplePolicyISt5tupleIISs13buffer_paramsEEE3getILm0EEERKNSt13tuple_elementIXT_ES4_E4typeERKS4_
FNDA:12,_ZN7testing8internal11TuplePolicyISt5tupleIISs13buffer_paramsEEE3getILm1EEERKNSt13tuple_elementIXT_ES4_E4typeERKS4_
FNDA:12,_ZN7testing8internal18TuplePrefixPrinterILm1EE13PrintPrefixToISt5tupleIISs13buffer_paramsEEEEvRKT_PSo
FNDA:12,_ZN7testing8internal18TuplePrefixPrinterILm2EE13PrintPrefixToISt5tupleIISs13buffer_paramsEEEEvRKT_PSo
FNDA:12,_ZN7testing8internal18TuplePrefixPrinterILm0EE13PrintPrefixToISt5tupleIISs13buffer_paramsEEEEvRKT_PSo
FNDA:12,_ZN7testing8internal12PrintTupleToISt5tupleIISs13buffer_paramsEEEEvRKT_PSo
FNDA:12,_ZN7testing13PrintToStringISt5tupleIISs13buffer_paramsEEEESsRKT_
FNDA:0,_ZN7testing13PrintToStringI11fpga_resultEESsRKT_
FNF:30
FNH:19
DA:139,12
DA:140,12
DA:142,12
DA:172,0
DA:173,0
DA:174,0
DA:175,0
DA:203,12
DA:205,12
DA:209,12
DA:222,12
DA:249,12
DA:250,12
DA:275,0
DA:276,0
DA:349,0
DA:351,0
DA:442,12
DA:444,12
DA:445,12
DA:459,12
DA:479,12
DA:490,12
DA:491,12
DA:578,12
DA:579,12
DA:580,12
DA:623,12
DA:624,12
DA:625,12
DA:711,36
DA:720,36
DA:721,36
DA:796,12
DA:797,12
DA:798,12
DA:865,12
DA:869,12
DA:870,12
DA:914,24
DA:916,24
DA:936,24
DA:937,24
DA:941,12
DA:943,24
DA:945,24
DA:946,24
DA:963,12
DA:972,12
DA:973,12
DA:974,12
DA:975,12
DA:976,12
DA:993,12
DA:994,12
DA:995,12
DA:996,12
LF:57
LH:49
end_of_record
SF:/usr/local/include/gtest/gtest.h
FN:256,_ZN7testing15AssertionResultD2Ev
FN:272,_ZN7testing15AssertionResultC2IbEERKT_PNS_8internal8EnableIfIXntsrNS5_21ImplicitlyConvertibleIS2_S0_EE5valueEE4typeE
FN:288,_ZNK7testing15AssertionResultcvbEv
FN:297,_ZNK7testing15AssertionResult7messageEv
FN:302,_ZNK7testing15AssertionResult15failure_messageEv
FN:305,_ZN7testing15AssertionResultlsIA3_cEERS0_RKT_
FN:305,_ZN7testing15AssertionResultlsIPKcEERS0_RKT_
FN:305,_ZN7testing15AssertionResultlsIA12_cEERS0_RKT_
FN:305,_ZN7testing15AssertionResultlsIA5_cEERS0_RKT_
FN:305,_ZN7testing15AssertionResultlsISsEERS0_RKT_
FN:320,_ZN7testing15AssertionResult13AppendMessageERKNS_7MessageE
FN:389,_ZN7testing4Test13SetUpTestCaseEv
FN:397,_ZN7testing4Test16TearDownTestCaseEv
FN:474,_ZN7testing4Test5SetupEv
FN:1375,_ZN7testing8internal18CmpHelperEQFailureI11fpga_resultS2_EENS_15AssertionResultEPKcS5_RKT_RKT0_
FN:1387,_ZN7testing8internal11CmpHelperEQI11fpga_resultS2_EENS_15AssertionResultEPKcS5_RKT_RKT0_
FN:1417,_ZN7testing8internal8EqHelperILb0EE7CompareI11fpga_resultS4_EENS_15AssertionResultEPKcS7_RKT_RKT0_
FN:1486,_ZN7testing8internal18CmpHelperOpFailureI11fpga_resultS2_EENS_15AssertionResultEPKcS5_RKT_RKT0_S5_
FN:1522,_ZN7testing8internal11CmpHelperNEI11fpga_resultS2_EENS_15AssertionResultEPKcS5_RKT_RKT0_
FN:1745,_ZN7testing18WithParamInterfaceISt5tupleIISs13buffer_paramsEEEC2Ev
FN:1748,_ZN7testing18WithParamInterfaceISt5tupleIISs13buffer_paramsEEED0Ev
FN:1748,_ZN7testing18WithParamInterfaceISt5tupleIISs13buffer_paramsEEED2Ev
FN:1755,_ZNK7testing18WithParamInterfaceISt5tupleIISs13buffer_paramsEEE8GetParamEv
FN:1765,_ZN7testing18WithParamInterfaceISt5tupleIISs13buffer_paramsEEE8SetParamEPKS3_
FN:1783,_ZN7testing13TestWithParamISt5tupleIISs13buffer_paramsEEED2Ev
FN:1783,_ZN7testing13TestWithParamISt5tupleIISs13buffer_paramsEEED0Ev
FN:1783,_ZN7testing13TestWithParamISt5tupleIISs13buffer_paramsEEEC2Ev
FNDA:170,_ZN7testing15AssertionResultD2Ev
FNDA:170,_ZN7testing15AssertionResultC2IbEERKT_PNS_8internal8EnableIfIXntsrNS5_21ImplicitlyConvertibleIS2_S0_EE5valueEE4typeE
FNDA:170,_ZNK7testing15AssertionResultcvbEv
FNDA:0,_ZNK7testing15AssertionResult7messageEv
FNDA:0,_ZNK7testing15AssertionResult15failure_messageEv
FNDA:0,_ZN7testing15AssertionResultlsIA5_cEERS0_RKT_
FNDA:0,_ZN7testing15AssertionResultlsISsEERS0_RKT_
FNDA:0,_ZN7testing15AssertionResultlsIA3_cEERS0_RKT_
FNDA:0,_ZN7testing15AssertionResultlsIPKcEERS0_RKT_
FNDA:0,_ZN7testing15AssertionResultlsIA12_cEERS0_RKT_
FNDA:0,_ZN7testing15AssertionResult13AppendMessageERKNS_7MessageE
FNDA:1,_ZN7testing4Test13SetUpTestCaseEv
FNDA:1,_ZN7testing4Test16TearDownTestCaseEv
FNDA:0,_ZN7testing4Test5SetupEv
FNDA:0,_ZN7testing8internal18CmpHelperEQFailureI11fpga_resultS2_EENS_15AssertionResultEPKcS5_RKT_RKT0_
FNDA:152,_ZN7testing8internal11CmpHelperEQI11fpga_resultS2_EENS_15AssertionResultEPKcS5_RKT_RKT0_
FNDA:152,_ZN7testing8internal8EqHelperILb0EE7CompareI11fpga_resultS4_EENS_15AssertionResultEPKcS7_RKT_RKT0_
FNDA:0,_ZN7testing8internal18CmpHelperOpFailureI11fpga_resultS2_EENS_15AssertionResultEPKcS5_RKT_RKT0_S5_
FNDA:6,_ZN7testing8internal11CmpHelperNEI11fpga_resultS2_EENS_15AssertionResultEPKcS5_RKT_RKT0_
FNDA:12,_ZN7testing18WithParamInterfaceISt5tupleIISs13buffer_paramsEEEC2Ev
FNDA:0,_ZN7testing18WithParamInterfaceISt5tupleIISs13buffer_paramsEEED0Ev
FNDA:12,_ZN7testing18WithParamInterfaceISt5tupleIISs13buffer_paramsEEED2Ev
FNDA:18,_ZNK7testing18WithParamInterfaceISt5tupleIISs13buffer_paramsEEE8GetParamEv
FNDA:12,_ZN7testing18WithParamInterfaceISt5tupleIISs13buffer_paramsEEE8SetParamEPKS3_
FNDA:0,_ZN7testing13TestWithParamISt5tupleIISs13buffer_paramsEEED0Ev
FNDA:12,_ZN7testing13TestWithParamISt5tupleIISs13buffer_paramsEEED2Ev
FNDA:12,_ZN7testing13TestWithParamISt5tupleIISs13buffer_paramsEEEC2Ev
FNF:27
FNH:14
DA:256,170
DA:272,170
DA:277,170
DA:288,170
DA:297,0
DA:298,0
DA:302,0
DA:305,0
DA:306,0
DA:307,0
DA:320,0
DA:321,0
DA:322,0
DA:323,0
DA:324,0
DA:389,1
DA:397,1
DA:474,0
DA:1375,0
DA:1382,0
DA:1387,152
DA:1392,152
DA:1393,152
DA:1397,0
DA:1417,152
DA:1421,152
DA:1486,0
DA:1490,0
DA:1491,0
DA:1492,0
DA:1522,6
DA:1745,12
DA:1748,12
DA:1755,18
DA:1756,18
DA:1757,0
DA:1759,18
DA:1765,12
DA:1766,12
DA:1767,12
DA:1783,24
LF:41
LH:21
end_of_record
SF:/usr/local/include/gtest/internal/gtest-internal.h
FN:447,_ZN7testing8internal9GetTypeIdI14buffer_prepareEEPKvv
FN:466,_ZN7testing8internal15TestFactoryBaseD2Ev
FN:466,_ZN7testing8internal15TestFactoryBaseD0Ev
FN:473,_ZN7testing8internal15TestFactoryBaseC2Ev
FN:504,_ZN7testing8internal12CodeLocationC2ERKS1_
FN:504,_ZN7testing8internal12CodeLocationD2Ev
FN:505,_ZN7testing8internal12CodeLocationC2ERKSsi
FNDA:16,_ZN7testing8internal9GetTypeIdI14buffer_prepareEEPKvv
FNDA:0,_ZN7testing8internal15TestFactoryBaseD0Ev
FNDA:12,_ZN7testing8internal15TestFactoryBaseD2Ev
FNDA:12,_ZN7testing8internal15TestFactoryBaseC2Ev
FNDA:38,_ZN7testing8internal12CodeLocationC2ERKS1_
FNDA:41,_ZN7testing8internal12CodeLocationD2Ev
FNDA:3,_ZN7testing8internal12CodeLocationC2ERKSsi
FNF:7
FNH:6
DA:447,16
DA:452,16
DA:466,12
DA:473,12
DA:504,79
DA:505,3
DA:506,3
LF:7
LH:7
end_of_record
SF:/usr/local/include/gtest/internal/gtest-linked_ptr.h
FN:92,_ZN7testing8internal19linked_ptr_internal8join_newEv
FN:108,_ZN7testing8internal19linked_ptr_internal4joinEPKS1_
FN:125,_ZN7testing8internal19linked_ptr_internal6departEv
FN:152,_ZN7testing8internal10linked_ptrIKNS0_23ParamGeneratorInterfaceISsEEEC2EPS4_
FN:152,_ZN7testing8internal10linked_ptrIKNS0_23ParamGeneratorInterfaceISt5tupleIISs13buffer_paramsEEEEEC2EPS7_
FN:152,_ZN7testing8internal10linked_ptrINS0_25ParameterizedTestCaseInfoI14buffer_prepareE8TestInfoEEC2EPS5_
FN:152,_ZN7testing8internal10linked_ptrIKNS0_23ParamGeneratorInterfaceI13buffer_paramsEEEC2EPS5_
FN:153,_ZN7testing8internal10linked_ptrINS0_25ParameterizedTestCaseInfoI14buffer_prepareE8TestInfoEED2Ev
FN:153,_ZN7testing8internal10linked_ptrIKNS0_23ParamGeneratorInterfaceISsEEED2Ev
FN:153,_ZN7testing8internal10linked_ptrIKNS0_23ParamGeneratorInterfaceISt5tupleIISs13buffer_paramsEEEEED2Ev
FN:153,_ZN7testing8internal10linked_ptrIKNS0_23ParamGeneratorInterfaceI13buffer_paramsEEED2Ev
FN:157,_ZN7testing8internal10linked_ptrINS0_25ParameterizedTestCaseInfoI14buffer_prepareE8TestInfoEEC2ERKS6_
FN:157,_ZN7testing8internal10linked_ptrIKNS0_23ParamGeneratorInterfaceISsEEEC2ERKS5_
FN:157,_ZN7testing8internal10linked_ptrIKNS0_23ParamGeneratorInterfaceI13buffer_paramsEEEC2ERKS6_
FN:182,_ZNK7testing8internal10linked_ptrIKNS0_23ParamGeneratorInterfaceI13buffer_paramsEEE3getEv
FN:182,_ZNK7testing8internal10linked_ptrIKNS0_23ParamGeneratorInterfaceISsEEE3getEv
FN:182,_ZNK7testing8internal10linked_ptrINS0_25ParameterizedTestCaseInfoI14buffer_prepareE8TestInfoEE3getEv
FN:183,_ZNK7testing8internal10linked_ptrIKNS0_23ParamGeneratorInterfaceI13buffer_paramsEEEptEv
FN:183,_ZNK7testing8internal10linked_ptrINS0_25ParameterizedTestCaseInfoI14buffer_prepareE8TestInfoEEptEv
FN:183,_ZNK7testing8internal10linked_ptrIKNS0_23ParamGeneratorInterfaceISsEEEptEv
FN:183,_ZNK7testing8internal10linked_ptrIKNS0_23ParamGeneratorInterfaceISt5tupleIISs13buffer_paramsEEEEEptEv
FN:204,_ZN7testing8internal10linked_ptrINS0_25ParameterizedTestCaseInfoI14buffer_prepareE8TestInfoEE6departEv
FN:204,_ZN7testing8internal10linked_ptrIKNS0_23ParamGeneratorInterfaceISt5tupleIISs13buffer_paramsEEEEE6departEv
FN:204,_ZN7testing8internal10linked_ptrIKNS0_23ParamGeneratorInterfaceI13buffer_paramsEEE6departEv
FN:204,_ZN7testing8internal10linked_ptrIKNS0_23ParamGeneratorInterfaceISsEEE6departEv
FN:208,_ZN7testing8internal10linked_ptrIKNS0_23ParamGeneratorInterfaceISt5tupleIISs13buffer_paramsEEEEE7captureEPS7_
FN:208,_ZN7testing8internal10linked_ptrINS0_25ParameterizedTestCaseInfoI14buffer_prepareE8TestInfoEE7captureEPS5_
FN:208,_ZN7testing8internal10linked_ptrIKNS0_23ParamGeneratorInterfaceI13buffer_paramsEEE7captureEPS5_
FN:208,_ZN7testing8internal10linked_ptrIKNS0_23ParamGeneratorInterfaceISsEEE7captureEPS4_
FN:213,_ZN7testing8internal10linked_ptrIKNS0_23ParamGeneratorInterfaceI13buffer_paramsEEE4copyIS5_EEvPKNS1_IT_EE
FN:213,_ZN7testing8internal10linked_ptrIKNS0_23ParamGeneratorInterfaceISsEEE4copyIS4_EEvPKNS1_IT_EE
FN:213,_ZN7testing8internal10linked_ptrINS0_25ParameterizedTestCaseInfoI14buffer_prepareE8TestInfoEE4copyIS5_EEvPKNS1_IT_EE
FNDA:8,_ZN7testing8internal19linked_ptr_internal8join_newEv
FNDA:17,_ZN7testing8internal19linked_ptr_internal4joinEPKS1_
FNDA:25,_ZN7testing8internal19linked_ptr_internal6departEv
FNDA:2,_ZN7testing8internal10linked_ptrIKNS0_23ParamGeneratorInterfaceI13buffer_paramsEEEC2EPS5_
FNDA:2,_ZN7testing8internal10linked_ptrIKNS0_23ParamGeneratorInterfaceISsEEEC2EPS4_
FNDA:2,_ZN7testing8internal10linked_ptrIKNS0_23ParamGeneratorInterfaceISt5tupleIISs13buffer_paramsEEEEEC2EPS7_
FNDA:2,_ZN7testing8internal10linked_ptrINS0_25ParameterizedTestCaseInfoI14buffer_prepareE8TestInfoEEC2EPS5_
FNDA:7,_ZN7testing8internal10linked_ptrINS0_25ParameterizedTestCaseInfoI14buffer_prepareE8TestInfoEED2Ev
FNDA:2,_ZN7testing8internal10linked_ptrIKNS0_23ParamGeneratorInterfaceISt5tupleIISs13buffer_paramsEEEEED2Ev
FNDA:8,_ZN7testing8internal10linked_ptrIKNS0_23ParamGeneratorInterfaceI13buffer_paramsEEED2Ev
FNDA:8,_ZN7testing8internal10linked_ptrIKNS0_23ParamGeneratorInterfaceISsEEED2Ev
FNDA:5,_ZN7testing8internal10linked_ptrINS0_25ParameterizedTestCaseInfoI14buffer_prepareE8TestInfoEEC2ERKS6_
FNDA:6,_ZN7testing8internal10linked_ptrIKNS0_23ParamGeneratorInterfaceI13buffer_paramsEEEC2ERKS6_
FNDA:6,_ZN7testing8internal10linked_ptrIKNS0_23ParamGeneratorInterfaceISsEEEC2ERKS5_
FNDA:5,_ZNK7testing8internal10linked_ptrINS0_25ParameterizedTestCaseInfoI14buffer_prepareE8TestInfoEE3getEv
FNDA:6,_ZNK7testing8internal10linked_ptrIKNS0_23ParamGeneratorInterfaceI13buffer_paramsEEE3getEv
FNDA:6,_ZNK7testing8internal10linked_ptrIKNS0_23ParamGeneratorInterfaceISsEEE3getEv
FNDA:16,_ZNK7testing8internal10linked_ptrIKNS0_23ParamGeneratorInterfaceISt5tupleIISs13buffer_paramsEEEEEptEv
FNDA:48,_ZNK7testing8internal10linked_ptrIKNS0_23ParamGeneratorInterfaceI13buffer_paramsEEEptEv
FNDA:48,_ZNK7testing8internal10linked_ptrIKNS0_23ParamGeneratorInterfaceISsEEEptEv
FNDA:26,_ZNK7testing8internal10linked_ptrINS0_25ParameterizedTestCaseInfoI14buffer_prepareE8TestInfoEEptEv
FNDA:7,_ZN7testing8internal10linked_ptrINS0_25ParameterizedTestCaseInfoI14buffer_prepareE8TestInfoEE6departEv
FNDA:2,_ZN7testing8internal10linked_ptrIKNS0_23ParamGeneratorInterfaceISt5tupleIISs13buffer_paramsEEEEE6departEv
FNDA:8,_ZN7testing8internal10linked_ptrIKNS0_23ParamGeneratorInterfaceI13buffer_paramsEEE6departEv
FNDA:8,_ZN7testing8internal10linked_ptrIKNS0_23ParamGeneratorInterfaceISsEEE6departEv
FNDA:2,_ZN7testing8internal10linked_ptrIKNS0_23ParamGeneratorInterfaceI13buffer_paramsEEE7captureEPS5_
FNDA:2,_ZN7testing8internal10linked_ptrIKNS0_23ParamGeneratorInterfaceISsEEE7captureEPS4_
FNDA:2,_ZN7testing8internal10linked_ptrIKNS0_23ParamGeneratorInterfaceISt5tupleIISs13buffer_paramsEEEEE7captureEPS7_
FNDA:2,_ZN7testing8internal10linked_ptrINS0_25ParameterizedTestCaseInfoI14buffer_prepareE8TestInfoEE7captureEPS5_
FNDA:5,_ZN7testing8internal10linked_ptrINS0_25ParameterizedTestCaseInfoI14buffer_prepareE8TestInfoEE4copyIS5_EEvPKNS1_IT_EE
FNDA:6,_ZN7testing8internal10linked_ptrIKNS0_23ParamGeneratorInterfaceI13buffer_paramsEEE4copyIS5_EEvPKNS1_IT_EE
FNDA:6,_ZN7testing8internal10linked_ptrIKNS0_23ParamGeneratorInterfaceISsEEE4copyIS4_EEvPKNS1_IT_EE
FNF:32
FNH:32
DA:92,8
DA:93,8
DA:94,8
DA:108,17
DA:110,17
DA:112,17
DA:113,46
DA:114,12
DA:116,12
DA:117,12
DA:119,17
DA:120,17
DA:121,17
DA:125,25
DA:127,25
DA:129,25
DA:130,17
DA:131,46
DA:132,12
DA:134,12
DA:135,12
DA:137,17
DA:138,17
DA:152,8
DA:153,25
DA:157,17
DA:158,17
DA:159,17
DA:160,17
DA:182,17
DA:183,138
DA:204,25
DA:205,25
DA:206,25
DA:208,8
DA:209,8
DA:210,8
DA:211,8
DA:213,17
DA:214,17
DA:215,17
DA:216,17
DA:218,0
DA:219,17
LF:44
LH:43
end_of_record
SF:/usr/local/include/gtest/internal/gtest-param-util-generated.h
FN:3167,_ZN7testing8internal26CartesianProductGenerator2ISs13buffer_paramsEC2ERKNS0_14ParamGeneratorISsEERKNS4_IS2_EE
FN:3170,_ZN7testing8internal26CartesianProductGenerator2ISs13buffer_paramsED0Ev
FN:3170,_ZN7testing8internal26CartesianProductGenerator2ISs13buffer_paramsED2Ev
FN:3172,_ZNK7testing8internal26CartesianProductGenerator2ISs13buffer_paramsE5BeginEv
FN:3175,_ZNK7testing8internal26CartesianProductGenerator2ISs13buffer_paramsE3EndEv
FN:3182,_ZN7testing8internal26CartesianProductGenerator2ISs13buffer_paramsE8IteratorC2EPKNS0_23ParamGeneratorInterfaceISt5tupleIISsS2_EEEERKNS0_14ParamGeneratorISsEERKNS0_13ParamIteratorISsEERKNSB_IS2_EERKNSF_IS2_EE
FN:3192,_ZN7testing8internal26CartesianProductGenerator2ISs13buffer_paramsE8IteratorD2Ev
FN:3192,_ZN7testing8internal26CartesianProductGenerator2ISs13buffer_paramsE8IteratorD0Ev
FN:3194,_ZNK7testing8internal26CartesianProductGenerator2ISs13buffer_paramsE8Iterator13BaseGeneratorEv
FN:3199,_ZN7testing8internal26CartesianProductGenerator2ISs13buffer_paramsE8Iterator7AdvanceEv
FN:3208,_ZNK7testing8internal26CartesianProductGenerator2ISs13buffer_paramsE8Iterator5CloneEv
FN:3211,_ZNK7testing8internal26CartesianProductGenerator2ISs13buffer_paramsE8Iterator7CurrentEv
FN:3212,_ZNK7testing8internal26CartesianProductGenerator2ISs13buffer_paramsE8Iterator6EqualsERKNS0_22ParamIteratorInterfaceISt5tupleIISsS2_EEEE
FN:3230,_ZN7testing8internal26CartesianProductGenerator2ISs13buffer_paramsE8IteratorC2ERKS4_
FN:3241,_ZN7testing8internal26CartesianProductGenerator2ISs13buffer_paramsE8Iterator19ComputeCurrentValueEv
FN:3245,_ZNK7testing8internal26CartesianProductGenerator2ISs13buffer_paramsE8Iterator5AtEndEv
FN:4839,_ZN7testing8internal23CartesianProductHolder2INS0_14ParamGeneratorISsEENS2_I13buffer_paramsEEED2Ev
FN:4841,_ZN7testing8internal23CartesianProductHolder2INS0_14ParamGeneratorISsEENS2_I13buffer_paramsEEEC2ERKS3_RKS5_
FN:4844,_ZNK7testing8internal23CartesianProductHolder2INS0_14ParamGeneratorISsEENS2_I13buffer_paramsEEEcvNS2_ISt5tupleIIT_T0_EEEEISsS4_EEv
FNDA:2,_ZN7testing8internal26CartesianProductGenerator2ISs13buffer_paramsEC2ERKNS0_14ParamGeneratorISsEERKNS4_IS2_EE
FNDA:2,_ZN7testing8internal26CartesianProductGenerator2ISs13buffer_paramsED0Ev
FNDA:2,_ZN7testing8internal26CartesianProductGenerator2ISs13buffer_paramsED2Ev
FNDA:2,_ZNK7testing8internal26CartesianProductGenerator2ISs13buffer_paramsE5BeginEv
FNDA:14,_ZNK7testing8internal26CartesianProductGenerator2ISs13buffer_paramsE3EndEv
FNDA:16,_ZN7testing8internal26CartesianProductGenerator2ISs13buffer_paramsE8IteratorC2EPKNS0_23ParamGeneratorInterfaceISt5tupleIISsS2_EEEERKNS0_14ParamGeneratorISsEERKNS0_13ParamIteratorISsEERKNSB_IS2_EERKNSF_IS2_EE
FNDA:16,_ZN7testing8internal26CartesianProductGenerator2ISs13buffer_paramsE8IteratorD0Ev
FNDA:16,_ZN7testing8internal26CartesianProductGenerator2ISs13buffer_paramsE8IteratorD2Ev
FNDA:28,_ZNK7testing8internal26CartesianProductGenerator2ISs13buffer_paramsE8Iterator13BaseGeneratorEv
FNDA:12,_ZN7testing8internal26CartesianProductGenerator2ISs13buffer_paramsE8Iterator7AdvanceEv
FNDA:0,_ZNK7testing8internal26CartesianProductGenerator2ISs13buffer_paramsE8Iterator5CloneEv
FNDA:36,_ZNK7testing8internal26CartesianProductGenerator2ISs13buffer_paramsE8Iterator7CurrentEv
FNDA:14,_ZNK7testing8internal26CartesianProductGenerator2ISs13buffer_paramsE8Iterator6EqualsERKNS0_22ParamIteratorInterfaceISt5tupleIISsS2_EEEE
FNDA:0,_ZN7testing8internal26CartesianProductGenerator2ISs13buffer_paramsE8IteratorC2ERKS4_
FNDA:28,_ZN7testing8internal26CartesianProductGenerator2ISs13buffer_paramsE8Iterator19ComputeCurrentValueEv
FNDA:56,_ZNK7testing8internal26CartesianProductGenerator2ISs13buffer_paramsE8Iterator5AtEndEv
FNDA:2,_ZN7testing8internal23CartesianProductHolder2INS0_14ParamGeneratorISsEENS2_I13buffer_paramsEEED2Ev
FNDA:2,_ZN7testing8internal23CartesianProductHolder2INS0_14ParamGeneratorISsEENS2_I13buffer_paramsEEEC2ERKS3_RKS5_
FNDA:2,_ZNK7testing8internal23CartesianProductHolder2INS0_14ParamGeneratorISsEENS2_I13buffer_paramsEEEcvNS2_ISt5tupleIIT_T0_EEEEISsS4_EEv
FNF:19
FNH:17
DA:3167,2
DA:3169,2
DA:3170,4
DA:3172,2
DA:3173,2
DA:3175,14
DA:3176,14
DA:3182,16
DA:3189,16
DA:3190,16
DA:3191,16
DA:3192,32
DA:3194,28
DA:3195,28
DA:3199,12
DA:3200,12
DA:3201,12
DA:3202,12
DA:3203,2
DA:3204,2
DA:3206,12
DA:3207,12
DA:3208,0
DA:3209,0
DA:3211,36
DA:3212,14
DA:3215,14
DA:3216,0
DA:3217,0
DA:3219,14
DA:3223,16
DA:3225,12
DA:3226,28
DA:3230,0
DA:3237,0
DA:3238,0
DA:3239,0
DA:3241,28
DA:3242,28
DA:3243,12
DA:3244,28
DA:3245,56
DA:3249,56
DA:3250,56
DA:4839,2
DA:4841,2
DA:4842,2
DA:4844,2
DA:4848,2
LF:49
LH:41
end_of_record
SF:/usr/local/include/gtest/internal/gtest-param-util.h
FN:59,_ZN7testing13TestParamInfoISt5tupleIISs13buffer_paramsEEED2Ev
FN:60,_ZN7testing13TestParamInfoISt5tupleIISs13buffer_paramsEEEC2ERKS3_m
FN:93,_ZN7testing8internal22ParamIteratorInterfaceISt5tupleIISs13buffer_paramsEEEC2Ev
FN:93,_ZN7testing8internal22ParamIteratorInterfaceISsEC2Ev
FN:93,_ZN7testing8internal22ParamIteratorInterfaceI13buffer_paramsEC2Ev
FN:95,_ZN7testing8internal22ParamIteratorInterfaceISt5tupleIISs13buffer_paramsEEED2Ev
FN:95,_ZN7testing8internal22ParamIteratorInterfaceI13buffer_paramsED0Ev
FN:95,_ZN7testing8internal22ParamIteratorInterfaceISt5tupleIISs13buffer_paramsEEED0Ev
FN:95,_ZN7testing8internal22ParamIteratorInterfaceISsED0Ev
FN:95,_ZN7testing8internal22ParamIteratorInterfaceI13buffer_paramsED2Ev
FN:95,_ZN7testing8internal22ParamIteratorInterfaceISsED2Ev
FN:123,_ZN7testing8internal13ParamIteratorI13buffer_paramsED2Ev
FN:123,_ZN7testing8internal13ParamIteratorISt5tupleIISs13buffer_paramsEEED2Ev
FN:123,_ZN7testing8internal13ParamIteratorISsED2Ev
FN:130,_ZN7testing8internal13ParamIteratorI13buffer_paramsEC2ERKS3_
FN:130,_ZN7testing8internal13ParamIteratorISsEC2ERKS2_
FN:131,_ZN7testing8internal13ParamIteratorI13buffer_paramsEaSERKS3_
FN:137,_ZNK7testing8internal13ParamIteratorISsEdeEv
FN:137,_ZNK7testing8internal13ParamIteratorI13buffer_paramsEdeEv
FN:137,_ZNK7testing8internal13ParamIteratorISt5tupleIISs13buffer_paramsEEEdeEv
FN:140,_ZN7testing8internal13ParamIteratorISt5tupleIISs13buffer_paramsEEEppEv
FN:140,_ZN7testing8internal13ParamIteratorI13buffer_paramsEppEv
FN:140,_ZN7testing8internal13ParamIteratorISsEppEv
FN:150,_ZNK7testing8internal13ParamIteratorI13buffer_paramsEeqERKS3_
FN:150,_ZNK7testing8internal13ParamIteratorISt5tupleIISs13buffer_paramsEEEeqERKS5_
FN:150,_ZNK7testing8internal13ParamIteratorISsEeqERKS2_
FN:153,_ZNK7testing8internal13ParamIteratorISt5tupleIISs13buffer_paramsEEEneERKS5_
FN:159,_ZN7testing8internal13ParamIteratorISt5tupleIISs13buffer_paramsEEEC2EPNS0_22ParamIteratorInterfaceIS4_EE
FN:159,_ZN7testing8internal13ParamIteratorISsEC2EPNS0_22ParamIteratorInterfaceISsEE
FN:159,_ZN7testing8internal13ParamIteratorI13buffer_paramsEC2EPNS0_22ParamIteratorInterfaceIS2_EE
FN:166,_ZN7testing8internal23ParamGeneratorInterfaceISt5tupleIISs13buffer_paramsEEEC2Ev
FN:166,_ZN7testing8internal23ParamGeneratorInterfaceI13buffer_paramsEC2Ev
FN:166,_ZN7testing8internal23ParamGeneratorInterfaceISsEC2Ev
FN:170,_ZN7testing8internal23ParamGeneratorInterfaceISt5tupleIISs13buffer_paramsEEED0Ev
FN:170,_ZN7testing8internal23ParamGeneratorInterfaceI13buffer_paramsED0Ev
FN:170,_ZN7testing8internal23ParamGeneratorInterfaceISsED2Ev
FN:170,_ZN7testing8internal23ParamGeneratorInterfaceI13buffer_paramsED2Ev
FN:170,_ZN7testing8internal23ParamGeneratorInterfaceISsED0Ev
FN:170,_ZN7testing8internal23ParamGeneratorInterfaceISt5tupleIISs13buffer_paramsEEED2Ev
FN:183,_ZN7testing8internal14ParamGeneratorISt5tupleIISs13buffer_paramsEEED2Ev
FN:183,_ZN7testing8internal14ParamGeneratorI13buffer_paramsED2Ev
FN:183,_ZN7testing8internal14ParamGeneratorISsED2Ev
FN:187,_ZN7testing8internal14ParamGeneratorISt5tupleIISs13buffer_paramsEEEC2EPNS0_23ParamGeneratorInterfaceIS4_EE
FN:187,_ZN7testing8internal14ParamGeneratorISsEC2EPNS0_23ParamGeneratorInterfaceISsEE
FN:187,_ZN7testing8internal14ParamGeneratorI13buffer_paramsEC2EPNS0_23ParamGeneratorInterfaceIS2_EE
FN:188,_ZN7testing8internal14ParamGeneratorI13buffer_paramsEC2ERKS3_
FN:188,_ZN7testing8internal14ParamGeneratorISsEC2ERKS2_
FN:195,_ZNK7testing8internal14ParamGeneratorI13buffer_paramsE5beginEv
FN:195,_ZNK7testing8internal14ParamGeneratorISt5tupleIISs13buffer_paramsEEE5beginEv
FN:195,_ZNK7testing8internal14ParamGeneratorISsE5beginEv
FN:196,_ZNK7testing8internal14ParamGeneratorISsE3endEv
FN:196,_ZNK7testing8internal14ParamGeneratorISt5tupleIISs13buffer_paramsEEE3endEv
FN:196,_ZNK7testing8internal14ParamGeneratorI13buffer_paramsE3endEv
FN:295,_ZN7testing8internal30ValuesInIteratorRangeGeneratorISsEC2IN9__gnu_cxx17__normal_iteratorIPKSsSt6vectorISsSaISsEEEEEET_SC_
FN:295,_ZN7testing8internal30ValuesInIteratorRangeGeneratorI13buffer_paramsEC2IN9__gnu_cxx17__normal_iteratorIPKS2_St6vectorIS2_SaIS2_EEEEEET_SD_
FN:297,_ZN7testing8internal30ValuesInIteratorRangeGeneratorI13buffer_paramsED2Ev
FN:297,_ZN7testing8internal30ValuesInIteratorRangeGeneratorI13buffer_paramsED0Ev
FN:297,_ZN7testing8internal30ValuesInIteratorRangeGeneratorISsED0Ev
FN:297,_ZN7testing8internal30ValuesInIteratorRangeGeneratorISsED2Ev
FN:299,_ZNK7testing8internal30ValuesInIteratorRangeGeneratorISsE5BeginEv
FN:299,_ZNK7testing8internal30ValuesInIteratorRangeGeneratorI13buffer_paramsE5BeginEv
FN:302,_ZNK7testing8internal30ValuesInIteratorRangeGeneratorI13buffer_paramsE3EndEv
FN:302,_ZNK7testing8internal30ValuesInIteratorRangeGeneratorISsE3EndEv
FN:311,_ZN7testing8internal30ValuesInIteratorRangeGeneratorISsE8IteratorC2EPKNS0_23ParamGeneratorInterfaceISsEEN9__gnu_cxx17__normal_iteratorIPKSsSt6vectorISsSaISsEEEE
FN:311,_ZN7testing8internal30ValuesInIteratorRangeGeneratorI13buffer_paramsE8IteratorC2EPKNS0_23ParamGeneratorInterfaceIS2_EEN9__gnu_cxx17__normal_iteratorIPKS2_St6vectorIS2_SaIS2_EEEE
FN:314,_ZN7testing8internal30ValuesInIteratorRangeGeneratorI13buffer_paramsE8IteratorD2Ev
FN:314,_ZN7testing8internal30ValuesInIteratorRangeGeneratorI13buffer_paramsE8IteratorD0Ev
FN:314,_ZN7testing8internal30ValuesInIteratorRangeGeneratorISsE8IteratorD0Ev
FN:314,_ZN7testing8internal30ValuesInIteratorRangeGeneratorISsE8IteratorD2Ev
FN:316,_ZNK7testing8internal30ValuesInIteratorRangeGeneratorI13buffer_paramsE8Iterator13BaseGeneratorEv
FN:316,_ZNK7testing8internal30ValuesInIteratorRangeGeneratorISsE8Iterator13BaseGeneratorEv
FN:319,_ZN7testing8internal30ValuesInIteratorRangeGeneratorISsE8Iterator7AdvanceEv
FN:319,_ZN7testing8internal30ValuesInIteratorRangeGeneratorI13buffer_paramsE8Iterator7AdvanceEv
FN:323,_ZNK7testing8internal30ValuesInIteratorRangeGeneratorI13buffer_paramsE8Iterator5CloneEv
FN:323,_ZNK7testing8internal30ValuesInIteratorRangeGeneratorISsE8Iterator5CloneEv
FN:333,_ZNK7testing8internal30ValuesInIteratorRangeGeneratorI13buffer_paramsE8Iterator7CurrentEv
FN:333,_ZNK7testing8internal30ValuesInIteratorRangeGeneratorISsE8Iterator7CurrentEv
FN:338,_ZNK7testing8internal30ValuesInIteratorRangeGeneratorISsE8Iterator6EqualsERKNS0_22ParamIteratorInterfaceISsEE
FN:338,_ZNK7testing8internal30ValuesInIteratorRangeGeneratorI13buffer_paramsE8Iterator6EqualsERKNS0_22ParamIteratorInterfaceIS2_EE
FN:349,_ZN7testing8internal30ValuesInIteratorRangeGeneratorI13buffer_paramsE8IteratorC2ERKS4_
FN:349,_ZN7testing8internal30ValuesInIteratorRangeGeneratorISsE8IteratorC2ERKS3_
FN:377,_ZN7testing8internal16DefaultParamNameISt5tupleIISs13buffer_paramsEEEESsRKNS_13TestParamInfoIT_EE
FN:399,_ZN7testing8internal15GetParamNameGenISt5tupleIISs13buffer_paramsEEEEPNS0_16ParamNameGenFuncIT_E4TypeEv
FN:408,_ZN7testing8internal24ParameterizedTestFactoryI43buffer_prepare_xfpga_fpgaPrepareBuffer_TestED2Ev
FN:408,_ZN7testing8internal24ParameterizedTestFactoryI35buffer_prepare_prepare_buf_err_TestED0Ev
FN:408,_ZN7testing8internal24ParameterizedTestFactoryI35buffer_prepare_prepare_buf_err_TestED2Ev
FN:408,_ZN7testing8internal24ParameterizedTestFactoryI43buffer_prepare_xfpga_fpgaPrepareBuffer_TestED0Ev
FN:411,_ZN7testing8internal24ParameterizedTestFactoryI35buffer_prepare_prepare_buf_err_TestEC2ESt5tupleIISs13buffer_paramsEE
FN:411,_ZN7testing8internal24ParameterizedTestFactoryI43buffer_prepare_xfpga_fpgaPrepareBuffer_TestEC2ESt5tupleIISs13buffer_paramsEE
FN:413,_ZN7testing8internal24ParameterizedTestFactoryI35buffer_prepare_prepare_buf_err_TestE10CreateTestEv
FN:413,_ZN7testing8internal24ParameterizedTestFactoryI43buffer_prepare_xfpga_fpgaPrepareBuffer_TestE10CreateTestEv
FN:429,_ZN7testing8internal19TestMetaFactoryBaseISt5tupleIISs13buffer_paramsEEEC2Ev
FN:431,_ZN7testing8internal19TestMetaFactoryBaseISt5tupleIISs13buffer_paramsEEED0Ev
FN:431,_ZN7testing8internal19TestMetaFactoryBaseISt5tupleIISs13buffer_paramsEEED2Ev
FN:445,_ZN7testing8internal15TestMetaFactoryI35buffer_prepare_prepare_buf_err_TestED2Ev
FN:445,_ZN7testing8internal15TestMetaFactoryI43buffer_prepare_xfpga_fpgaPrepareBuffer_TestED2Ev
FN:445,_ZN7testing8internal15TestMetaFactoryI43buffer_prepare_xfpga_fpgaPrepareBuffer_TestED0Ev
FN:445,_ZN7testing8internal15TestMetaFactoryI35buffer_prepare_prepare_buf_err_TestED0Ev
FN:450,_ZN7testing8internal15TestMetaFactoryI43buffer_prepare_xfpga_fpgaPrepareBuffer_TestEC2Ev
FN:450,_ZN7testing8internal15TestMetaFactoryI35buffer_prepare_prepare_buf_err_TestEC2Ev
FN:452,_ZN7testing8internal15TestMetaFactoryI43buffer_prepare_xfpga_fpgaPrepareBuffer_TestE17CreateTestFactoryESt5tupleIISs13buffer_paramsEE
FN:452,_ZN7testing8internal15TestMetaFactoryI35buffer_prepare_prepare_buf_err_TestE17CreateTestFactoryESt5tupleIISs13buffer_paramsEE
FN:472,_ZN7testing8internal29ParameterizedTestCaseInfoBaseD0Ev
FN:472,_ZN7testing8internal29ParameterizedTestCaseInfoBaseD2Ev
FN:485,_ZN7testing8internal29ParameterizedTestCaseInfoBaseC2Ev
FN:499,_ZN7testing8internal25ParameterizedTestCaseInfoI14buffer_prepareED2Ev
FN:499,_ZN7testing8internal25ParameterizedTestCaseInfoI14buffer_prepareED0Ev
FN:509,_ZN7testing8internal25ParameterizedTestCaseInfoI14buffer_prepareEC2EPKcNS0_12CodeLocationE
FN:514,_ZNK7testing8internal25ParameterizedTestCaseInfoI14buffer_prepareE15GetTestCaseNameEv
FN:516,_ZNK7testing8internal25ParameterizedTestCaseInfoI14buffer_prepareE17GetTestCaseTypeIdEv
FN:523,_ZN7testing8internal25ParameterizedTestCaseInfoI14buffer_prepareE14AddTestPatternEPKcS5_PNS0_19TestMetaFactoryBaseISt5tupleIISs13buffer_paramsEEEE
FN:532,_ZN7testing8internal25ParameterizedTestCaseInfoI14buffer_prepareE24AddTestCaseInstantiationERKSsPFNS0_14ParamGeneratorISt5tupleIISs13buffer_paramsEEEEvEPFSsRKNS_13TestParamInfoIS9_EEEPKci
FN:545,_ZN7testing8internal25ParameterizedTestCaseInfoI14buffer_prepareE13RegisterTestsEv
FN:603,_ZN7testing8internal25ParameterizedTestCaseInfoI14buffer_prepareE8TestInfoD2Ev
FN:604,_ZN7testing8internal25ParameterizedTestCaseInfoI14buffer_prepareE8TestInfoC2EPKcS6_PNS0_19TestMetaFactoryBaseISt5tupleIISs13buffer_paramsEEEE
FN:619,_ZN7testing8internal25ParameterizedTestCaseInfoI14buffer_prepareE17InstantiationInfoC2EOS4_
FN:619,_ZN7testing8internal25ParameterizedTestCaseInfoI14buffer_prepareE17InstantiationInfoD2Ev
FN:620,_ZN7testing8internal25ParameterizedTestCaseInfoI14buffer_prepareE17InstantiationInfoC2ERKSsPFNS0_14ParamGeneratorISt5tupleIISs13buffer_paramsEEEEvEPFSsRKNS_13TestParamInfoISA_EEEPKci
FN:639,_ZN7testing8internal25ParameterizedTestCaseInfoI14buffer_prepareE16IsValidParamNameERKSs
FN:680,_ZN7testing8internal29ParameterizedTestCaseRegistry24GetTestCasePatternHolderI14buffer_prepareEEPNS0_25ParameterizedTestCaseInfoIT_EEPKcNS0_12CodeLocationE
FNDA:12,_ZN7testing13TestParamInfoISt5tupleIISs13buffer_paramsEEED2Ev
FNDA:12,_ZN7testing13TestParamInfoISt5tupleIISs13buffer_paramsEEEC2ERKS3_m
FNDA:16,_ZN7testing8internal22ParamIteratorInterfaceISt5tupleIISs13buffer_paramsEEEC2Ev
FNDA:64,_ZN7testing8internal22ParamIteratorInterfaceISsEC2Ev
FNDA:66,_ZN7testing8internal22ParamIteratorInterfaceI13buffer_paramsEC2Ev
FNDA:0,_ZN7testing8internal22ParamIteratorInterfaceISt5tupleIISs13buffer_paramsEEED0Ev
FNDA:16,_ZN7testing8internal22ParamIteratorInterfaceISt5tupleIISs13buffer_paramsEEED2Ev
FNDA:0,_ZN7testing8internal22ParamIteratorInterfaceISsED0Ev
FNDA:64,_ZN7testing8internal22ParamIteratorInterfaceISsED2Ev
FNDA:0,_ZN7testing8internal22ParamIteratorInterfaceI13buffer_paramsED0Ev
FNDA:66,_ZN7testing8internal22ParamIteratorInterfaceI13buffer_paramsED2Ev
FNDA:16,_ZN7testing8internal13ParamIteratorISt5tupleIISs13buffer_paramsEEED2Ev
FNDA:64,_ZN7testing8internal13ParamIteratorI13buffer_paramsED2Ev
FNDA:64,_ZN7testing8internal13ParamIteratorISsED2Ev
FNDA:16,_ZN7testing8internal13ParamIteratorI13buffer_paramsEC2ERKS3_
FNDA:16,_ZN7testing8internal13ParamIteratorISsEC2ERKS2_
FNDA:2,_ZN7testing8internal13ParamIteratorI13buffer_paramsEaSERKS3_
FNDA:12,_ZNK7testing8internal13ParamIteratorI13buffer_paramsEdeEv
FNDA:12,_ZNK7testing8internal13ParamIteratorISsEdeEv
FNDA:36,_ZNK7testing8internal13ParamIteratorISt5tupleIISs13buffer_paramsEEEdeEv
FNDA:2,_ZN7testing8internal13ParamIteratorISsEppEv
FNDA:12,_ZN7testing8internal13ParamIteratorI13buffer_paramsEppEv
FNDA:12,_ZN7testing8internal13ParamIteratorISt5tupleIISs13buffer_paramsEEEppEv
FNDA:68,_ZNK7testing8internal13ParamIteratorISsEeqERKS2_
FNDA:48,_ZNK7testing8internal13ParamIteratorI13buffer_paramsEeqERKS3_
FNDA:14,_ZNK7testing8internal13ParamIteratorISt5tupleIISs13buffer_paramsEEEeqERKS5_
FNDA:14,_ZNK7testing8internal13ParamIteratorISt5tupleIISs13buffer_paramsEEEneERKS5_
FNDA:16,_ZN7testing8internal13ParamIteratorISt5tupleIISs13buffer_paramsEEEC2EPNS0_22ParamIteratorInterfaceIS4_EE
FNDA:48,_ZN7testing8internal13ParamIteratorI13buffer_paramsEC2EPNS0_22ParamIteratorInterfaceIS2_EE
FNDA:48,_ZN7testing8internal13ParamIteratorISsEC2EPNS0_22ParamIteratorInterfaceISsEE
FNDA:2,_ZN7testing8internal23ParamGeneratorInterfaceI13buffer_paramsEC2Ev
FNDA:2,_ZN7testing8internal23ParamGeneratorInterfaceISsEC2Ev
FNDA:2,_ZN7testing8internal23ParamGeneratorInterfaceISt5tupleIISs13buffer_paramsEEEC2Ev
FNDA:0,_ZN7testing8internal23ParamGeneratorInterfaceISt5tupleIISs13buffer_paramsEEED0Ev
FNDA:2,_ZN7testing8internal23ParamGeneratorInterfaceISt5tupleIISs13buffer_paramsEEED2Ev
FNDA:0,_ZN7testing8internal23ParamGeneratorInterfaceI13buffer_paramsED0Ev
FNDA:2,_ZN7testing8internal23ParamGeneratorInterfaceI13buffer_paramsED2Ev
FNDA:0,_ZN7testing8internal23ParamGeneratorInterfaceISsED0Ev
FNDA:2,_ZN7testing8internal23ParamGeneratorInterfaceISsED2Ev
FNDA:2,_ZN7testing8internal14ParamGeneratorISt5tupleIISs13buffer_paramsEEED2Ev
FNDA:8,_ZN7testing8internal14ParamGeneratorI13buffer_paramsED2Ev
FNDA:8,_ZN7testing8internal14ParamGeneratorISsED2Ev
FNDA:2,_ZN7testing8internal14ParamGeneratorI13buffer_paramsEC2EPNS0_23ParamGeneratorInterfaceIS2_EE
FNDA:2,_ZN7testing8internal14ParamGeneratorISsEC2EPNS0_23ParamGeneratorInterfaceISsEE
FNDA:2,_ZN7testing8internal14ParamGeneratorISt5tupleIISs13buffer_paramsEEEC2EPNS0_23ParamGeneratorInterfaceIS4_EE
FNDA:6,_ZN7testing8internal14ParamGeneratorI13buffer_paramsEC2ERKS3_
FNDA:6,_ZN7testing8internal14ParamGeneratorISsEC2ERKS2_
FNDA:2,_ZNK7testing8internal14ParamGeneratorISt5tupleIISs13buffer_paramsEEE5beginEv
FNDA:18,_ZNK7testing8internal14ParamGeneratorI13buffer_paramsE5beginEv
FNDA:18,_ZNK7testing8internal14ParamGeneratorISsE5beginEv
FNDA:14,_ZNK7testing8internal14ParamGeneratorISt5tupleIISs13buffer_paramsEEE3endEv
FNDA:30,_ZNK7testing8internal14ParamGeneratorI13buffer_paramsE3endEv
FNDA:30,_ZNK7testing8internal14ParamGeneratorISsE3endEv
FNDA:2,_ZN7testing8internal30ValuesInIteratorRangeGeneratorI13buffer_paramsEC2IN9__gnu_cxx17__normal_iteratorIPKS2_St6vectorIS2_SaIS2_EEEEEET_SD_
FNDA:2,_ZN7testing8internal30ValuesInIteratorRangeGeneratorISsEC2IN9__gnu_cxx17__normal_iteratorIPKSsSt6vectorISsSaISsEEEEEET_SC_
FNDA:2,_ZN7testing8internal30ValuesInIteratorRangeGeneratorISsED0Ev
FNDA:2,_ZN7testing8internal30ValuesInIteratorRangeGeneratorISsED2Ev
FNDA:2,_ZN7testing8internal30ValuesInIteratorRangeGeneratorI13buffer_paramsED0Ev
FNDA:2,_ZN7testing8internal30ValuesInIteratorRangeGeneratorI13buffer_paramsED2Ev
FNDA:18,_ZNK7testing8internal30ValuesInIteratorRangeGeneratorISsE5BeginEv
FNDA:18,_ZNK7testing8internal30ValuesInIteratorRangeGeneratorI13buffer_paramsE5BeginEv
FNDA:30,_ZNK7testing8internal30ValuesInIteratorRangeGeneratorISsE3EndEv
FNDA:30,_ZNK7testing8internal30ValuesInIteratorRangeGeneratorI13buffer_paramsE3EndEv
FNDA:48,_ZN7testing8internal30ValuesInIteratorRangeGeneratorISsE8IteratorC2EPKNS0_23ParamGeneratorInterfaceISsEEN9__gnu_cxx17__normal_iteratorIPKSsSt6vectorISsSaISsEEEE
FNDA:48,_ZN7testing8internal30ValuesInIteratorRangeGeneratorI13buffer_paramsE8IteratorC2EPKNS0_23ParamGeneratorInterfaceIS2_EEN9__gnu_cxx17__normal_iteratorIPKS2_St6vectorIS2_SaIS2_EEEE
FNDA:66,_ZN7testing8internal30ValuesInIteratorRangeGeneratorI13buffer_paramsE8IteratorD0Ev
FNDA:66,_ZN7testing8internal30ValuesInIteratorRangeGeneratorI13buffer_paramsE8IteratorD2Ev
FNDA:64,_ZN7testing8internal30ValuesInIteratorRangeGeneratorISsE8IteratorD0Ev
FNDA:64,_ZN7testing8internal30ValuesInIteratorRangeGeneratorISsE8IteratorD2Ev
FNDA:96,_ZNK7testing8internal30ValuesInIteratorRangeGeneratorI13buffer_paramsE8Iterator13BaseGeneratorEv
FNDA:136,_ZNK7testing8internal30ValuesInIteratorRangeGeneratorISsE8Iterator13BaseGeneratorEv
FNDA:12,_ZN7testing8internal30ValuesInIteratorRangeGeneratorI13buffer_paramsE8Iterator7AdvanceEv
FNDA:2,_ZN7testing8internal30ValuesInIteratorRangeGeneratorISsE8Iterator7AdvanceEv
FNDA:18,_ZNK7testing8internal30ValuesInIteratorRangeGeneratorI13buffer_paramsE8Iterator5CloneEv
FNDA:16,_ZNK7testing8internal30ValuesInIteratorRangeGeneratorISsE8Iterator5CloneEv
FNDA:12,_ZNK7testing8internal30ValuesInIteratorRangeGeneratorI13buffer_paramsE8Iterator7CurrentEv
FNDA:12,_ZNK7testing8internal30ValuesInIteratorRangeGeneratorISsE8Iterator7CurrentEv
FNDA:48,_ZNK7testing8internal30ValuesInIteratorRangeGeneratorI13buffer_paramsE8Iterator6EqualsERKNS0_22ParamIteratorInterfaceIS2_EE
FNDA:68,_ZNK7testing8internal30ValuesInIteratorRangeGeneratorISsE8Iterator6EqualsERKNS0_22ParamIteratorInterfaceISsEE
FNDA:18,_ZN7testing8internal30ValuesInIteratorRangeGeneratorI13buffer_paramsE8IteratorC2ERKS4_
FNDA:16,_ZN7testing8internal30ValuesInIteratorRangeGeneratorISsE8IteratorC2ERKS3_
FNDA:12,_ZN7testing8internal16DefaultParamNameISt5tupleIISs13buffer_paramsEEEESsRKNS_13TestParamInfoIT_EE
FNDA:12,_ZN7testing8internal15GetParamNameGenISt5tupleIISs13buffer_paramsEEEEPNS0_16ParamNameGenFuncIT_E4TypeEv
FNDA:6,_ZN7testing8internal24ParameterizedTestFactoryI43buffer_prepare_xfpga_fpgaPrepareBuffer_TestED0Ev
FNDA:6,_ZN7testing8internal24ParameterizedTestFactoryI43buffer_prepare_xfpga_fpgaPrepareBuffer_TestED2Ev
FNDA:6,_ZN7testing8internal24ParameterizedTestFactoryI35buffer_prepare_prepare_buf_err_TestED0Ev
FNDA:6,_ZN7testing8internal24ParameterizedTestFactoryI35buffer_prepare_prepare_buf_err_TestED2Ev
FNDA:6,_ZN7testing8internal24ParameterizedTestFactoryI35buffer_prepare_prepare_buf_err_TestEC2ESt5tupleIISs13buffer_paramsEE
FNDA:6,_ZN7testing8internal24ParameterizedTestFactoryI43buffer_prepare_xfpga_fpgaPrepareBuffer_TestEC2ESt5tupleIISs13buffer_paramsEE
FNDA:6,_ZN7testing8internal24ParameterizedTestFactoryI43buffer_prepare_xfpga_fpgaPrepareBuffer_TestE10CreateTestEv
FNDA:6,_ZN7testing8internal24ParameterizedTestFactoryI35buffer_prepare_prepare_buf_err_TestE10CreateTestEv
FNDA:2,_ZN7testing8internal19TestMetaFactoryBaseISt5tupleIISs13buffer_paramsEEEC2Ev
FNDA:0,_ZN7testing8internal19TestMetaFactoryBaseISt5tupleIISs13buffer_paramsEEED0Ev
FNDA:2,_ZN7testing8internal19TestMetaFactoryBaseISt5tupleIISs13buffer_paramsEEED2Ev
FNDA:1,_ZN7testing8internal15TestMetaFactoryI35buffer_prepare_prepare_buf_err_TestED0Ev
FNDA:1,_ZN7testing8internal15TestMetaFactoryI35buffer_prepare_prepare_buf_err_TestED2Ev
FNDA:1,_ZN7testing8internal15TestMetaFactoryI43buffer_prepare_xfpga_fpgaPrepareBuffer_TestED0Ev
FNDA:1,_ZN7testing8internal15TestMetaFactoryI43buffer_prepare_xfpga_fpgaPrepareBuffer_TestED2Ev
FNDA:1,_ZN7testing8internal15TestMetaFactoryI43buffer_prepare_xfpga_fpgaPrepareBuffer_TestEC2Ev
FNDA:1,_ZN7testing8internal15TestMetaFactoryI35buffer_prepare_prepare_buf_err_TestEC2Ev
FNDA:6,_ZN7testing8internal15TestMetaFactoryI35buffer_prepare_prepare_buf_err_TestE17CreateTestFactoryESt5tupleIISs13buffer_paramsEE
FNDA:6,_ZN7testing8internal15TestMetaFactoryI43buffer_prepare_xfpga_fpgaPrepareBuffer_TestE17CreateTestFactoryESt5tupleIISs13buffer_paramsEE
FNDA:0,_ZN7testing8internal29ParameterizedTestCaseInfoBaseD0Ev
FNDA:1,_ZN7testing8internal29ParameterizedTestCaseInfoBaseD2Ev
FNDA:1,_ZN7testing8internal29ParameterizedTestCaseInfoBaseC2Ev
FNDA:1,_ZN7testing8internal25ParameterizedTestCaseInfoI14buffer_prepareED0Ev
FNDA:1,_ZN7testing8internal25ParameterizedTestCaseInfoI14buffer_prepareED2Ev
FNDA:1,_ZN7testing8internal25ParameterizedTestCaseInfoI14buffer_prepareEC2EPKcNS0_12CodeLocationE
FNDA:2,_ZNK7testing8internal25ParameterizedTestCaseInfoI14buffer_prepareE15GetTestCaseNameEv
FNDA:14,_ZNK7testing8internal25ParameterizedTestCaseInfoI14buffer_prepareE17GetTestCaseTypeIdEv
FNDA:2,_ZN7testing8internal25ParameterizedTestCaseInfoI14buffer_prepareE14AddTestPatternEPKcS5_PNS0_19TestMetaFactoryBaseISt5tupleIISs13buffer_paramsEEEE
FNDA:1,_ZN7testing8internal25ParameterizedTestCaseInfoI14buffer_prepareE24AddTestCaseInstantiationERKSsPFNS0_14ParamGeneratorISt5tupleIISs13buffer_paramsEEEEvEPFSsRKNS_13TestParamInfoIS9_EEEPKci
FNDA:1,_ZN7testing8internal25ParameterizedTestCaseInfoI14buffer_prepareE13RegisterTestsEv
FNDA:2,_ZN7testing8internal25ParameterizedTestCaseInfoI14buffer_prepareE8TestInfoD2Ev
FNDA:2,_ZN7testing8internal25ParameterizedTestCaseInfoI14buffer_prepareE8TestInfoC2EPKcS6_PNS0_19TestMetaFactoryBaseISt5tupleIISs13buffer_paramsEEEE
FNDA:1,_ZN7testing8internal25ParameterizedTestCaseInfoI14buffer_prepareE17InstantiationInfoC2EOS4_
FNDA:2,_ZN7testing8internal25ParameterizedTestCaseInfoI14buffer_prepareE17InstantiationInfoD2Ev
FNDA:1,_ZN7testing8internal25ParameterizedTestCaseInfoI14buffer_prepareE17InstantiationInfoC2ERKSsPFNS0_14ParamGeneratorISt5tupleIISs13buffer_paramsEEEEvEPFSsRKNS_13TestParamInfoISA_EEEPKci
FNDA:12,_ZN7testing8internal25ParameterizedTestCaseInfoI14buffer_prepareE16IsValidParamNameERKSs
FNDA:3,_ZN7testing8internal29ParameterizedTestCaseRegistry24GetTestCasePatternHolderI14buffer_prepareEEPNS0_25ParameterizedTestCaseInfoIT_EEPKcNS0_12CodeLocationE
FNF:120
FNH:112
DA:59,12
DA:60,12
DA:62,12
DA:93,146
DA:95,146
DA:123,144
DA:130,32
DA:131,2
DA:132,2
DA:133,2
DA:134,2
DA:137,60
DA:140,26
DA:141,26
DA:142,26
DA:150,130
DA:151,130
DA:153,14
DA:154,14
DA:159,112
DA:166,6
DA:170,6
DA:183,18
DA:187,6
DA:188,12
DA:195,38
DA:196,74
DA:295,4
DA:296,4
DA:297,8
DA:299,36
DA:300,36
DA:302,60
DA:303,60
DA:311,96
DA:313,96
DA:314,260
DA:316,232
DA:317,232
DA:319,14
DA:320,14
DA:321,14
DA:322,14
DA:323,34
DA:324,34
DA:333,24
DA:334,24
DA:335,14
DA:336,24
DA:338,116
DA:341,116
DA:342,0
DA:343,0
DA:344,116
DA:345,232
DA:349,34
DA:354,34
DA:377,12
DA:378,12
DA:379,12
DA:380,12
DA:399,12
DA:400,12
DA:408,24
DA:411,12
DA:412,12
DA:413,12
DA:414,12
DA:415,12
DA:429,2
DA:431,2
DA:445,4
DA:450,2
DA:452,12
DA:453,12
DA:472,1
DA:485,1
DA:499,2
DA:509,1
DA:511,1
DA:514,2
DA:516,14
DA:523,2
DA:526,2
DA:529,2
DA:532,1
DA:536,1
DA:538,1
DA:545,1
DA:546,9
DA:547,6
DA:548,2
DA:549,12
DA:550,10
DA:552,2
DA:553,2
DA:554,2
DA:555,2
DA:556,2
DA:558,4
DA:559,2
DA:560,2
DA:561,2
DA:563,2
DA:564,4
DA:565,42
DA:566,2
DA:567,28
DA:568,12
DA:571,24
DA:573,12
DA:574,0
DA:575,0
DA:576,0
DA:578,12
DA:579,0
DA:580,0
DA:582,12
DA:584,12
DA:585,12
DA:589,12
DA:591,12
DA:594,48
DA:598,1
DA:603,2
DA:604,2
DA:609,2
DA:619,3
DA:620,1
DA:629,1
DA:639,12
DA:641,12
DA:642,0
DA:645,24
DA:646,12
DA:647,0
DA:650,12
DA:680,3
DA:683,3
DA:684,9
DA:685,6
DA:686,2
DA:687,2
DA:691,0
DA:692,0
DA:697,2
DA:698,2
DA:700,2
DA:703,3
DA:704,1
DA:706,1
DA:708,3
LF:152
LH:141
end_of_record
SF:/usr/local/include/gtest/internal/gtest-port.h
FN:1154,_ZN7testing8internal10scoped_ptrINS0_22ParamIteratorInterfaceISsEEEC2EPS3_
FN:1154,_ZN7testing8internal10scoped_ptrINS0_19TestMetaFactoryBaseISt5tupleIISs13buffer_paramsEEEEEC2EPS6_
FN:1154,_ZN7testing8internal10scoped_ptrINS0_22ParamIteratorInterfaceISt5tupleIISs13buffer_paramsEEEEEC2EPS6_
FN:1154,_ZN7testing8internal10scoped_ptrIKSsEC2EPS2_
FN:1154,_ZN7testing8internal10scoped_ptrIK13buffer_paramsEC2EPS3_
FN:1154,_ZN7testing8internal10scoped_ptrINS0_22ParamIteratorInterfaceI13buffer_paramsEEEC2EPS4_
FN:1154,_ZN7testing8internal10scoped_ptrISsEC2EPSs
FN:1155,_ZN7testing8internal10scoped_ptrINS0_19TestMetaFactoryBaseISt5tupleIISs13buffer_paramsEEEEED2Ev
FN:1155,_ZN7testing8internal10scoped_ptrISsED2Ev
FN:1155,_ZN7testing8internal10scoped_ptrIK13buffer_paramsED2Ev
FN:1155,_ZN7testing8internal10scoped_ptrISt18basic_stringstreamIcSt11char_traitsIcESaIcEEED2Ev
FN:1155,_ZN7testing8internal10scoped_ptrINS0_22ParamIteratorInterfaceISsEEED2Ev
FN:1155,_ZN7testing8internal10scoped_ptrIKSsED2Ev
FN:1155,_ZN7testing8internal10scoped_ptrINS0_22ParamIteratorInterfaceI13buffer_paramsEEED2Ev
FN:1155,_ZN7testing8internal10scoped_ptrINS0_22ParamIteratorInterfaceISt5tupleIISs13buffer_paramsEEEEED2Ev
FN:1157,_ZNK7testing8internal10scoped_ptrINS0_22ParamIteratorInterfaceI13buffer_paramsEEEdeEv
FN:1157,_ZNK7testing8internal10scoped_ptrISt18basic_stringstreamIcSt11char_traitsIcESaIcEEEdeEv
FN:1157,_ZNK7testing8internal10scoped_ptrINS0_22ParamIteratorInterfaceISsEEEdeEv
FN:1157,_ZNK7testing8internal10scoped_ptrINS0_22ParamIteratorInterfaceISt5tupleIISs13buffer_paramsEEEEEdeEv
FN:1158,_ZNK7testing8internal10scoped_ptrINS0_19TestMetaFactoryBaseISt5tupleIISs13buffer_paramsEEEEEptEv
FN:1158,_ZNK7testing8internal10scoped_ptrINS0_22ParamIteratorInterfaceI13buffer_paramsEEEptEv
FN:1158,_ZNK7testing8internal10scoped_ptrINS0_22ParamIteratorInterfaceISsEEEptEv
FN:1158,_ZNK7testing8internal10scoped_ptrINS0_22ParamIteratorInterfaceISt5tupleIISs13buffer_paramsEEEEEptEv
FN:1158,_ZNK7testing8internal10scoped_ptrISsEptEv
FN:1159,_ZNK7testing8internal10scoped_ptrINS0_22ParamIteratorInterfaceISsEEE3getEv
FN:1159,_ZNK7testing8internal10scoped_ptrIK13buffer_paramsE3getEv
FN:1159,_ZNK7testing8internal10scoped_ptrISsE3getEv
FN:1159,_ZNK7testing8internal10scoped_ptrINS0_22ParamIteratorInterfaceISt5tupleIISs13buffer_paramsEEEEE3getEv
FN:1159,_ZNK7testing8internal10scoped_ptrIKSsE3getEv
FN:1159,_ZNK7testing8internal10scoped_ptrINS0_22ParamIteratorInterfaceI13buffer_paramsEEE3getEv
FN:1167,_ZN7testing8internal10scoped_ptrINS0_19TestMetaFactoryBaseISt5tupleIISs13buffer_paramsEEEEE5resetEPS6_
FN:1167,_ZN7testing8internal10scoped_ptrISt18basic_stringstreamIcSt11char_traitsIcESaIcEEE5resetEPS6_
FN:1167,_ZN7testing8internal10scoped_ptrINS0_22ParamIteratorInterfaceISsEEE5resetEPS3_
FN:1167,_ZN7testing8internal10scoped_ptrIKSsE5resetEPS2_
FN:1167,_ZN7testing8internal10scoped_ptrINS0_22ParamIteratorInterfaceISt5tupleIISs13buffer_paramsEEEEE5resetEPS6_
FN:1167,_ZN7testing8internal10scoped_ptrISsE5resetEPSs
FN:1167,_ZN7testing8internal10scoped_ptrINS0_22ParamIteratorInterfaceI13buffer_paramsEEE5resetEPS4_
FN:1167,_ZN7testing8internal10scoped_ptrIK13buffer_paramsE5resetEPS3_
FN:1296,_ZN7testing8internal8GTestLog9GetStreamEv
FN:1427,_ZN7testing8internal27CheckedDowncastToActualTypeINS0_25ParameterizedTestCaseInfoI14buffer_prepareEENS0_29ParameterizedTestCaseInfoBaseEEEPT_PT0_
FN:1427,_ZN7testing8internal27CheckedDowncastToActualTypeIKNS0_30ValuesInIteratorRangeGeneratorISsE8IteratorEKNS0_22ParamIteratorInterfaceISsEEEEPT_PT0_
FN:1427,_ZN7testing8internal27CheckedDowncastToActualTypeIKNS0_30ValuesInIteratorRangeGeneratorI13buffer_paramsE8IteratorEKNS0_22ParamIteratorInterfaceIS3_EEEEPT_PT0_
FN:1427,_ZN7testing8internal27CheckedDowncastToActualTypeIKNS0_26CartesianProductGenerator2ISs13buffer_paramsE8IteratorEKNS0_22ParamIteratorInterfaceISt5tupleIISsS3_EEEEEEPT_PT0_
FN:1959,_ZN7testing8internal9MutexBase4LockEv
FN:1966,_ZN7testing8internal9MutexBase6UnlockEv
FN:2030,_ZN7testing8internal14GTestMutexLockC2EPNS0_9MutexBaseE
FN:2033,_ZN7testing8internal14GTestMutexLockD2Ev
FN:2442,_ZN7testing8internal5posix5AbortEv
FNDA:64,_ZN7testing8internal10scoped_ptrINS0_22ParamIteratorInterfaceI13buffer_paramsEEEC2EPS4_
FNDA:64,_ZN7testing8internal10scoped_ptrINS0_22ParamIteratorInterfaceISsEEEC2EPS3_
FNDA:16,_ZN7testing8internal10scoped_ptrINS0_22ParamIteratorInterfaceISt5tupleIISs13buffer_paramsEEEEEC2EPS6_
FNDA:89,_ZN7testing8internal10scoped_ptrIKSsEC2EPS2_
FNDA:66,_ZN7testing8internal10scoped_ptrIK13buffer_paramsEC2EPS3_
FNDA:2,_ZN7testing8internal10scoped_ptrINS0_19TestMetaFactoryBaseISt5tupleIISs13buffer_paramsEEEEEC2EPS6_
FNDA:170,_ZN7testing8internal10scoped_ptrISsEC2EPSs
FNDA:89,_ZN7testing8internal10scoped_ptrIKSsED2Ev
FNDA:66,_ZN7testing8internal10scoped_ptrIK13buffer_paramsED2Ev
FNDA:16,_ZN7testing8internal10scoped_ptrINS0_22ParamIteratorInterfaceISt5tupleIISs13buffer_paramsEEEEED2Ev
FNDA:64,_ZN7testing8internal10scoped_ptrINS0_22ParamIteratorInterfaceI13buffer_paramsEEED2Ev
FNDA:64,_ZN7testing8internal10scoped_ptrINS0_22ParamIteratorInterfaceISsEEED2Ev
FNDA:2,_ZN7testing8internal10scoped_ptrINS0_19TestMetaFactoryBaseISt5tupleIISs13buffer_paramsEEEEED2Ev
FNDA:170,_ZN7testing8internal10scoped_ptrISsED2Ev
FNDA:78,_ZN7testing8internal10scoped_ptrISt18basic_stringstreamIcSt11char_traitsIcESaIcEEED2Ev
FNDA:68,_ZNK7testing8internal10scoped_ptrINS0_22ParamIteratorInterfaceISsEEEdeEv
FNDA:48,_ZNK7testing8internal10scoped_ptrINS0_22ParamIteratorInterfaceI13buffer_paramsEEEdeEv
FNDA:14,_ZNK7testing8internal10scoped_ptrINS0_22ParamIteratorInterfaceISt5tupleIISs13buffer_paramsEEEEEdeEv
FNDA:474,_ZNK7testing8internal10scoped_ptrISt18basic_stringstreamIcSt11char_traitsIcESaIcEEEdeEv
FNDA:90,_ZNK7testing8internal10scoped_ptrINS0_22ParamIteratorInterfaceI13buffer_paramsEEEptEv
FNDA:98,_ZNK7testing8internal10scoped_ptrINS0_22ParamIteratorInterfaceISsEEEptEv
FNDA:62,_ZNK7testing8internal10scoped_ptrINS0_22ParamIteratorInterfaceISt5tupleIISs13buffer_paramsEEEEEptEv
FNDA:12,_ZNK7testing8internal10scoped_ptrINS0_19TestMetaFactoryBaseISt5tupleIISs13buffer_paramsEEEEEptEv
FNDA:0,_ZNK7testing8internal10scoped_ptrISsEptEv
FNDA:24,_ZNK7testing8internal10scoped_ptrIK13buffer_paramsE3getEv
FNDA:136,_ZNK7testing8internal10scoped_ptrINS0_22ParamIteratorInterfaceISsEEE3getEv
FNDA:96,_ZNK7testing8internal10scoped_ptrINS0_22ParamIteratorInterfaceI13buffer_paramsEEE3getEv
FNDA:28,_ZNK7testing8internal10scoped_ptrINS0_22ParamIteratorInterfaceISt5tupleIISs13buffer_paramsEEEEE3getEv
FNDA:37,_ZNK7testing8internal10scoped_ptrIKSsE3getEv
FNDA:0,_ZNK7testing8internal10scoped_ptrISsE3getEv
FNDA:93,_ZN7testing8internal10scoped_ptrIKSsE5resetEPS2_
FNDA:90,_ZN7testing8internal10scoped_ptrIK13buffer_paramsE5resetEPS3_
FNDA:16,_ZN7testing8internal10scoped_ptrINS0_22ParamIteratorInterfaceISt5tupleIISs13buffer_paramsEEEEE5resetEPS6_
FNDA:66,_ZN7testing8internal10scoped_ptrINS0_22ParamIteratorInterfaceI13buffer_paramsEEE5resetEPS4_
FNDA:64,_ZN7testing8internal10scoped_ptrINS0_22ParamIteratorInterfaceISsEEE5resetEPS3_
FNDA:2,_ZN7testing8internal10scoped_ptrINS0_19TestMetaFactoryBaseISt5tupleIISs13buffer_paramsEEEEE5resetEPS6_
FNDA:78,_ZN7testing8internal10scoped_ptrISt18basic_stringstreamIcSt11char_traitsIcESaIcEEE5resetEPS6_
FNDA:170,_ZN7testing8internal10scoped_ptrISsE5resetEPSs
FNDA:0,_ZN7testing8internal8GTestLog9GetStreamEv
FNDA:48,_ZN7testing8internal27CheckedDowncastToActualTypeIKNS0_30ValuesInIteratorRangeGeneratorI13buffer_paramsE8IteratorEKNS0_22ParamIteratorInterfaceIS3_EEEEPT_PT0_
FNDA:68,_ZN7testing8internal27CheckedDowncastToActualTypeIKNS0_30ValuesInIteratorRangeGeneratorISsE8IteratorEKNS0_22ParamIteratorInterfaceISsEEEEPT_PT0_
FNDA:14,_ZN7testing8internal27CheckedDowncastToActualTypeIKNS0_26CartesianProductGenerator2ISs13buffer_paramsE8IteratorEKNS0_22ParamIteratorInterfaceISt5tupleIISsS3_EEEEEEPT_PT0_
FNDA:2,_ZN7testing8internal27CheckedDowncastToActualTypeINS0_25ParameterizedTestCaseInfoI14buffer_prepareEENS0_29ParameterizedTestCaseInfoBaseEEEPT_PT0_
FNDA:42,_ZN7testing8internal9MutexBase4LockEv
FNDA:42,_ZN7testing8internal9MutexBase6UnlockEv
FNDA:42,_ZN7testing8internal14GTestMutexLockC2EPNS0_9MutexBaseE
FNDA:42,_ZN7testing8internal14GTestMutexLockD2Ev
FNDA:0,_ZN7testing8internal5posix5AbortEv
FNF:48
FNH:44
DA:1154,471
DA:1155,549
DA:1157,604
DA:1158,262
DA:1159,321
DA:1167,579
DA:1168,579
DA:1169,266
DA:1170,266
DA:1172,266
DA:1174,579
DA:1296,0
DA:1427,132
DA:1429,132
DA:1435,132
DA:1959,42
DA:1960,42
DA:1961,42
DA:1962,42
DA:1963,42
DA:1966,42
DA:1971,42
DA:1972,42
DA:1973,42
DA:2030,42
DA:2031,42
DA:2033,42
DA:2442,0
LF:28
LH:26
end_of_record
TN:
SF:/home/workspace/jelonanx/opae-sdk/libopae/plugins/xfpga/umsg.c
FN:42,xfpga_fpgaGetNumUmsg
FN:89,xfpga_fpgaSetUmsgAttributes
FN:131,xfpga_fpgaGetUmsgPtr
FN:260,free_umsg_buffer
FN:310,xfpga_fpgaTriggerUmsg
FNDA:6,xfpga_fpgaGetNumUmsg
FNDA:6,xfpga_fpgaSetUmsgAttributes
FNDA:3,xfpga_fpgaGetUmsgPtr
FNDA:72,free_umsg_buffer
FNDA:1,xfpga_fpgaTriggerUmsg
FNF:5
FNH:5
DA:42,6
DA:44,6
DA:45,6
DA:46,6
DA:47,6
DA:49,6
DA:50,5
DA:51,5
DA:52,0
DA:54,5
DA:55,0
DA:56,0
DA:57,0
DA:61,5
DA:62,5
DA:65,5
DA:66,5
DA:67,3
DA:68,5
DA:69,2
DA:70,2
DA:72,1
DA:74,3
DA:78,2
DA:81,5
DA:82,5
DA:83,0
DA:84,5
DA:89,6
DA:91,6
DA:92,6
DA:93,6
DA:94,6
DA:96,6
DA:97,6
DA:98,1
DA:100,5
DA:101,0
DA:102,0
DA:103,0
DA:107,5
DA:108,5
DA:109,5
DA:111,5
DA:112,5
DA:113,4
DA:114,6
DA:115,2
DA:116,4
DA:118,0
DA:123,5
DA:124,5
DA:125,0
DA:126,5
DA:131,3
DA:133,3
DA:134,3
DA:135,3
DA:136,3
DA:138,3
DA:139,3
DA:140,3
DA:141,3
DA:142,3
DA:143,3
DA:145,3
DA:146,2
DA:147,2
DA:148,1
DA:150,1
DA:151,0
DA:152,0
DA:153,0
DA:156,1
DA:157,0
DA:158,0
DA:162,1
DA:165,1
DA:166,1
DA:167,0
DA:168,0
DA:169,0
DA:172,1
DA:173,1
DA:174,1
DA:175,0
DA:176,0
DA:177,0
DA:181,1
DA:182,1
DA:183,1
DA:184,1
DA:185,1
DA:187,1
DA:188,1
DA:189,0
DA:190,0
DA:191,0
DA:195,1
DA:196,1
DA:197,1
DA:199,1
DA:200,1
DA:201,0
DA:202,0
DA:203,0
DA:204,0
DA:206,0
DA:208,0
DA:211,1
DA:212,1
DA:213,0
DA:214,0
DA:215,0
DA:216,0
DA:218,0
DA:220,0
DA:223,1
DA:224,1
DA:225,1
DA:226,1
DA:229,1
DA:230,1
DA:231,0
DA:232,1
DA:235,0
DA:236,0
DA:237,0
DA:239,0
DA:240,0
DA:241,0
DA:242,0
DA:243,0
DA:244,0
DA:246,0
DA:251,0
DA:252,0
DA:254,0
DA:255,0
DA:256,0
DA:257,0
DA:260,72
DA:262,72
DA:263,72
DA:264,72
DA:267,72
DA:268,72
DA:269,0
DA:271,72
DA:275,1
DA:276,0
DA:279,1
DA:280,1
DA:281,1
DA:283,1
DA:284,0
DA:287,1
DA:288,1
DA:289,1
DA:291,1
DA:292,0
DA:295,1
DA:297,1
DA:298,1
DA:299,1
DA:302,72
DA:303,72
DA:304,0
DA:305,72
DA:310,1
DA:312,1
DA:313,1
DA:314,1
DA:315,1
DA:317,1
DA:318,1
DA:319,1
DA:321,0
DA:322,0
DA:323,0
DA:324,0
DA:327,0
DA:328,0
DA:329,0
DA:330,0
DA:334,0
DA:337,0
DA:338,0
DA:339,0
DA:340,0
LF:190
LH:119
end_of_record
TN:
SF:/home/workspace/jelonanx/opae-sdk/libopae/plugins/xfpga/usrclk/user_clk_pgm_uclock.c
FN:77,get_userclock
FN:127,set_userclock
FN:226,fi_RunInitz
FN:372,fu64i_GetAVMM_seq
FN:384,fi_AvmmRWcom
FN:470,fi_AvmmRead
FN:488,fi_AvmmWrite
FN:506,fv_SleepShort
FN:531,fi_GetFreqs
FN:612,fi_SetFreqs
FN:832,fpac_GetErrMsg
FN:853,fi_AvmmReadModifyWriteVerify
FN:880,fi_AvmmReadModifyWrite
FN:901,fv_BugLog
FN:915,fi_WaitCalDone
FN:951,using_iopll
FNDA:0,get_userclock
FNDA:3,set_userclock
FNDA:2,fi_RunInitz
FNDA:4,fu64i_GetAVMM_seq
FNDA:4,fi_AvmmRWcom
FNDA:4,fi_AvmmRead
FNDA:0,fi_AvmmWrite
FNDA:206,fv_SleepShort
FNDA:0,fi_GetFreqs
FNDA:2,fi_SetFreqs
FNDA:5,fpac_GetErrMsg
FNDA:2,fi_AvmmReadModifyWriteVerify
FNDA:2,fi_AvmmReadModifyWrite
FNDA:2,fv_BugLog
FNDA:4,fi_WaitCalDone
FNDA:3,using_iopll
FNF:16
FNH:13
DA:77,0
DA:87,0
DA:88,0
DA:89,0
DA:90,0
DA:95,0
DA:96,0
DA:97,0
DA:98,0
DA:99,0
DA:101,0
DA:102,0
DA:103,0
DA:104,0
DA:105,0
DA:109,0
DA:110,0
DA:111,0
DA:115,0
DA:116,0
DA:117,0
DA:120,0
DA:121,0
DA:123,0
DA:127,3
DA:132,3
DA:133,3
DA:139,3
DA:140,0
DA:141,0
DA:144,3
DA:145,3
DA:147,0
DA:148,0
DA:149,0
DA:150,0
DA:153,0
DA:154,0
DA:155,0
DA:157,0
DA:159,0
DA:160,0
DA:162,0
DA:163,0
DA:164,0
DA:165,0
DA:167,0
DA:168,0
DA:169,0
DA:170,0
DA:172,0
DA:173,3
DA:174,0
DA:178,3
DA:179,0
DA:180,0
DA:183,3
DA:184,1
DA:185,0
DA:186,0
DA:190,3
DA:191,0
DA:194,3
DA:195,1
DA:196,1
DA:200,2
DA:201,0
DA:202,0
DA:205,2
DA:207,0
DA:211,0
DA:217,2
DA:218,2
DA:219,2
DA:222,0
DA:226,2
DA:237,2
DA:238,2
DA:239,2
DA:240,2
DA:241,2
DA:242,2
DA:243,2
DA:244,2
DA:245,2
DA:246,2
DA:247,2
DA:248,2
DA:249,2
DA:250,2
DA:253,2
DA:254,0
DA:255,0
DA:257,2
DA:261,2
DA:264,2
DA:265,2
DA:268,2
DA:269,2
DA:272,2
DA:275,2
DA:277,2
DA:279,2
DA:281,2
DA:283,2
DA:285,2
DA:290,2
DA:293,2
DA:295,2
DA:298,2
DA:299,2
DA:300,2
DA:302,0
DA:307,0
DA:316,2
DA:318,2
DA:321,2
DA:325,2
DA:326,2
DA:327,2
DA:329,2
DA:331,2
DA:334,2
DA:335,2
DA:336,2
DA:338,2
DA:342,2
DA:345,2
DA:346,2
DA:347,2
DA:348,2
DA:349,2
DA:351,2
DA:353,2
DA:355,0
DA:357,0
DA:358,0
DA:366,2
DA:368,2
DA:372,4
DA:376,4
DA:377,4
DA:379,4
DA:384,4
DA:399,4
DA:402,4
DA:403,4
DA:405,4
DA:407,0
DA:408,0
DA:411,4
DA:412,4
DA:415,4
DA:416,4
DA:417,4
DA:418,4
DA:419,4
DA:421,4
DA:422,4
DA:426,4
DA:427,4
DA:429,4
DA:431,4
DA:432,4
DA:434,4
DA:440,204
DA:442,20202
DA:444,20002
DA:446,20002
DA:447,20002
DA:449,2
DA:454,200
DA:455,200
DA:458,2
DA:462,4
DA:463,4
DA:464,4
DA:470,4
DA:473,4
DA:474,4
DA:475,4
DA:478,4
DA:479,4
DA:480,4
DA:484,4
DA:488,0
DA:491,0
DA:492,0
DA:493,0
DA:496,0
DA:497,0
DA:501,0
DA:506,206
DA:510,206
DA:511,206
DA:512,206
DA:514,206
DA:515,206
DA:518,206
DA:519,206
DA:520,206
DA:521,0
DA:522,0
DA:524,206
DA:526,206
DA:531,0
DA:536,0
DA:537,0
DA:538,0
DA:539,0
DA:542,0
DA:544,0
DA:545,0
DA:547,0
DA:549,0
DA:551,0
DA:552,0
DA:554,0
DA:557,0
DA:559,0
DA:561,0
DA:563,0
DA:566,0
DA:567,0
DA:568,0
DA:571,0
DA:572,0
DA:575,0
DA:577,0
DA:579,0
DA:581,0
DA:583,0
DA:585,0
DA:587,0
DA:589,0
DA:590,0
DA:591,0
DA:592,0
DA:596,0
DA:608,0
DA:612,2
DA:623,2
DA:625,2
DA:626,0
DA:628,2
DA:629,2
DA:630,4
DA:632,2
DA:634,0
DA:637,0
DA:638,0
DA:640,0
DA:642,0
DA:646,0
DA:650,2
DA:651,2
DA:652,2
DA:653,0
DA:655,2
DA:656,2
DA:657,0
DA:658,0
DA:659,0
DA:661,2
DA:662,2
DA:663,0
DA:665,0
DA:670,2
DA:673,2
DA:674,2
DA:675,2
DA:677,2
DA:681,2
DA:682,2
DA:685,2
DA:687,0
DA:689,0
DA:693,0
DA:695,0
DA:700,2
DA:702,0
DA:703,0
DA:704,0
DA:706,0
DA:708,0
DA:710,0
DA:713,0
DA:714,0
DA:717,0
DA:719,0
DA:720,0
DA:723,0
DA:724,0
DA:725,0
DA:726,0
DA:727,0
DA:729,0
DA:730,0
DA:731,0
DA:734,0
DA:735,0
DA:736,0
DA:737,0
DA:740,0
DA:741,0
DA:745,2
DA:747,0
DA:750,2
DA:756,0
DA:757,0
DA:758,0
DA:759,0
DA:762,0
DA:765,0
DA:766,0
DA:767,0
DA:768,0
DA:773,0
DA:776,0
DA:777,0
DA:778,0
DA:781,0
DA:782,0
DA:787,2
DA:789,0
DA:792,2
DA:795,0
DA:796,0
DA:797,0
DA:798,0
DA:802,2
DA:804,0
DA:805,0
DA:807,0
DA:810,0
DA:812,0
DA:813,0
DA:816,0
DA:817,0
DA:820,0
DA:823,0
DA:827,2
DA:832,5
DA:836,5
DA:839,5
DA:843,5
DA:844,4
DA:846,2
DA:849,5
DA:853,2
DA:857,2
DA:858,2
DA:860,2
DA:862,2
DA:864,0
DA:866,0
DA:867,0
DA:868,0
DA:870,0
DA:875,2
DA:880,2
DA:883,2
DA:884,2
DA:885,2
DA:888,2
DA:890,2
DA:891,0
DA:892,0
DA:893,0
DA:896,2
DA:901,2
DA:903,2
DA:904,1
DA:907,1
DA:910,2
DA:915,4
DA:919,4
DA:920,4
DA:921,4
DA:922,4
DA:923,4
DA:926,4
DA:928,4
DA:930,4
DA:932,4
DA:933,4
DA:936,0
DA:937,0
DA:941,4
DA:943,0
DA:946,4
DA:951,3
DA:957,3
DA:960,3
DA:961,3
DA:963,0
DA:964,0
DA:966,0
DA:968,0
DA:970,0
DA:971,0
DA:972,0
DA:975,0
LF:403
LH:202
end_of_record
TN:
SF:/home/workspace/jelonanx/opae-sdk/testing/xfpga/test_token_list_c.cpp
FN:43,_ZN29token_list_c_simple_case_TestD0Ev
FN:43,_ZN29token_list_c_simple_case_TestC2Ev
FN:43,_ZN29token_list_c_simple_case_TestD2Ev
FN:43,_Z41__static_initialization_and_destruction_0ii
FN:43,_ZN29token_list_c_simple_case_Test8TestBodyEv
FN:66,_ZN31token_list_c_invalid_paths_Test8TestBodyEv
FN:66,_ZN31token_list_c_invalid_paths_TestC2Ev
FN:66,_ZN31token_list_c_invalid_paths_TestD0Ev
FN:66,_ZN31token_list_c_invalid_paths_TestD2Ev
FN:100,_GLOBAL__sub_I__ZN29token_list_c_simple_case_Test10test_info_E
FNDA:1,_ZN29token_list_c_simple_case_TestD0Ev
FNDA:1,_ZN29token_list_c_simple_case_TestD2Ev
FNDA:1,_ZN29token_list_c_simple_case_Test8TestBodyEv
FNDA:1,_ZN29token_list_c_simple_case_TestC2Ev
FNDA:1,_ZN31token_list_c_invalid_paths_TestD0Ev
FNDA:1,_ZN31token_list_c_invalid_paths_TestD2Ev
FNDA:1,_ZN31token_list_c_invalid_paths_Test8TestBodyEv
FNDA:1,_ZN31token_list_c_invalid_paths_TestC2Ev
FNDA:1,_GLOBAL__sub_I__ZN29token_list_c_simple_case_Test10test_info_E
FNDA:1,_Z41__static_initialization_and_destruction_0ii
FNF:10
FNH:10
DA:43,5
DA:45,1
DA:46,1
DA:47,1
DA:48,1
DA:49,1
DA:50,1
DA:51,1
DA:52,1
DA:53,1
DA:54,1
DA:56,1
DA:57,1
DA:59,1
DA:61,1
DA:62,1
DA:66,5
DA:69,1
DA:70,2
DA:71,2
DA:72,2
DA:73,1
DA:74,1
DA:77,1
DA:78,1
DA:79,1
DA:80,1
DA:83,1
DA:84,1
DA:85,1
DA:86,1
DA:90,1
DA:91,1
DA:93,1
DA:94,1
DA:95,2
DA:99,2
DA:100,3
LF:38
LH:38
end_of_record
SF:/usr/include/c++/4.8/bits/allocator.h
FN:133,_ZSteqIcEbRKSaIT_ES3_
FNDA:0,_ZSteqIcEbRKSaIT_ES3_
FNF:1
FNH:0
DA:133,0
DA:134,0
LF:2
LH:0
end_of_record
SF:/usr/include/c++/4.8/bits/basic_string.h
FN:272,_ZNSs12_Alloc_hiderD2Ev
FN:1721,_ZNSs16_S_construct_auxIPcEES0_T_S1_RKSaIcESt12__false_type
FN:1743,_ZNSs12_S_constructIPcEES0_T_S1_RKSaIcE
FNDA:0,_ZNSs12_Alloc_hiderD2Ev
FNDA:0,_ZNSs16_S_construct_auxIPcEES0_T_S1_RKSaIcESt12__false_type
FNDA:0,_ZNSs12_S_constructIPcEES0_T_S1_RKSaIcE
FNF:3
FNH:0
DA:272,0
DA:1721,0
DA:1725,0
DA:1743,0
DA:1746,0
LF:5
LH:0
end_of_record
SF:/usr/include/c++/4.8/bits/basic_string.tcc
FN:123,_ZNSs12_S_constructIPcEES0_T_S1_RKSaIcESt20forward_iterator_tag
FN:227,_ZNSsC2IPcEET_S1_RKSaIcE
FNDA:0,_ZNSs12_S_constructIPcEES0_T_S1_RKSaIcESt20forward_iterator_tag
FNDA:0,_ZNSsC2IPcEET_S1_RKSaIcE
FNF:2
FNH:0
DA:123,0
DA:128,0
DA:129,0
DA:132,0
DA:133,0
DA:136,0
DA:138,0
DA:140,0
DA:141,=====
DA:143,=====
DA:144,=====
DA:146,0
DA:147,0
DA:227,0
DA:229,0
DA:230,0
LF:16
LH:0
end_of_record
SF:/usr/include/c++/4.8/bits/char_traits.h
FN:242,_ZNSt11char_traitsIcE6assignERcRKc
